 libvips-cpp

 Timestamp is 5e3d58af (Fri Feb  7 13:31:43 2020)

 Preferred load address is 0000000180000000

 Start         Length     Name                   Class
 0001:00000000 00000330H .text                   CODE
 0001:00000330 0002faa0H .text$mn                CODE
 0001:0002fdd0 00000020H .text$mn$00             CODE
 0001:0002fdf0 00000c60H .text$x                 CODE
 0002:00000000 00000570H .idata$5                DATA
 0002:00000570 00000010H .00cfg                  DATA
 0002:00000580 00000008H .CRT$XCA                DATA
 0002:00000588 00000008H .CRT$XCZ                DATA
 0002:00000590 00000008H .CRT$XIA                DATA
 0002:00000598 00000020H .CRT$XIC                DATA
 0002:000005b8 00000008H .CRT$XIZ                DATA
 0002:000005c0 00000008H .CRT$XPA                DATA
 0002:000005c8 00000010H .CRT$XPX                DATA
 0002:000005d8 00000008H .CRT$XPXA               DATA
 0002:000005e0 00000008H .CRT$XPZ                DATA
 0002:000005e8 00000008H .CRT$XTA                DATA
 0002:000005f0 00000010H .CRT$XTZ                DATA
 0002:000005f8 00000000H .gfids$y                DATA
 0002:00000600 0000d550H .rdata                  DATA
 0002:0000db50 00000484H .rdata$r                DATA
 0002:0000dfd4 00000374H .rdata$zzzdbg           DATA
 0002:0000e348 00000008H .rtc$IAA                DATA
 0002:0000e350 00000008H .rtc$IZZ                DATA
 0002:0000e358 00000008H .rtc$TAA                DATA
 0002:0000e360 00000008H .rtc$TZZ                DATA
 0002:0000e368 00005798H .xdata                  DATA
 0002:00013b00 00000270H .xdata$x                DATA
 0002:00013d70 00008960H .edata                  DATA
 0002:0001c6d0 00000050H .idata$2                DATA
 0002:0001c720 00000018H .idata$3                DATA
 0002:0001c738 00000570H .idata$4                DATA
 0002:0001cca8 00000ef0H .idata$6                DATA
 0002:0001db98 000001d0H .idata$7                DATA
 0003:00000000 000009f0H .data                   DATA
 0003:000009f0 000001c0H .data$r                 DATA
 0003:00000bb0 00001350H .bss                    DATA
 0004:00000000 00002de4H .pdata                  DATA
 0005:00000000 00000060H .rsrc$01                DATA
 0005:00000060 00000180H .rsrc$02                DATA

  Address         Publics by Value              Rva+Base               Lib:Object

 0000:00000000       __guard_fids_count         0000000000000000     <absolute>
 0000:00000000       __guard_longjmp_count      0000000000000000     <absolute>
 0000:00000000       __guard_longjmp_table      0000000000000000     <absolute>
 0000:00000000       __hybrid_code_map          0000000000000000     <absolute>
 0000:00000000       __guard_iat_count          0000000000000000     <absolute>
 0000:00000000       __guard_iat_table          0000000000000000     <absolute>
 0000:00000000       __volatile_metadata        0000000000000000     <absolute>
 0000:00000000       __hybrid_code_map_count    0000000000000000     <absolute>
 0000:00000000       __enclave_config           0000000000000000     <absolute>
 0000:00000000       ___safe_se_handler_count   0000000000000000     <absolute>
 0000:00000000       ___safe_se_handler_table   0000000000000000     <absolute>
 0000:00000000       __guard_fids_table         0000000000000000     <absolute>
 0000:00000000       __hybrid_auxiliary_iat     0000000000000000     <absolute>
 0000:00000000       __dynamic_value_reloc_table 0000000000000000     <absolute>
 0000:00000100       __guard_flags              0000000000000100     <absolute>
 0000:00000000       __ImageBase                0000000180000000     <linker-defined>
 0001:00000000       vips_image_set_int         0000000180001000     libvips:desubs01576.o
 0001:00000008       vips_image_remove          0000000180001008     libvips:desubs01567.o
 0001:00000010       vips_image_new_from_memory 0000000180001010     libvips:desubs01549.o
 0001:00000018       vips_image_set_string      0000000180001018     libvips:desubs01579.o
 0001:00000020       vips_image_set_blob        0000000180001020     libvips:desubs01571.o
 0001:00000028       vips_object_get_type       0000000180001028     libvips:desubs01748.o
 0001:00000030       vips_image_get_xoffset     0000000180001030     libvips:desubs01519.o
 0001:00000038       vips_image_get_width       0000000180001038     libvips:desubs01518.o
 0001:00000040       vips_image_get_yres        0000000180001040     libvips:desubs01522.o
 0001:00000048       vips_image_get_height      0000000180001048     libvips:desubs01505.o
 0001:00000050       vips_image_new_memory      0000000180001050     libvips:desubs01555.o
 0001:00000058       vips_image_get_filename    0000000180001058     libvips:desubs01503.o
 0001:00000060       vips_image_get_string      0000000180001060     libvips:desubs01515.o
 0001:00000068       vips_image_get_data        0000000180001068     libvips:desubs01500.o
 0001:00000070       vips_image_guess_interpretation 0000000180001070     libvips:desubs01524.o
 0001:00000078       vips_image_get_format      0000000180001078     libvips:desubs01504.o
 0001:00000080       vips_image_get_xres        0000000180001080     libvips:desubs01520.o
 0001:00000088       vips_image_new_from_image  0000000180001088     libvips:desubs01547.o
 0001:00000090       vips_image_copy_memory     0000000180001090     libvips:desubs01487.o
 0001:00000098       vips_image_get_interpretation 0000000180001098     libvips:desubs01509.o
 0001:000000a0       vips_image_write_to_memory 00000001800010a0     libvips:desubs01588.o
 0001:000000a8       vips_image_get_bands       00000001800010a8     libvips:desubs01497.o
 0001:000000b0       vips_image_set_array_int   00000001800010b0     libvips:desubs01570.o
 0001:000000b8       vips_image_get_typeof      00000001800010b8     libvips:desubs01517.o
 0001:000000c0       vips_image_new_matrix_from_array 00000001800010c0     libvips:desubs01553.o
 0001:000000c8       vips_image_get_coding      00000001800010c8     libvips:desubs01499.o
 0001:000000d0       vips_error_buffer          00000001800010d0     libvips:desubs01240.o
 0001:000000d8       vips_image_new_temp_file   00000001800010d8     libvips:desubs01557.o
 0001:000000e0       vips_image_get_blob        00000001800010e0     libvips:desubs01498.o
 0001:000000e8       vips_image_get_array_int   00000001800010e8     libvips:desubs01495.o
 0001:000000f0       vips_image_get_double      00000001800010f0     libvips:desubs01501.o
 0001:000000f8       vips_image_set_double      00000001800010f8     libvips:desubs01574.o
 0001:00000100       vips_image_hasalpha        0000000180001100     libvips:desubs01525.o
 0001:00000108       vips_image_get_int         0000000180001108     libvips:desubs01508.o
 0001:00000110       vips_image_get_yoffset     0000000180001110     libvips:desubs01521.o
 0001:00000118       vips_source_new_from_memory 0000000180001118     libvips:desubs02016.o
 0001:00000120       vips_source_new_from_options 0000000180001120     libvips:desubs02017.o
 0001:00000128       vips_source_new_from_blob  0000000180001128     libvips:desubs02013.o
 0001:00000130       vips_target_new_to_memory  0000000180001130     libvips:desubs02060.o
 0001:00000138       vips_source_get_type       0000000180001138     libvips:desubs02007.o
 0001:00000140       vips_source_new_from_descriptor 0000000180001140     libvips:desubs02014.o
 0001:00000148       vips_source_new_from_file  0000000180001148     libvips:desubs02015.o
 0001:00000150       vips_target_new_to_file    0000000180001150     libvips:desubs02059.o
 0001:00000158       vips_target_new_to_descriptor 0000000180001158     libvips:desubs02058.o
 0001:00000160       vips_target_get_type       0000000180001160     libvips:desubs02057.o
 0001:00000168       vips_interpolate_new       0000000180001168     libvips:desubs01611.o
 0001:00000170       vips_interpolate_get_type  0000000180001170     libvips:desubs01604.o
 0001:00000178       vips_foreign_find_save_target 0000000180001178     libvips:desubs01294.o
 0001:00000180       vips_value_set_array_image 0000000180001180     libvips:desubs02131.o
 0001:00000188       vips_value_set_array_double 0000000180001188     libvips:desubs02130.o
 0001:00000190       vips_foreign_find_load_buffer 0000000180001190     libvips:desubs01290.o
 0001:00000198       vips_value_get_array_int   0000000180001198     libvips:desubs02122.o
 0001:000001a0       vips_operation_new         00000001800011a0     libvips:desubs01787.o
 0001:000001a8       vips_array_image_get_type  00000001800011a8     libvips:desubs00910.o
 0001:000001b0       vips__filename_split8      00000001800011b0     libvips:desubs00711.o
 0001:000001b8       vips_blob_new              00000001800011b8     libvips:desubs00962.o
 0001:000001c0       vips_cache_operation_buildp 00000001800011c0     libvips:desubs01015.o
 0001:000001c8       vips_foreign_find_load_source 00000001800011c8     libvips:desubs01291.o
 0001:000001d0       vips_value_set_array_int   00000001800011d0     libvips:desubs02132.o
 0001:000001d8       vips_blob_get_type         00000001800011d8     libvips:desubs00961.o
 0001:000001e0       vips_enum_from_nick        00000001800011e0     libvips:desubs01230.o
 0001:000001e8       vips_array_double_get_type 00000001800011e8     libvips:desubs00904.o
 0001:000001f0       vips_format_sizeof_unsafe  00000001800011f0     libvips:desubs01390.o
 0001:000001f8       vips_value_get_array_double 00000001800011f8     libvips:desubs02120.o
 0001:00000200       vips_image_new_matrix      0000000180001200     libvips:desubs01552.o
 0001:00000208       vips_image_get_type        0000000180001208     libvips:desubs01516.o
 0001:00000210       vips_object_unref_outputs  0000000180001210     libvips:desubs01772.o
 0001:00000218       vips_foreign_find_save     0000000180001218     libvips:desubs01292.o
 0001:00000220       vips_error_clear           0000000180001220     libvips:desubs01242.o
 0001:00000228       vips_object_set_from_string 0000000180001228     libvips:desubs01765.o
 0001:00000230       vips_value_get_array_image 0000000180001230     libvips:desubs02121.o
 0001:00000238       vips_image_write           0000000180001238     libvips:desubs01583.o
 0001:00000240       vips_area_unref            0000000180001240     libvips:desubs00890.o
 0001:00000248       vips_foreign_find_save_buffer 0000000180001248     libvips:desubs01293.o
 0001:00000250       vips_array_int_get_type    0000000180001250     libvips:desubs00915.o
 0001:00000258       vips_object_get_argument   0000000180001258     libvips:desubs01742.o
 0001:00000260       vips_foreign_find_load     0000000180001260     libvips:desubs01289.o
 0001:00000270       g_assertion_message_expr   0000000180001270     libglib-2.0:dnoubs00046.o
 0001:00000278       g_log                      0000000180001278     libglib-2.0:dnoubs00662.o
 0001:00000280       g_object_ref               0000000180001280     libgobject-2.0:dxoubs00144.o
 0001:00000288       g_object_unref             0000000180001288     libgobject-2.0:dxoubs00162.o
 0001:00000290       g_type_check_instance_is_a 0000000180001290     libgobject-2.0:dxoubs00279.o
 0001:00000298       g_value_init               0000000180001298     libgobject-2.0:dxoubs00391.o
 0001:000002a0       g_value_set_object         00000001800012a0     libgobject-2.0:dxoubs00409.o
 0001:000002a8       g_value_set_boolean        00000001800012a8     libgobject-2.0:dxoubs00396.o
 0001:000002b0       g_value_get_string         00000001800012b0     libgobject-2.0:dxoubs00384.o
 0001:000002b8       g_value_set_double         00000001800012b8     libgobject-2.0:dxoubs00400.o
 0001:000002c0       g_value_set_string         00000001800012c0     libgobject-2.0:dxoubs00417.o
 0001:000002c8       g_type_check_instance_cast 00000001800012c8     libgobject-2.0:dxoubs00278.o
 0001:000002d0       g_value_get_boolean        00000001800012d0     libgobject-2.0:dxoubs00369.o
 0001:000002d8       g_value_set_boxed          00000001800012d8     libgobject-2.0:dxoubs00397.o
 0001:000002e0       g_value_get_object         00000001800012e0     libgobject-2.0:dxoubs00380.o
 0001:000002e8       g_value_set_int            00000001800012e8     libgobject-2.0:dxoubs00406.o
 0001:000002f0       g_value_dup_boxed          00000001800012f0     libgobject-2.0:dxoubs00363.o
 0001:000002f8       g_value_get_int            00000001800012f8     libgobject-2.0:dxoubs00377.o
 0001:00000300       g_value_set_enum           0000000180001300     libgobject-2.0:dxoubs00401.o
 0001:00000308       g_value_get_double         0000000180001308     libgobject-2.0:dxoubs00372.o
 0001:00000310       g_object_get_property      0000000180001310     libgobject-2.0:dxoubs00129.o
 0001:00000318       g_value_unset              0000000180001318     libgobject-2.0:dxoubs00432.o
 0001:00000320       g_object_set_property      0000000180001320     libgobject-2.0:dxoubs00154.o
 0001:00000330       ??0exception@stdext@@QEAA@AEBV01@@Z 0000000180001330 f i VError.obj
 0001:00000350       ??1failure@ios_base@std@@UEAA@XZ 0000000180001350 f i VError.obj
 0001:00000350       ??1exception@stdext@@UEAA@XZ 0000000180001350 f i VError.obj
 0001:00000360       ?what@exception@stdext@@UEBAPEBDXZ 0000000180001360 f i VError.obj
 0001:00000380       ?_Raise@exception@stdext@@QEBAXXZ 0000000180001380 f i VError.obj
 0001:000003c0       ?_Doraise@exception@stdext@@MEBAXXZ 00000001800013c0 f i VError.obj
 0001:000003c0       _guard_check_icall_nop     00000001800013c0 f i LIBCMT:guard_support.obj
 0001:000003d0       ??_Eexception@stdext@@UEAAPEAXI@Z 00000001800013d0 f i * CIL library *:* CIL module *
 0001:000003d0       ??_Gruntime_error@std@@UEAAPEAXI@Z 00000001800013d0 f i VError.obj
 0001:000003d0       ??_Gexception@stdext@@UEAAPEAXI@Z 00000001800013d0 f i VError.obj
 0001:000003d0       ??_Eruntime_error@std@@UEAAPEAXI@Z 00000001800013d0 f i * CIL library *:* CIL module *
 0001:00000400       ?default_error_condition@error_category@std@@UEBA?AVerror_condition@2@H@Z 0000000180001400 f i VError.obj
 0001:00000410       ?equivalent@error_category@std@@UEBA_NHAEBVerror_condition@2@@Z 0000000180001410 f i VError.obj
 0001:00000450       ?equivalent@error_category@std@@UEBA_NAEBVerror_code@2@H@Z 0000000180001450 f i VError.obj
 0001:00000470       ?make_error_code@std@@YA?AVerror_code@1@W4io_errc@1@@Z 0000000180001470 f i VError.obj
 0001:000004c0       ?_Makestr@_System_error@std@@CA?AV?$basic_string@DU?$char_traits@D@std@@V?$allocator@D@2@@2@Verror_code@2@V32@@Z 00000001800014c0 f i VError.obj
 0001:00000670       ??_G_System_error@std@@UEAAPEAXI@Z 0000000180001670 f i VError.obj
 0001:00000670       ??_Efailure@ios_base@std@@UEAAPEAXI@Z 0000000180001670 f i * CIL library *:* CIL module *
 0001:00000670       ??_Gfailure@ios_base@std@@UEAAPEAXI@Z 0000000180001670 f i VError.obj
 0001:00000670       ??_E_System_error@std@@UEAAPEAXI@Z 0000000180001670 f i * CIL library *:* CIL module *
 0001:000006a0       ?name@_Iostream_error_category@std@@UEBAPEBDXZ 00000001800016a0 f i VError.obj
 0001:000006b0       ?message@_Iostream_error_category@std@@UEBA?AV?$basic_string@DU?$char_traits@D@std@@V?$allocator@D@2@@2@H@Z 00000001800016b0 f i VError.obj
 0001:00000730       ??_G_Iostream_error_category@std@@UEAAPEAXI@Z 0000000180001730 f i VError.obj
 0001:00000730       ??_E_Iostream_error_category@std@@UEAAPEAXI@Z 0000000180001730 f i * CIL library *:* CIL module *
 0001:00000760       ??0failure@ios_base@std@@QEAA@PEBDAEBVerror_code@2@@Z 0000000180001760 f i VError.obj
 0001:000008e0       ?_Doraise@failure@ios_base@std@@MEBAXXZ 00000001800018e0 f i VError.obj
 0001:00000900       ??0VError@vips@@QEAA@AEBV?$basic_string@DU?$char_traits@D@std@@V?$allocator@D@2@@std@@@Z 0000000180001900 f i VError.obj
 0001:00000940       ??0VError@vips@@QEAA@XZ    0000000180001940 f i VError.obj
 0001:000009b0       ??1VError@vips@@UEAA@XZ    00000001800019b0 f i VError.obj
 0001:00000a30       ?what@VError@vips@@UEBAPEBDXZ 0000000180001a30 f i VError.obj
 0001:00000a40       ??0VError@vips@@QEAA@AEBV01@@Z 0000000180001a40 f i VError.obj
 0001:00000a90       ??4VError@vips@@QEAAAEAV01@AEBV01@@Z 0000000180001a90 f i VError.obj
 0001:00000ad0       ??_EVError@vips@@UEAAPEAXI@Z 0000000180001ad0 f i VError.obj
 0001:00000b60       ??0VObject@vips@@QEAA@PEAU_VipsObject@@W4VSteal@1@@Z 0000000180001b60 f i VError.obj
 0001:00000be0       ??4VObject@vips@@QEAAAEAV01@AEBV01@@Z 0000000180001be0 f i VError.obj
 0001:00000cb0       ??0VOption@vips@@QEAA@XZ   0000000180001cb0 f i VError.obj
 0001:00000d00       ??0VOption@vips@@QEAA@AEBV01@@Z 0000000180001d00 f i VError.obj
 0001:00000d80       ??4VOption@vips@@QEAAAEAV01@AEBV01@@Z 0000000180001d80 f i VError.obj
 0001:00000f10       ??_EVOption@vips@@UEAAPEAXI@Z 0000000180001f10 f i VError.obj
 0001:00000fb0       ??0VImage@vips@@QEAA@PEAU_VipsImage@@W4VSteal@1@@Z 0000000180001fb0 f i VError.obj
 0001:00000fb0       ??0VInterpolate@vips@@QEAA@PEAU_VipsInterpolate@@W4VSteal@1@@Z 0000000180001fb0 f i VError.obj
 0001:00000fb0       ??0VTarget@vips@@QEAA@PEAU_VipsTarget@@W4VSteal@1@@Z 0000000180001fb0 f i VError.obj
 0001:00000fb0       ??0VSource@vips@@QEAA@PEAU_VipsSource@@W4VSteal@1@@Z 0000000180001fb0 f i VError.obj
 0001:00000fd0       ??0VImage@vips@@QEAA@XZ    0000000180001fd0 f i VError.obj
 0001:00000fe0       ?get_interpolate@VInterpolate@vips@@QEBAPEAU_VipsInterpolate@@XZ 0000000180001fe0 f i VError.obj
 0001:00000fe0       ?get_image@VImage@vips@@QEBAPEAU_VipsImage@@XZ 0000000180001fe0 f i VError.obj
 0001:00000fe0       ?get_source@VSource@vips@@QEBAPEAU_VipsSource@@XZ 0000000180001fe0 f i VError.obj
 0001:00000fe0       ?get_target@VTarget@vips@@QEBAPEAU_VipsTarget@@XZ 0000000180001fe0 f i VError.obj
 0001:00001040       ?width@VImage@vips@@QEBAHXZ 0000000180002040 f i VError.obj
 0001:000010a0       ?height@VImage@vips@@QEBAHXZ 00000001800020a0 f i VError.obj
 0001:00001100       ?bands@VImage@vips@@QEBAHXZ 0000000180002100 f i VError.obj
 0001:00001160       ?format@VImage@vips@@QEBA?AW4VipsBandFormat@@XZ 0000000180002160 f i VError.obj
 0001:000011c0       ?coding@VImage@vips@@QEBA?AW4VipsCoding@@XZ 00000001800021c0 f i VError.obj
 0001:00001220       ?interpretation@VImage@vips@@QEBA?AW4VipsInterpretation@@XZ 0000000180002220 f i VError.obj
 0001:00001280       ?guess_interpretation@VImage@vips@@QEBA?AW4VipsInterpretation@@XZ 0000000180002280 f i VError.obj
 0001:000012e0       ?xres@VImage@vips@@QEBANXZ 00000001800022e0 f i VError.obj
 0001:00001340       ?yres@VImage@vips@@QEBANXZ 0000000180002340 f i VError.obj
 0001:000013a0       ?xoffset@VImage@vips@@QEBAHXZ 00000001800023a0 f i VError.obj
 0001:00001400       ?yoffset@VImage@vips@@QEBAHXZ 0000000180002400 f i VError.obj
 0001:00001460       ?has_alpha@VImage@vips@@QEBA_NXZ 0000000180002460 f i VError.obj
 0001:000014c0       ?filename@VImage@vips@@QEBAPEBDXZ 00000001800024c0 f i VError.obj
 0001:00001520       ?data@VImage@vips@@QEBAPEBXXZ 0000000180002520 f i VError.obj
 0001:00001580       ?set@VImage@vips@@QEAAXPEBDH@Z 0000000180002580 f i VError.obj
 0001:00001600       ?set@VImage@vips@@QEAAXPEBDPEAHH@Z 0000000180002600 f i VError.obj
 0001:00001690       ?set@VImage@vips@@QEAAXPEBDV?$vector@HV?$allocator@H@std@@@std@@@Z 0000000180002690 f i VError.obj
 0001:00001780       ?set@VImage@vips@@QEAAXPEBDN@Z 0000000180002780 f i VError.obj
 0001:00001800       ?set@VImage@vips@@QEAAXPEBD0@Z 0000000180002800 f i VError.obj
 0001:00001880       ?set@VImage@vips@@QEAAXPEBDP6AHPEAX1@Z1_K@Z 0000000180002880 f i VError.obj
 0001:00001910       ?get_typeof@VImage@vips@@QEBA_KPEBD@Z 0000000180002910 f i VError.obj
 0001:00001980       ?get_int@VImage@vips@@QEBAHPEBD@Z 0000000180002980 f i VError.obj
 0001:00001a30       ?get_array_int@VImage@vips@@QEBAXPEBDPEAPEAHPEAH@Z 0000000180002a30 f i VError.obj
 0001:00001ae0       ?get_array_int@VImage@vips@@QEBA?AV?$vector@HV?$allocator@H@std@@@std@@PEBD@Z 0000000180002ae0 f i VError.obj
 0001:00001bf0       ?get_double@VImage@vips@@QEBANPEBD@Z 0000000180002bf0 f i VError.obj
 0001:00001cb0       ?get_string@VImage@vips@@QEBAPEBDPEBD@Z 0000000180002cb0 f i VError.obj
 0001:00001d60       ?get_blob@VImage@vips@@QEBAPEBXPEBDPEA_K@Z 0000000180002d60 f i VError.obj
 0001:00001e10       ?remove@VImage@vips@@QEBA_NPEBD@Z 0000000180002e10 f i VError.obj
 0001:00001e80       ?option@VImage@vips@@SAPEAVVOption@2@XZ 0000000180002e80 f i VError.obj
 0001:00001ef0       ?new_memory@VImage@vips@@SA?AV12@XZ 0000000180002ef0 f i VError.obj
 0001:00001f60       ?new_temp_file@VImage@vips@@SA?AV12@PEBD@Z 0000000180002f60 f i VError.obj
 0001:00002010       ?new_from_memory@VImage@vips@@SA?AV12@PEAX_KHHHW4VipsBandFormat@@@Z 0000000180003010 f i VError.obj
 0001:000020e0       ?new_matrix@VImage@vips@@SA?AV12@HHPEANH@Z 00000001800030e0 f i VError.obj
 0001:000021a0       ?new_from_image@VImage@vips@@QEBA?AV12@V?$vector@NV?$allocator@N@std@@@std@@@Z 00000001800031a0 f i VError.obj
 0001:00002310       ?new_from_image@VImage@vips@@QEBA?AV12@N@Z 0000000180003310 f i VError.obj
 0001:00002350       ?copy_memory@VImage@vips@@QEBA?AV12@XZ 0000000180003350 f i VError.obj
 0001:00002440       ?write_to_memory@VImage@vips@@QEBAPEAXPEA_K@Z 0000000180003440 f i VError.obj
 0001:000024f0       ?linear@VImage@vips@@QEBA?AV12@NNPEAVVOption@2@@Z 00000001800034f0 f i VError.obj
 0001:00002590       ?linear@VImage@vips@@QEBA?AV12@V?$vector@NV?$allocator@N@std@@@std@@NPEAVVOption@2@@Z 0000000180003590 f i VError.obj
 0001:000026c0       ?linear@VImage@vips@@QEBA?AV12@NV?$vector@NV?$allocator@N@std@@@std@@PEAVVOption@2@@Z 00000001800036c0 f i VError.obj
 0001:00002800       ?bandjoin@VImage@vips@@QEBA?AV12@NPEAVVOption@2@@Z 0000000180003800 f i VError.obj
 0001:00002860       ?bandjoin@VImage@vips@@QEBA?AV12@V?$vector@NV?$allocator@N@std@@@std@@PEAVVOption@2@@Z 0000000180003860 f i VError.obj
 0001:00002960       ?fliphor@VImage@vips@@QEBA?AV12@PEAVVOption@2@@Z 0000000180003960 f i VError.obj
 0001:00002980       ?flipver@VImage@vips@@QEBA?AV12@PEAVVOption@2@@Z 0000000180003980 f i VError.obj
 0001:000029a0       ?rot90@VImage@vips@@QEBA?AV12@PEAVVOption@2@@Z 00000001800039a0 f i VError.obj
 0001:000029c0       ?rot180@VImage@vips@@QEBA?AV12@PEAVVOption@2@@Z 00000001800039c0 f i VError.obj
 0001:000029e0       ?rot270@VImage@vips@@QEBA?AV12@PEAVVOption@2@@Z 00000001800039e0 f i VError.obj
 0001:00002a00       ?dilate@VImage@vips@@QEBA?AV12@V12@PEAVVOption@2@@Z 0000000180003a00 f i VError.obj
 0001:00002b00       ?erode@VImage@vips@@QEBA?AV12@V12@PEAVVOption@2@@Z 0000000180003b00 f i VError.obj
 0001:00002bf0       ?median@VImage@vips@@QEBA?AV12@HPEAVVOption@2@@Z 0000000180003bf0 f i VError.obj
 0001:00002c30       ?floor@VImage@vips@@QEBA?AV12@PEAVVOption@2@@Z 0000000180003c30 f i VError.obj
 0001:00002c50       ?ceil@VImage@vips@@QEBA?AV12@PEAVVOption@2@@Z 0000000180003c50 f i VError.obj
 0001:00002c70       ?rint@VImage@vips@@QEBA?AV12@PEAVVOption@2@@Z 0000000180003c70 f i VError.obj
 0001:00002c90       ?bandand@VImage@vips@@QEBA?AV12@PEAVVOption@2@@Z 0000000180003c90 f i VError.obj
 0001:00002cb0       ?bandor@VImage@vips@@QEBA?AV12@PEAVVOption@2@@Z 0000000180003cb0 f i VError.obj
 0001:00002cd0       ?bandeor@VImage@vips@@QEBA?AV12@PEAVVOption@2@@Z 0000000180003cd0 f i VError.obj
 0001:00002cf0       ?real@VImage@vips@@QEBA?AV12@PEAVVOption@2@@Z 0000000180003cf0 f i VError.obj
 0001:00002d10       ?imag@VImage@vips@@QEBA?AV12@PEAVVOption@2@@Z 0000000180003d10 f i VError.obj
 0001:00002d30       ?polar@VImage@vips@@QEBA?AV12@PEAVVOption@2@@Z 0000000180003d30 f i VError.obj
 0001:00002d50       ?rect@VImage@vips@@QEBA?AV12@PEAVVOption@2@@Z 0000000180003d50 f i VError.obj
 0001:00002d70       ?conj@VImage@vips@@QEBA?AV12@PEAVVOption@2@@Z 0000000180003d70 f i VError.obj
 0001:00002d90       ?sin@VImage@vips@@QEBA?AV12@PEAVVOption@2@@Z 0000000180003d90 f i VError.obj
 0001:00002db0       ?cos@VImage@vips@@QEBA?AV12@PEAVVOption@2@@Z 0000000180003db0 f i VError.obj
 0001:00002dd0       ?tan@VImage@vips@@QEBA?AV12@PEAVVOption@2@@Z 0000000180003dd0 f i VError.obj
 0001:00002df0       ?asin@VImage@vips@@QEBA?AV12@PEAVVOption@2@@Z 0000000180003df0 f i VError.obj
 0001:00002e10       ?acos@VImage@vips@@QEBA?AV12@PEAVVOption@2@@Z 0000000180003e10 f i VError.obj
 0001:00002e30       ?atan@VImage@vips@@QEBA?AV12@PEAVVOption@2@@Z 0000000180003e30 f i VError.obj
 0001:00002e50       ?log@VImage@vips@@QEBA?AV12@PEAVVOption@2@@Z 0000000180003e50 f i VError.obj
 0001:00002e70       ?log10@VImage@vips@@QEBA?AV12@PEAVVOption@2@@Z 0000000180003e70 f i VError.obj
 0001:00002e90       ?exp@VImage@vips@@QEBA?AV12@PEAVVOption@2@@Z 0000000180003e90 f i VError.obj
 0001:00002eb0       ?exp10@VImage@vips@@QEBA?AV12@PEAVVOption@2@@Z 0000000180003eb0 f i VError.obj
 0001:00002ed0       ?pow@VImage@vips@@QEBA?AV12@V12@PEAVVOption@2@@Z 0000000180003ed0 f i VError.obj
 0001:00002fc0       ?pow@VImage@vips@@QEBA?AV12@NPEAVVOption@2@@Z 0000000180003fc0 f i VError.obj
 0001:00003020       ?pow@VImage@vips@@QEBA?AV12@V?$vector@NV?$allocator@N@std@@@std@@PEAVVOption@2@@Z 0000000180004020 f i VError.obj
 0001:00003120       ?wop@VImage@vips@@QEBA?AV12@V12@PEAVVOption@2@@Z 0000000180004120 f i VError.obj
 0001:00003220       ?wop@VImage@vips@@QEBA?AV12@NPEAVVOption@2@@Z 0000000180004220 f i VError.obj
 0001:00003280       ?wop@VImage@vips@@QEBA?AV12@V?$vector@NV?$allocator@N@std@@@std@@PEAVVOption@2@@Z 0000000180004280 f i VError.obj
 0001:00003380       ?ifthenelse@VImage@vips@@QEBA?AV12@V?$vector@NV?$allocator@N@std@@@std@@V12@PEAVVOption@2@@Z 0000000180004380 f i VError.obj
 0001:00003550       ?ifthenelse@VImage@vips@@QEBA?AV12@V12@V?$vector@NV?$allocator@N@std@@@std@@PEAVVOption@2@@Z 0000000180004550 f i VError.obj
 0001:00003710       ?ifthenelse@VImage@vips@@QEBA?AV12@V?$vector@NV?$allocator@N@std@@@std@@0PEAVVOption@2@@Z 0000000180004710 f i VError.obj
 0001:000038f0       ?ifthenelse@VImage@vips@@QEBA?AV12@NV12@PEAVVOption@2@@Z 00000001800048f0 f i VError.obj
 0001:00003a20       ?ifthenelse@VImage@vips@@QEBA?AV12@V12@NPEAVVOption@2@@Z 0000000180004a20 f i VError.obj
 0001:00003b40       ?ifthenelse@VImage@vips@@QEBA?AV12@NNPEAVVOption@2@@Z 0000000180004b40 f i VError.obj
 0001:00003be0       ??1VImage@vips@@QEAA@XZ    0000000180004be0 f i VError.obj
 0001:00003be0       ??1VInterpolate@vips@@QEAA@XZ 0000000180004be0 f i VError.obj
 0001:00003be0       ??1VTarget@vips@@QEAA@XZ   0000000180004be0 f i VError.obj
 0001:00003be0       ??1VSource@vips@@QEAA@XZ   0000000180004be0 f i VError.obj
 0001:00003c50       ??0VSource@vips@@QEAA@$$QEAV01@@Z 0000000180004c50 f i VError.obj
 0001:00003c50       ??0VInterpolate@vips@@QEAA@$$QEAV01@@Z 0000000180004c50 f i VError.obj
 0001:00003c50       ??0VTarget@vips@@QEAA@$$QEAV01@@Z 0000000180004c50 f i VError.obj
 0001:00003c50       ??0VTarget@vips@@QEAA@AEBV01@@Z 0000000180004c50 f i VError.obj
 0001:00003c50       ??0VImage@vips@@QEAA@$$QEAV01@@Z 0000000180004c50 f i VError.obj
 0001:00003c50       ??0VInterpolate@vips@@QEAA@AEBV01@@Z 0000000180004c50 f i VError.obj
 0001:00003c50       ??0VSource@vips@@QEAA@AEBV01@@Z 0000000180004c50 f i VError.obj
 0001:00003c50       ??0VImage@vips@@QEAA@AEBV01@@Z 0000000180004c50 f i VError.obj
 0001:00003cc0       ??4VSource@vips@@QEAAAEAV01@$$QEAV01@@Z 0000000180004cc0 f i VError.obj
 0001:00003cc0       ??4VTarget@vips@@QEAAAEAV01@AEBV01@@Z 0000000180004cc0 f i VError.obj
 0001:00003cc0       ??4VSource@vips@@QEAAAEAV01@AEBV01@@Z 0000000180004cc0 f i VError.obj
 0001:00003cc0       ??4VTarget@vips@@QEAAAEAV01@$$QEAV01@@Z 0000000180004cc0 f i VError.obj
 0001:00003cc0       ??4VImage@vips@@QEAAAEAV01@$$QEAV01@@Z 0000000180004cc0 f i VError.obj
 0001:00003cc0       ??4VInterpolate@vips@@QEAAAEAV01@AEBV01@@Z 0000000180004cc0 f i VError.obj
 0001:00003cc0       ??4VInterpolate@vips@@QEAAAEAV01@$$QEAV01@@Z 0000000180004cc0 f i VError.obj
 0001:00003cc0       ??4VImage@vips@@QEAAAEAV01@AEBV01@@Z 0000000180004cc0 f i VError.obj
 0001:00003ce0       ?ostream_print@VError@vips@@QEBAXAEAV?$basic_ostream@DU?$char_traits@D@std@@@std@@@Z 0000000180004ce0 f   VError.obj
 0001:00003d00       ??1?$vector@HV?$allocator@H@std@@@std@@QEAA@XZ 0000000180004d00 f i VError.obj
 0001:00003d60       ??1?$vector@NV?$allocator@N@std@@@std@@QEAA@XZ 0000000180004d60 f i VError.obj
 0001:00003dc0       ??1?$basic_string@DU?$char_traits@D@std@@V?$allocator@D@2@@std@@QEAA@XZ 0000000180004dc0 f i VError.obj
 0001:00003e20       ??0?$basic_string@DU?$char_traits@D@std@@V?$allocator@D@2@@std@@QEAA@AEBV01@@Z 0000000180004e20 f i VError.obj
 0001:00003f00       ??1?$_List_buy@PEAUPair@VOption@vips@@V?$allocator@PEAUPair@VOption@vips@@@std@@@std@@QEAA@XZ 0000000180004f00 f i VError.obj
 0001:00003f10       ?_Buy@?$vector@VVImage@vips@@V?$allocator@VVImage@vips@@@std@@@std@@AEAA_N_K@Z 0000000180004f10 f i VImage.obj
 0001:00003f10       ?_Buy@?$vector@NV?$allocator@N@std@@@std@@AEAA_N_K@Z 0000000180004f10 f i VError.obj
 0001:00003fc0       ?assign@?$basic_string@DU?$char_traits@D@std@@V?$allocator@D@2@@std@@QEAAAEAV12@QEBD_K@Z 0000000180004fc0 f i VError.obj
 0001:00004110       ?append@?$basic_string@DU?$char_traits@D@std@@V?$allocator@D@2@@std@@QEAAAEAV12@QEBD_K@Z 0000000180005110 f i VError.obj
 0001:00004190       ?_Xlength@?$vector@HV?$allocator@H@std@@@std@@CAXXZ 0000000180005190 f i VError.obj
 0001:00004190       ?_Xlength@?$vector@NV?$allocator@N@std@@@std@@CAXXZ 0000000180005190 f i VError.obj
 0001:00004190       ?_Xlength@?$vector@VVImage@vips@@V?$allocator@VVImage@vips@@@std@@@std@@CAXXZ 0000000180005190 f i VImage.obj
 0001:000041b0       ??$_Reallocate_grow_by@V<lambda_65e615be2a453ca0576c979606f46740>@@PEBD_K@?$basic_string@DU?$char_traits@D@std@@V?$allocator@D@2@@std@@QEAAAEAV01@_KV<lambda_65e615be2a453ca0576c979606f46740>@@PEBD_K@Z 00000001800051b0 f i VError.obj
 0001:00004330       ?_Xlen@?$basic_string@DU?$char_traits@D@std@@V?$allocator@D@2@@std@@SAXXZ 0000000180005330 f i VError.obj
 0001:00004350       ??$_Immortalize_impl@V_Iostream_error_category@std@@@std@@YAHPEAX0PEAPEAX@Z 0000000180005350 f i VError.obj
 0001:00004370       ??$_Insert_string@DU?$char_traits@D@std@@_K@std@@YAAEAV?$basic_ostream@DU?$char_traits@D@std@@@0@AEAV10@QEBD_K@Z 0000000180005370 f i VError.obj
 0001:00004590       ??$_Insert_range@V?$_List_const_iterator@V?$_List_val@U?$_List_simple_types@PEAUPair@VOption@vips@@@std@@@std@@@std@@@?$list@PEAUPair@VOption@vips@@V?$allocator@PEAUPair@VOption@vips@@@std@@@std@@QEAAXV?$_List_unchecked_const_iterator@V?$_List_val@U?$_List_simple_types@PEAUPair@VOption@vips@@@std@@@std@@U_Iterator_base0@2@@1@V?$_List_const_iterator@V?$_List_val@U?$_List_simple_types@PEAUPair@VOption@vips@@@std@@@std@@@1@1Uforward_iterator_tag@1@@Z 0000000180005590 f i VError.obj
 0001:00004640       ??1sentry@?$basic_ostream@DU?$char_traits@D@std@@@std@@QEAA@XZ 0000000180005640 f i VError.obj
 0001:000046c0       ??0sentry@?$basic_ostream@DU?$char_traits@D@std@@@std@@QEAA@AEAV12@@Z 00000001800056c0 f i VError.obj
 0001:00004800       ?_Buy@?$vector@HV?$allocator@H@std@@@std@@AEAA_N_K@Z 0000000180005800 f i VError.obj
 0001:000048b0       ?setstate@?$basic_ios@DU?$char_traits@D@std@@@std@@QEAAXH_N@Z 00000001800058b0 f i VError.obj
 0001:00004930       ??1_Sentry_base@?$basic_ostream@DU?$char_traits@D@std@@@std@@QEAA@XZ 0000000180005930 f i VError.obj
 0001:00004960       ?new_from_descriptor@VSource@vips@@SA?AV12@H@Z 0000000180005960 f   VConnection.obj
 0001:00004a10       ?new_from_file@VSource@vips@@SA?AV12@PEBD@Z 0000000180005a10 f   VConnection.obj
 0001:00004ac0       ?new_from_blob@VSource@vips@@SA?AV12@PEAU_VipsBlob@@@Z 0000000180005ac0 f   VConnection.obj
 0001:00004b70       ?new_from_memory@VSource@vips@@SA?AV12@PEBX_K@Z 0000000180005b70 f   VConnection.obj
 0001:00004c20       ?new_from_options@VSource@vips@@SA?AV12@PEBD@Z 0000000180005c20 f   VConnection.obj
 0001:00004cd0       ?set@VOption@vips@@QEAAPEAV12@PEBDVVSource@2@@Z 0000000180005cd0 f   VConnection.obj
 0001:00004e40       ?new_to_descriptor@VTarget@vips@@SA?AV12@H@Z 0000000180005e40 f   VConnection.obj
 0001:00004ef0       ?new_to_file@VTarget@vips@@SA?AV12@PEBD@Z 0000000180005ef0 f   VConnection.obj
 0001:00004fa0       ?new_to_memory@VTarget@vips@@SA?AV12@XZ 0000000180005fa0 f   VConnection.obj
 0001:00005050       ?set@VOption@vips@@QEAAPEAV12@PEBDVVTarget@2@@Z 0000000180006050 f   VConnection.obj
 0001:000051c0       ?new_from_name@VInterpolate@vips@@SA?AV12@PEBDPEAVVOption@2@@Z 00000001800061c0 f   VInterpolate.obj
 0001:00005290       ?set@VOption@vips@@QEAAPEAV12@PEBDVVInterpolate@2@@Z 0000000180006290 f   VInterpolate.obj
 0001:00005400       ?to_vectorv@vips@@YA?AV?$vector@NV?$allocator@N@std@@@std@@HZZ 0000000180006400 f   VImage.obj
 0001:000054b0       ?to_vector@vips@@YA?AV?$vector@NV?$allocator@N@std@@@std@@N@Z 00000001800064b0 f   VImage.obj
 0001:000054e0       ?to_vector@vips@@YA?AV?$vector@NV?$allocator@N@std@@@std@@HQEAN@Z 00000001800064e0 f   VImage.obj
 0001:000055e0       ?negate@vips@@YA?AV?$vector@NV?$allocator@N@std@@@std@@V23@@Z 00000001800065e0 f   VImage.obj
 0001:00005700       ?invert@vips@@YA?AV?$vector@NV?$allocator@N@std@@@std@@V23@@Z 0000000180006700 f   VImage.obj
 0001:00005820       ??1VOption@vips@@UEAA@XZ   0000000180006820 f   VImage.obj
 0001:000058e0       ?set@VOption@vips@@QEAAPEAV12@PEBD_N@Z 00000001800068e0 f   VImage.obj
 0001:000059c0       ?set@VOption@vips@@QEAAPEAV12@PEBDH@Z 00000001800069c0 f   VImage.obj
 0001:00005aa0       ?set@VOption@vips@@QEAAPEAV12@PEBDN@Z 0000000180006aa0 f   VImage.obj
 0001:00005b80       ?set@VOption@vips@@QEAAPEAV12@PEBD0@Z 0000000180006b80 f   VImage.obj
 0001:00005c60       ?set@VOption@vips@@QEAAPEAV12@PEBDVVImage@2@@Z 0000000180006c60 f   VImage.obj
 0001:00005dd0       ?set@VOption@vips@@QEAAPEAV12@PEBDV?$vector@NV?$allocator@N@std@@@std@@@Z 0000000180006dd0 f   VImage.obj
 0001:00005f50       ?set@VOption@vips@@QEAAPEAV12@PEBDV?$vector@HV?$allocator@H@std@@@std@@@Z 0000000180006f50 f   VImage.obj
 0001:000060d0       ?set@VOption@vips@@QEAAPEAV12@PEBDV?$vector@VVImage@vips@@V?$allocator@VVImage@vips@@@std@@@std@@@Z 00000001800070d0 f   VImage.obj
 0001:000062c0       ?set@VOption@vips@@QEAAPEAV12@PEBDPEAU_VipsBlob@@@Z 00000001800072c0 f   VImage.obj
 0001:000063a0       ?set@VOption@vips@@QEAAPEAV12@PEBDPEA_N@Z 00000001800073a0 f   VImage.obj
 0001:00006470       ?set@VOption@vips@@QEAAPEAV12@PEBDPEAH@Z 0000000180007470 f   VImage.obj
 0001:00006540       ?set@VOption@vips@@QEAAPEAV12@PEBDPEAN@Z 0000000180007540 f   VImage.obj
 0001:00006610       ?set@VOption@vips@@QEAAPEAV12@PEBDPEAVVImage@2@@Z 0000000180007610 f   VImage.obj
 0001:000066e0       ?set@VOption@vips@@QEAAPEAV12@PEBDPEAV?$vector@NV?$allocator@N@std@@@std@@@Z 00000001800076e0 f   VImage.obj
 0001:000067b0       ?set@VOption@vips@@QEAAPEAV12@PEBDPEAPEAU_VipsBlob@@@Z 00000001800077b0 f   VImage.obj
 0001:00006880       ?set_operation@VOption@vips@@QEAAXPEAU_VipsOperation@@@Z 0000000180007880 f   VImage.obj
 0001:00006a80       ?get_operation@VOption@vips@@QEAAXPEAU_VipsOperation@@@Z 0000000180007a80 f   VImage.obj
 0001:00006cd0       ?call_option_string@VImage@vips@@SAXPEBD0PEAVVOption@2@@Z 0000000180007cd0 f   VImage.obj
 0001:00006e70       ?call@VImage@vips@@SAXPEBDPEAVVOption@2@@Z 0000000180007e70 f   VImage.obj
 0001:00006e80       ?new_from_file@VImage@vips@@SA?AV12@PEBDPEAVVOption@2@@Z 0000000180007e80 f   VImage.obj
 0001:00006f90       ?new_from_buffer@VImage@vips@@SA?AV12@PEBX_KPEBDPEAVVOption@2@@Z 0000000180007f90 f   VImage.obj
 0001:000070a0       ?new_from_buffer@VImage@vips@@SA?AV12@AEBV?$basic_string@DU?$char_traits@D@std@@V?$allocator@D@2@@std@@PEBDPEAVVOption@2@@Z 00000001800080a0 f   VImage.obj
 0001:000070d0       ?new_from_source@VImage@vips@@SA?AV12@VVSource@2@PEBDPEAVVOption@2@@Z 00000001800080d0 f   VImage.obj
 0001:000072a0       ?new_matrix@VImage@vips@@SA?AV12@HH@Z 00000001800082a0 f   VImage.obj
 0001:00007310       ?new_matrixv@VImage@vips@@SA?AV12@HHZZ 0000000180008310 f   VImage.obj
 0001:00007480       ?write@VImage@vips@@QEBA?AV12@V12@@Z 0000000180008480 f   VImage.obj
 0001:00007620       ?write_to_file@VImage@vips@@QEBAXPEBDPEAVVOption@2@@Z 0000000180008620 f   VImage.obj
 0001:00007760       ?write_to_buffer@VImage@vips@@QEBAXPEBDPEAPEAXPEA_KPEAVVOption@2@@Z 0000000180008760 f   VImage.obj
 0001:000078e0       ?write_to_target@VImage@vips@@QEBAXPEBDVVTarget@2@PEAVVOption@2@@Z 00000001800088e0 f   VImage.obj
 0001:00007ad0       ?CMC2LCh@VImage@vips@@QEBA?AV12@PEAVVOption@2@@Z 0000000180008ad0 f   VImage.obj
 0001:00007bb0       ?CMYK2XYZ@VImage@vips@@QEBA?AV12@PEAVVOption@2@@Z 0000000180008bb0 f   VImage.obj
 0001:00007c90       ?HSV2sRGB@VImage@vips@@QEBA?AV12@PEAVVOption@2@@Z 0000000180008c90 f   VImage.obj
 0001:00007d70       ?LCh2CMC@VImage@vips@@QEBA?AV12@PEAVVOption@2@@Z 0000000180008d70 f   VImage.obj
 0001:00007e50       ?LCh2Lab@VImage@vips@@QEBA?AV12@PEAVVOption@2@@Z 0000000180008e50 f   VImage.obj
 0001:00007f30       ?Lab2LCh@VImage@vips@@QEBA?AV12@PEAVVOption@2@@Z 0000000180008f30 f   VImage.obj
 0001:00008010       ?Lab2LabQ@VImage@vips@@QEBA?AV12@PEAVVOption@2@@Z 0000000180009010 f   VImage.obj
 0001:000080f0       ?Lab2LabS@VImage@vips@@QEBA?AV12@PEAVVOption@2@@Z 00000001800090f0 f   VImage.obj
 0001:000081d0       ?Lab2XYZ@VImage@vips@@QEBA?AV12@PEAVVOption@2@@Z 00000001800091d0 f   VImage.obj
 0001:000082b0       ?LabQ2Lab@VImage@vips@@QEBA?AV12@PEAVVOption@2@@Z 00000001800092b0 f   VImage.obj
 0001:00008390       ?LabQ2LabS@VImage@vips@@QEBA?AV12@PEAVVOption@2@@Z 0000000180009390 f   VImage.obj
 0001:00008470       ?LabQ2sRGB@VImage@vips@@QEBA?AV12@PEAVVOption@2@@Z 0000000180009470 f   VImage.obj
 0001:00008550       ?LabS2Lab@VImage@vips@@QEBA?AV12@PEAVVOption@2@@Z 0000000180009550 f   VImage.obj
 0001:00008630       ?LabS2LabQ@VImage@vips@@QEBA?AV12@PEAVVOption@2@@Z 0000000180009630 f   VImage.obj
 0001:00008710       ?XYZ2CMYK@VImage@vips@@QEBA?AV12@PEAVVOption@2@@Z 0000000180009710 f   VImage.obj
 0001:000087f0       ?XYZ2Lab@VImage@vips@@QEBA?AV12@PEAVVOption@2@@Z 00000001800097f0 f   VImage.obj
 0001:000088d0       ?XYZ2Yxy@VImage@vips@@QEBA?AV12@PEAVVOption@2@@Z 00000001800098d0 f   VImage.obj
 0001:000089b0       ?XYZ2scRGB@VImage@vips@@QEBA?AV12@PEAVVOption@2@@Z 00000001800099b0 f   VImage.obj
 0001:00008a90       ?Yxy2XYZ@VImage@vips@@QEBA?AV12@PEAVVOption@2@@Z 0000000180009a90 f   VImage.obj
 0001:00008b70       ?abs@VImage@vips@@QEBA?AV12@PEAVVOption@2@@Z 0000000180009b70 f   VImage.obj
 0001:00008c50       ?add@VImage@vips@@QEBA?AV12@V12@PEAVVOption@2@@Z 0000000180009c50 f   VImage.obj
 0001:00008df0       ?affine@VImage@vips@@QEBA?AV12@V?$vector@NV?$allocator@N@std@@@std@@PEAVVOption@2@@Z 0000000180009df0 f   VImage.obj
 0001:00008f90       ?analyzeload@VImage@vips@@SA?AV12@PEBDPEAVVOption@2@@Z 0000000180009f90 f   VImage.obj
 0001:00009010       ?arrayjoin@VImage@vips@@SA?AV12@V?$vector@VVImage@vips@@V?$allocator@VVImage@vips@@@std@@@std@@PEAVVOption@2@@Z 000000018000a010 f   VImage.obj
 0001:00009140       ?autorot@VImage@vips@@QEBA?AV12@PEAVVOption@2@@Z 000000018000a140 f   VImage.obj
 0001:00009220       ?avg@VImage@vips@@QEBANPEAVVOption@2@@Z 000000018000a220 f   VImage.obj
 0001:00009370       ?bandbool@VImage@vips@@QEBA?AV12@W4VipsOperationBoolean@@PEAVVOption@2@@Z 000000018000a370 f   VImage.obj
 0001:00009460       ?bandfold@VImage@vips@@QEBA?AV12@PEAVVOption@2@@Z 000000018000a460 f   VImage.obj
 0001:00009540       ?bandjoin@VImage@vips@@SA?AV12@V?$vector@VVImage@vips@@V?$allocator@VVImage@vips@@@std@@@std@@PEAVVOption@2@@Z 000000018000a540 f   VImage.obj
 0001:00009670       ?bandjoin_const@VImage@vips@@QEBA?AV12@V?$vector@NV?$allocator@N@std@@@std@@PEAVVOption@2@@Z 000000018000a670 f   VImage.obj
 0001:00009810       ?bandmean@VImage@vips@@QEBA?AV12@PEAVVOption@2@@Z 000000018000a810 f   VImage.obj
 0001:000098f0       ?bandrank@VImage@vips@@SA?AV12@V?$vector@VVImage@vips@@V?$allocator@VVImage@vips@@@std@@@std@@PEAVVOption@2@@Z 000000018000a8f0 f   VImage.obj
 0001:00009a20       ?bandunfold@VImage@vips@@QEBA?AV12@PEAVVOption@2@@Z 000000018000aa20 f   VImage.obj
 0001:00009b00       ?black@VImage@vips@@SA?AV12@HHPEAVVOption@2@@Z 000000018000ab00 f   VImage.obj
 0001:00009ba0       ?boolean@VImage@vips@@QEBA?AV12@V12@W4VipsOperationBoolean@@PEAVVOption@2@@Z 000000018000aba0 f   VImage.obj
 0001:00009d60       ?boolean_const@VImage@vips@@QEBA?AV12@W4VipsOperationBoolean@@V?$vector@NV?$allocator@N@std@@@std@@PEAVVOption@2@@Z 000000018000ad60 f   VImage.obj
 0001:00009f30       ?buildlut@VImage@vips@@QEBA?AV12@PEAVVOption@2@@Z 000000018000af30 f   VImage.obj
 0001:0000a010       ?byteswap@VImage@vips@@QEBA?AV12@PEAVVOption@2@@Z 000000018000b010 f   VImage.obj
 0001:0000a0f0       ?cache@VImage@vips@@QEBA?AV12@PEAVVOption@2@@Z 000000018000b0f0 f   VImage.obj
 0001:0000a1d0       ?canny@VImage@vips@@QEBA?AV12@PEAVVOption@2@@Z 000000018000b1d0 f   VImage.obj
 0001:0000a2b0       ?case_image@VImage@vips@@QEBA?AV12@V?$vector@VVImage@vips@@V?$allocator@VVImage@vips@@@std@@@std@@PEAVVOption@2@@Z 000000018000b2b0 f   VImage.obj
 0001:0000a450       ?cast@VImage@vips@@QEBA?AV12@W4VipsBandFormat@@PEAVVOption@2@@Z 000000018000b450 f   VImage.obj
 0001:0000a540       ?colourspace@VImage@vips@@QEBA?AV12@W4VipsInterpretation@@PEAVVOption@2@@Z 000000018000b540 f   VImage.obj
 0001:0000a630       ?compass@VImage@vips@@QEBA?AV12@V12@PEAVVOption@2@@Z 000000018000b630 f   VImage.obj
 0001:0000a7d0       ?complex@VImage@vips@@QEBA?AV12@W4VipsOperationComplex@@PEAVVOption@2@@Z 000000018000b7d0 f   VImage.obj
 0001:0000a8c0       ?complex2@VImage@vips@@QEBA?AV12@V12@W4VipsOperationComplex2@@PEAVVOption@2@@Z 000000018000b8c0 f   VImage.obj
 0001:0000aa80       ?complexform@VImage@vips@@QEBA?AV12@V12@PEAVVOption@2@@Z 000000018000ba80 f   VImage.obj
 0001:0000ac20       ?complexget@VImage@vips@@QEBA?AV12@W4VipsOperationComplexget@@PEAVVOption@2@@Z 000000018000bc20 f   VImage.obj
 0001:0000ad10       ?composite@VImage@vips@@SA?AV12@V?$vector@VVImage@vips@@V?$allocator@VVImage@vips@@@std@@@std@@V?$vector@HV?$allocator@H@std@@@4@PEAVVOption@2@@Z 000000018000bd10 f   VImage.obj
 0001:0000af00       ?composite2@VImage@vips@@QEBA?AV12@V12@W4VipsBlendMode@@PEAVVOption@2@@Z 000000018000bf00 f   VImage.obj
 0001:0000b0c0       ?conv@VImage@vips@@QEBA?AV12@V12@PEAVVOption@2@@Z 000000018000c0c0 f   VImage.obj
 0001:0000b260       ?conva@VImage@vips@@QEBA?AV12@V12@PEAVVOption@2@@Z 000000018000c260 f   VImage.obj
 0001:0000b400       ?convasep@VImage@vips@@QEBA?AV12@V12@PEAVVOption@2@@Z 000000018000c400 f   VImage.obj
 0001:0000b5a0       ?convf@VImage@vips@@QEBA?AV12@V12@PEAVVOption@2@@Z 000000018000c5a0 f   VImage.obj
 0001:0000b740       ?convi@VImage@vips@@QEBA?AV12@V12@PEAVVOption@2@@Z 000000018000c740 f   VImage.obj
 0001:0000b8e0       ?convsep@VImage@vips@@QEBA?AV12@V12@PEAVVOption@2@@Z 000000018000c8e0 f   VImage.obj
 0001:0000ba80       ?copy@VImage@vips@@QEBA?AV12@PEAVVOption@2@@Z 000000018000ca80 f   VImage.obj
 0001:0000bb60       ?countlines@VImage@vips@@QEBANW4VipsDirection@@PEAVVOption@2@@Z 000000018000cb60 f   VImage.obj
 0001:0000bcc0       ?crop@VImage@vips@@QEBA?AV12@HHHHPEAVVOption@2@@Z 000000018000ccc0 f   VImage.obj
 0001:0000be00       ?csvload@VImage@vips@@SA?AV12@PEBDPEAVVOption@2@@Z 000000018000ce00 f   VImage.obj
 0001:0000be80       ?csvsave@VImage@vips@@QEBAXPEBDPEAVVOption@2@@Z 000000018000ce80 f   VImage.obj
 0001:0000bf40       ?dE00@VImage@vips@@QEBA?AV12@V12@PEAVVOption@2@@Z 000000018000cf40 f   VImage.obj
 0001:0000c0e0       ?dE76@VImage@vips@@QEBA?AV12@V12@PEAVVOption@2@@Z 000000018000d0e0 f   VImage.obj
 0001:0000c280       ?dECMC@VImage@vips@@QEBA?AV12@V12@PEAVVOption@2@@Z 000000018000d280 f   VImage.obj
 0001:0000c420       ?deviate@VImage@vips@@QEBANPEAVVOption@2@@Z 000000018000d420 f   VImage.obj
 0001:0000c570       ?divide@VImage@vips@@QEBA?AV12@V12@PEAVVOption@2@@Z 000000018000d570 f   VImage.obj
 0001:0000c710       ?draw_circle@VImage@vips@@QEBAXV?$vector@NV?$allocator@N@std@@@std@@HHHPEAVVOption@2@@Z 000000018000d710 f   VImage.obj
 0001:0000c8e0       ?draw_flood@VImage@vips@@QEBAXV?$vector@NV?$allocator@N@std@@@std@@HHPEAVVOption@2@@Z 000000018000d8e0 f   VImage.obj
 0001:0000ca90       ?draw_image@VImage@vips@@QEBAXV12@HHPEAVVOption@2@@Z 000000018000da90 f   VImage.obj
 0001:0000cc40       ?draw_line@VImage@vips@@QEBAXV?$vector@NV?$allocator@N@std@@@std@@HHHHPEAVVOption@2@@Z 000000018000dc40 f   VImage.obj
 0001:0000ce20       ?draw_mask@VImage@vips@@QEBAXV?$vector@NV?$allocator@N@std@@@std@@V12@HHPEAVVOption@2@@Z 000000018000de20 f   VImage.obj
 0001:0000d0a0       ?draw_rect@VImage@vips@@QEBAXV?$vector@NV?$allocator@N@std@@@std@@HHHHPEAVVOption@2@@Z 000000018000e0a0 f   VImage.obj
 0001:0000d280       ?draw_smudge@VImage@vips@@QEBAXHHHHPEAVVOption@2@@Z 000000018000e280 f   VImage.obj
 0001:0000d380       ?dzsave@VImage@vips@@QEBAXPEBDPEAVVOption@2@@Z 000000018000e380 f   VImage.obj
 0001:0000d440       ?dzsave_buffer@VImage@vips@@QEBAPEAU_VipsBlob@@PEAVVOption@2@@Z 000000018000e440 f   VImage.obj
 0001:0000d590       ?embed@VImage@vips@@QEBA?AV12@HHHHPEAVVOption@2@@Z 000000018000e590 f   VImage.obj
 0001:0000d6d0       ?extract_area@VImage@vips@@QEBA?AV12@HHHHPEAVVOption@2@@Z 000000018000e6d0 f   VImage.obj
 0001:0000d810       ?extract_band@VImage@vips@@QEBA?AV12@HPEAVVOption@2@@Z 000000018000e810 f   VImage.obj
 0001:0000d900       ?eye@VImage@vips@@SA?AV12@HHPEAVVOption@2@@Z 000000018000e900 f   VImage.obj
 0001:0000d9a0       ?falsecolour@VImage@vips@@QEBA?AV12@PEAVVOption@2@@Z 000000018000e9a0 f   VImage.obj
 0001:0000da80       ?fastcor@VImage@vips@@QEBA?AV12@V12@PEAVVOption@2@@Z 000000018000ea80 f   VImage.obj
 0001:0000dc20       ?fill_nearest@VImage@vips@@QEBA?AV12@PEAVVOption@2@@Z 000000018000ec20 f   VImage.obj
 0001:0000dd00       ?find_trim@VImage@vips@@QEBAHPEAH00PEAVVOption@2@@Z 000000018000ed00 f   VImage.obj
 0001:0000deb0       ?fitsload@VImage@vips@@SA?AV12@PEBDPEAVVOption@2@@Z 000000018000eeb0 f   VImage.obj
 0001:0000df30       ?fitssave@VImage@vips@@QEBAXPEBDPEAVVOption@2@@Z 000000018000ef30 f   VImage.obj
 0001:0000dff0       ?flatten@VImage@vips@@QEBA?AV12@PEAVVOption@2@@Z 000000018000eff0 f   VImage.obj
 0001:0000e0d0       ?flip@VImage@vips@@QEBA?AV12@W4VipsDirection@@PEAVVOption@2@@Z 000000018000f0d0 f   VImage.obj
 0001:0000e1c0       ?float2rad@VImage@vips@@QEBA?AV12@PEAVVOption@2@@Z 000000018000f1c0 f   VImage.obj
 0001:0000e2a0       ?fractsurf@VImage@vips@@SA?AV12@HHNPEAVVOption@2@@Z 000000018000f2a0 f   VImage.obj
 0001:0000e360       ?freqmult@VImage@vips@@QEBA?AV12@V12@PEAVVOption@2@@Z 000000018000f360 f   VImage.obj
 0001:0000e500       ?fwfft@VImage@vips@@QEBA?AV12@PEAVVOption@2@@Z 000000018000f500 f   VImage.obj
 0001:0000e5e0       ?gamma@VImage@vips@@QEBA?AV12@PEAVVOption@2@@Z 000000018000f5e0 f   VImage.obj
 0001:0000e6c0       ?gaussblur@VImage@vips@@QEBA?AV12@NPEAVVOption@2@@Z 000000018000f6c0 f   VImage.obj
 0001:0000e7c0       ?gaussmat@VImage@vips@@SA?AV12@NNPEAVVOption@2@@Z 000000018000f7c0 f   VImage.obj
 0001:0000e860       ?gaussnoise@VImage@vips@@SA?AV12@HHPEAVVOption@2@@Z 000000018000f860 f   VImage.obj
 0001:0000e900       ?getpoint@VImage@vips@@QEBA?AV?$vector@NV?$allocator@N@std@@@std@@HHPEAVVOption@2@@Z 000000018000f900 f   VImage.obj
 0001:0000ea20       ?gifload@VImage@vips@@SA?AV12@PEBDPEAVVOption@2@@Z 000000018000fa20 f   VImage.obj
 0001:0000eaa0       ?gifload_buffer@VImage@vips@@SA?AV12@PEAU_VipsBlob@@PEAVVOption@2@@Z 000000018000faa0 f   VImage.obj
 0001:0000eb20       ?globalbalance@VImage@vips@@QEBA?AV12@PEAVVOption@2@@Z 000000018000fb20 f   VImage.obj
 0001:0000ec00       ?gravity@VImage@vips@@QEBA?AV12@W4VipsCompassDirection@@HHPEAVVOption@2@@Z 000000018000fc00 f   VImage.obj
 0001:0000ed30       ?grey@VImage@vips@@SA?AV12@HHPEAVVOption@2@@Z 000000018000fd30 f   VImage.obj
 0001:0000edd0       ?grid@VImage@vips@@QEBA?AV12@HHHPEAVVOption@2@@Z 000000018000fdd0 f   VImage.obj
 0001:0000ef00       ?heifload@VImage@vips@@SA?AV12@PEBDPEAVVOption@2@@Z 000000018000ff00 f   VImage.obj
 0001:0000ef80       ?heifload_buffer@VImage@vips@@SA?AV12@PEAU_VipsBlob@@PEAVVOption@2@@Z 000000018000ff80 f   VImage.obj
 0001:0000f000       ?heifsave@VImage@vips@@QEBAXPEBDPEAVVOption@2@@Z 0000000180010000 f   VImage.obj
 0001:0000f0c0       ?heifsave_buffer@VImage@vips@@QEBAPEAU_VipsBlob@@PEAVVOption@2@@Z 00000001800100c0 f   VImage.obj
 0001:0000f210       ?hist_cum@VImage@vips@@QEBA?AV12@PEAVVOption@2@@Z 0000000180010210 f   VImage.obj
 0001:0000f2f0       ?hist_entropy@VImage@vips@@QEBANPEAVVOption@2@@Z 00000001800102f0 f   VImage.obj
 0001:0000f440       ?hist_equal@VImage@vips@@QEBA?AV12@PEAVVOption@2@@Z 0000000180010440 f   VImage.obj
 0001:0000f520       ?hist_find@VImage@vips@@QEBA?AV12@PEAVVOption@2@@Z 0000000180010520 f   VImage.obj
 0001:0000f600       ?hist_find_indexed@VImage@vips@@QEBA?AV12@V12@PEAVVOption@2@@Z 0000000180010600 f   VImage.obj
 0001:0000f7a0       ?hist_find_ndim@VImage@vips@@QEBA?AV12@PEAVVOption@2@@Z 00000001800107a0 f   VImage.obj
 0001:0000f880       ?hist_ismonotonic@VImage@vips@@QEBA_NPEAVVOption@2@@Z 0000000180010880 f   VImage.obj
 0001:0000f9d0       ?hist_local@VImage@vips@@QEBA?AV12@HHPEAVVOption@2@@Z 00000001800109d0 f   VImage.obj
 0001:0000faf0       ?hist_match@VImage@vips@@QEBA?AV12@V12@PEAVVOption@2@@Z 0000000180010af0 f   VImage.obj
 0001:0000fc90       ?hist_norm@VImage@vips@@QEBA?AV12@PEAVVOption@2@@Z 0000000180010c90 f   VImage.obj
 0001:0000fd70       ?hist_plot@VImage@vips@@QEBA?AV12@PEAVVOption@2@@Z 0000000180010d70 f   VImage.obj
 0001:0000fe50       ?hough_circle@VImage@vips@@QEBA?AV12@PEAVVOption@2@@Z 0000000180010e50 f   VImage.obj
 0001:0000ff30       ?hough_line@VImage@vips@@QEBA?AV12@PEAVVOption@2@@Z 0000000180010f30 f   VImage.obj
 0001:00010010       ?icc_export@VImage@vips@@QEBA?AV12@PEAVVOption@2@@Z 0000000180011010 f   VImage.obj
 0001:000100f0       ?icc_import@VImage@vips@@QEBA?AV12@PEAVVOption@2@@Z 00000001800110f0 f   VImage.obj
 0001:000101d0       ?icc_transform@VImage@vips@@QEBA?AV12@PEBDPEAVVOption@2@@Z 00000001800111d0 f   VImage.obj
 0001:000102c0       ?identity@VImage@vips@@SA?AV12@PEAVVOption@2@@Z 00000001800112c0 f   VImage.obj
 0001:00010330       ?ifthenelse@VImage@vips@@QEBA?AV12@V12@0PEAVVOption@2@@Z 0000000180011330 f   VImage.obj
 0001:00010580       ?insert@VImage@vips@@QEBA?AV12@V12@HHPEAVVOption@2@@Z 0000000180011580 f   VImage.obj
 0001:00010750       ?invert@VImage@vips@@QEBA?AV12@PEAVVOption@2@@Z 0000000180011750 f   VImage.obj
 0001:00010830       ?invertlut@VImage@vips@@QEBA?AV12@PEAVVOption@2@@Z 0000000180011830 f   VImage.obj
 0001:00010910       ?invfft@VImage@vips@@QEBA?AV12@PEAVVOption@2@@Z 0000000180011910 f   VImage.obj
 0001:000109f0       ?join@VImage@vips@@QEBA?AV12@V12@W4VipsDirection@@PEAVVOption@2@@Z 00000001800119f0 f   VImage.obj
 0001:00010bb0       ?jpegload@VImage@vips@@SA?AV12@PEBDPEAVVOption@2@@Z 0000000180011bb0 f   VImage.obj
 0001:00010c30       ?jpegload_buffer@VImage@vips@@SA?AV12@PEAU_VipsBlob@@PEAVVOption@2@@Z 0000000180011c30 f   VImage.obj
 0001:00010cb0       ?jpegload_source@VImage@vips@@SA?AV12@VVSource@2@PEAVVOption@2@@Z 0000000180011cb0 f   VImage.obj
 0001:00010de0       ?jpegsave@VImage@vips@@QEBAXPEBDPEAVVOption@2@@Z 0000000180011de0 f   VImage.obj
 0001:00010ea0       ?jpegsave_buffer@VImage@vips@@QEBAPEAU_VipsBlob@@PEAVVOption@2@@Z 0000000180011ea0 f   VImage.obj
 0001:00010ff0       ?jpegsave_mime@VImage@vips@@QEBAXPEAVVOption@2@@Z 0000000180011ff0 f   VImage.obj
 0001:00011090       ?jpegsave_target@VImage@vips@@QEBAXVVTarget@2@PEAVVOption@2@@Z 0000000180012090 f   VImage.obj
 0001:000111f0       ?labelregions@VImage@vips@@QEBA?AV12@PEAVVOption@2@@Z 00000001800121f0 f   VImage.obj
 0001:000112d0       ?linear@VImage@vips@@QEBA?AV12@V?$vector@NV?$allocator@N@std@@@std@@0PEAVVOption@2@@Z 00000001800122d0 f   VImage.obj
 0001:00011530       ?linecache@VImage@vips@@QEBA?AV12@PEAVVOption@2@@Z 0000000180012530 f   VImage.obj
 0001:00011610       ?logmat@VImage@vips@@SA?AV12@NNPEAVVOption@2@@Z 0000000180012610 f   VImage.obj
 0001:000116b0       ?magickload@VImage@vips@@SA?AV12@PEBDPEAVVOption@2@@Z 00000001800126b0 f   VImage.obj
 0001:00011730       ?magickload_buffer@VImage@vips@@SA?AV12@PEAU_VipsBlob@@PEAVVOption@2@@Z 0000000180012730 f   VImage.obj
 0001:000117b0       ?magicksave@VImage@vips@@QEBAXPEBDPEAVVOption@2@@Z 00000001800127b0 f   VImage.obj
 0001:00011870       ?magicksave_buffer@VImage@vips@@QEBAPEAU_VipsBlob@@PEAVVOption@2@@Z 0000000180012870 f   VImage.obj
 0001:000119c0       ?mapim@VImage@vips@@QEBA?AV12@V12@PEAVVOption@2@@Z 00000001800129c0 f   VImage.obj
 0001:00011b60       ?maplut@VImage@vips@@QEBA?AV12@V12@PEAVVOption@2@@Z 0000000180012b60 f   VImage.obj
 0001:00011d00       ?mask_butterworth@VImage@vips@@SA?AV12@HHNNNPEAVVOption@2@@Z 0000000180012d00 f   VImage.obj
 0001:00011df0       ?mask_butterworth_band@VImage@vips@@SA?AV12@HHNNNNNPEAVVOption@2@@Z 0000000180012df0 f   VImage.obj
 0001:00011f10       ?mask_butterworth_ring@VImage@vips@@SA?AV12@HHNNNNPEAVVOption@2@@Z 0000000180012f10 f   VImage.obj
 0001:00012020       ?mask_fractal@VImage@vips@@SA?AV12@HHNPEAVVOption@2@@Z 0000000180013020 f   VImage.obj
 0001:000120e0       ?mask_gaussian@VImage@vips@@SA?AV12@HHNNPEAVVOption@2@@Z 00000001800130e0 f   VImage.obj
 0001:000121c0       ?mask_gaussian_band@VImage@vips@@SA?AV12@HHNNNNPEAVVOption@2@@Z 00000001800131c0 f   VImage.obj
 0001:000122d0       ?mask_gaussian_ring@VImage@vips@@SA?AV12@HHNNNPEAVVOption@2@@Z 00000001800132d0 f   VImage.obj
 0001:000123c0       ?mask_ideal@VImage@vips@@SA?AV12@HHNPEAVVOption@2@@Z 00000001800133c0 f   VImage.obj
 0001:00012480       ?mask_ideal_band@VImage@vips@@SA?AV12@HHNNNPEAVVOption@2@@Z 0000000180013480 f   VImage.obj
 0001:00012570       ?mask_ideal_ring@VImage@vips@@SA?AV12@HHNNPEAVVOption@2@@Z 0000000180013570 f   VImage.obj
 0001:00012650       ?match@VImage@vips@@QEBA?AV12@V12@HHHHHHHHPEAVVOption@2@@Z 0000000180013650 f   VImage.obj
 0001:000128b0       ?math@VImage@vips@@QEBA?AV12@W4VipsOperationMath@@PEAVVOption@2@@Z 00000001800138b0 f   VImage.obj
 0001:000129a0       ?math2@VImage@vips@@QEBA?AV12@V12@W4VipsOperationMath2@@PEAVVOption@2@@Z 00000001800139a0 f   VImage.obj
 0001:00012b60       ?math2_const@VImage@vips@@QEBA?AV12@W4VipsOperationMath2@@V?$vector@NV?$allocator@N@std@@@std@@PEAVVOption@2@@Z 0000000180013b60 f   VImage.obj
 0001:00012d30       ?matload@VImage@vips@@SA?AV12@PEBDPEAVVOption@2@@Z 0000000180013d30 f   VImage.obj
 0001:00012db0       ?matrixload@VImage@vips@@SA?AV12@PEBDPEAVVOption@2@@Z 0000000180013db0 f   VImage.obj
 0001:00012e30       ?matrixprint@VImage@vips@@QEBAXPEAVVOption@2@@Z 0000000180013e30 f   VImage.obj
 0001:00012ed0       ?matrixsave@VImage@vips@@QEBAXPEBDPEAVVOption@2@@Z 0000000180013ed0 f   VImage.obj
 0001:00012f90       ?max@VImage@vips@@QEBANPEAVVOption@2@@Z 0000000180013f90 f   VImage.obj
 0001:000130e0       ?measure@VImage@vips@@QEBA?AV12@HHPEAVVOption@2@@Z 00000001800140e0 f   VImage.obj
 0001:00013200       ?merge@VImage@vips@@QEBA?AV12@V12@W4VipsDirection@@HHPEAVVOption@2@@Z 0000000180014200 f   VImage.obj
 0001:000133f0       ?min@VImage@vips@@QEBANPEAVVOption@2@@Z 00000001800143f0 f   VImage.obj
 0001:00013540       ?morph@VImage@vips@@QEBA?AV12@V12@W4VipsOperationMorphology@@PEAVVOption@2@@Z 0000000180014540 f   VImage.obj
 0001:00013700       ?mosaic@VImage@vips@@QEBA?AV12@V12@W4VipsDirection@@HHHHPEAVVOption@2@@Z 0000000180014700 f   VImage.obj
 0001:00013920       ?mosaic1@VImage@vips@@QEBA?AV12@V12@W4VipsDirection@@HHHHHHHHPEAVVOption@2@@Z 0000000180014920 f   VImage.obj
 0001:00013ba0       ?msb@VImage@vips@@QEBA?AV12@PEAVVOption@2@@Z 0000000180014ba0 f   VImage.obj
 0001:00013c80       ?multiply@VImage@vips@@QEBA?AV12@V12@PEAVVOption@2@@Z 0000000180014c80 f   VImage.obj
 0001:00013e20       ?niftiload@VImage@vips@@SA?AV12@PEBDPEAVVOption@2@@Z 0000000180014e20 f   VImage.obj
 0001:00013ea0       ?niftisave@VImage@vips@@QEBAXPEBDPEAVVOption@2@@Z 0000000180014ea0 f   VImage.obj
 0001:00013f60       ?openexrload@VImage@vips@@SA?AV12@PEBDPEAVVOption@2@@Z 0000000180014f60 f   VImage.obj
 0001:00013fe0       ?openslideload@VImage@vips@@SA?AV12@PEBDPEAVVOption@2@@Z 0000000180014fe0 f   VImage.obj
 0001:00014060       ?pdfload@VImage@vips@@SA?AV12@PEBDPEAVVOption@2@@Z 0000000180015060 f   VImage.obj
 0001:000140e0       ?pdfload_buffer@VImage@vips@@SA?AV12@PEAU_VipsBlob@@PEAVVOption@2@@Z 00000001800150e0 f   VImage.obj
 0001:00014160       ?percent@VImage@vips@@QEBAHNPEAVVOption@2@@Z 0000000180015160 f   VImage.obj
 0001:000142d0       ?perlin@VImage@vips@@SA?AV12@HHPEAVVOption@2@@Z 00000001800152d0 f   VImage.obj
 0001:00014370       ?phasecor@VImage@vips@@QEBA?AV12@V12@PEAVVOption@2@@Z 0000000180015370 f   VImage.obj
 0001:00014510       ?pngload@VImage@vips@@SA?AV12@PEBDPEAVVOption@2@@Z 0000000180015510 f   VImage.obj
 0001:00014590       ?pngload_buffer@VImage@vips@@SA?AV12@PEAU_VipsBlob@@PEAVVOption@2@@Z 0000000180015590 f   VImage.obj
 0001:00014610       ?pngload_source@VImage@vips@@SA?AV12@VVSource@2@PEAVVOption@2@@Z 0000000180015610 f   VImage.obj
 0001:00014740       ?pngsave@VImage@vips@@QEBAXPEBDPEAVVOption@2@@Z 0000000180015740 f   VImage.obj
 0001:00014800       ?pngsave_buffer@VImage@vips@@QEBAPEAU_VipsBlob@@PEAVVOption@2@@Z 0000000180015800 f   VImage.obj
 0001:00014950       ?pngsave_target@VImage@vips@@QEBAXVVTarget@2@PEAVVOption@2@@Z 0000000180015950 f   VImage.obj
 0001:00014ab0       ?ppmload@VImage@vips@@SA?AV12@PEBDPEAVVOption@2@@Z 0000000180015ab0 f   VImage.obj
 0001:00014b30       ?ppmsave@VImage@vips@@QEBAXPEBDPEAVVOption@2@@Z 0000000180015b30 f   VImage.obj
 0001:00014bf0       ?premultiply@VImage@vips@@QEBA?AV12@PEAVVOption@2@@Z 0000000180015bf0 f   VImage.obj
 0001:00014cd0       ?profile@VImage@vips@@QEBA?AV12@PEAV12@PEAVVOption@2@@Z 0000000180015cd0 f   VImage.obj
 0001:00014dc0       ?profile_load@VImage@vips@@SAPEAU_VipsBlob@@PEBDPEAVVOption@2@@Z 0000000180015dc0 f   VImage.obj
 0001:00014ed0       ?project@VImage@vips@@QEBA?AV12@PEAV12@PEAVVOption@2@@Z 0000000180015ed0 f   VImage.obj
 0001:00014fc0       ?quadratic@VImage@vips@@QEBA?AV12@V12@PEAVVOption@2@@Z 0000000180015fc0 f   VImage.obj
 0001:00015160       ?rad2float@VImage@vips@@QEBA?AV12@PEAVVOption@2@@Z 0000000180016160 f   VImage.obj
 0001:00015240       ?radload@VImage@vips@@SA?AV12@PEBDPEAVVOption@2@@Z 0000000180016240 f   VImage.obj
 0001:000152c0       ?radload_buffer@VImage@vips@@SA?AV12@PEAU_VipsBlob@@PEAVVOption@2@@Z 00000001800162c0 f   VImage.obj
 0001:00015340       ?radload_source@VImage@vips@@SA?AV12@VVSource@2@PEAVVOption@2@@Z 0000000180016340 f   VImage.obj
 0001:00015470       ?radsave@VImage@vips@@QEBAXPEBDPEAVVOption@2@@Z 0000000180016470 f   VImage.obj
 0001:00015530       ?radsave_buffer@VImage@vips@@QEBAPEAU_VipsBlob@@PEAVVOption@2@@Z 0000000180016530 f   VImage.obj
 0001:00015680       ?radsave_target@VImage@vips@@QEBAXVVTarget@2@PEAVVOption@2@@Z 0000000180016680 f   VImage.obj
 0001:000157e0       ?rank@VImage@vips@@QEBA?AV12@HHHPEAVVOption@2@@Z 00000001800167e0 f   VImage.obj
 0001:00015910       ?rawload@VImage@vips@@SA?AV12@PEBDHHHPEAVVOption@2@@Z 0000000180016910 f   VImage.obj
 0001:000159f0       ?rawsave@VImage@vips@@QEBAXPEBDPEAVVOption@2@@Z 00000001800169f0 f   VImage.obj
 0001:00015ab0       ?rawsave_fd@VImage@vips@@QEBAXHPEAVVOption@2@@Z 0000000180016ab0 f   VImage.obj
 0001:00015b70       ?recomb@VImage@vips@@QEBA?AV12@V12@PEAVVOption@2@@Z 0000000180016b70 f   VImage.obj
 0001:00015d10       ?reduce@VImage@vips@@QEBA?AV12@NNPEAVVOption@2@@Z 0000000180016d10 f   VImage.obj
 0001:00015e30       ?reduceh@VImage@vips@@QEBA?AV12@NPEAVVOption@2@@Z 0000000180016e30 f   VImage.obj
 0001:00015f30       ?reducev@VImage@vips@@QEBA?AV12@NPEAVVOption@2@@Z 0000000180016f30 f   VImage.obj
 0001:00016030       ?relational@VImage@vips@@QEBA?AV12@V12@W4VipsOperationRelational@@PEAVVOption@2@@Z 0000000180017030 f   VImage.obj
 0001:000161f0       ?relational_const@VImage@vips@@QEBA?AV12@W4VipsOperationRelational@@V?$vector@NV?$allocator@N@std@@@std@@PEAVVOption@2@@Z 00000001800171f0 f   VImage.obj
 0001:000163c0       ?remainder@VImage@vips@@QEBA?AV12@V12@PEAVVOption@2@@Z 00000001800173c0 f   VImage.obj
 0001:00016560       ?remainder_const@VImage@vips@@QEBA?AV12@V?$vector@NV?$allocator@N@std@@@std@@PEAVVOption@2@@Z 0000000180017560 f   VImage.obj
 0001:00016700       ?replicate@VImage@vips@@QEBA?AV12@HHPEAVVOption@2@@Z 0000000180017700 f   VImage.obj
 0001:00016820       ?resize@VImage@vips@@QEBA?AV12@NPEAVVOption@2@@Z 0000000180017820 f   VImage.obj
 0001:00016920       ?rot@VImage@vips@@QEBA?AV12@W4VipsAngle@@PEAVVOption@2@@Z 0000000180017920 f   VImage.obj
 0001:00016a10       ?rot45@VImage@vips@@QEBA?AV12@PEAVVOption@2@@Z 0000000180017a10 f   VImage.obj
 0001:00016af0       ?rotate@VImage@vips@@QEBA?AV12@NPEAVVOption@2@@Z 0000000180017af0 f   VImage.obj
 0001:00016bf0       ?round@VImage@vips@@QEBA?AV12@W4VipsOperationRound@@PEAVVOption@2@@Z 0000000180017bf0 f   VImage.obj
 0001:00016ce0       ?sRGB2HSV@VImage@vips@@QEBA?AV12@PEAVVOption@2@@Z 0000000180017ce0 f   VImage.obj
 0001:00016dc0       ?sRGB2scRGB@VImage@vips@@QEBA?AV12@PEAVVOption@2@@Z 0000000180017dc0 f   VImage.obj
 0001:00016ea0       ?scRGB2BW@VImage@vips@@QEBA?AV12@PEAVVOption@2@@Z 0000000180017ea0 f   VImage.obj
 0001:00016f80       ?scRGB2XYZ@VImage@vips@@QEBA?AV12@PEAVVOption@2@@Z 0000000180017f80 f   VImage.obj
 0001:00017060       ?scRGB2sRGB@VImage@vips@@QEBA?AV12@PEAVVOption@2@@Z 0000000180018060 f   VImage.obj
 0001:00017140       ?scale@VImage@vips@@QEBA?AV12@PEAVVOption@2@@Z 0000000180018140 f   VImage.obj
 0001:00017220       ?sequential@VImage@vips@@QEBA?AV12@PEAVVOption@2@@Z 0000000180018220 f   VImage.obj
 0001:00017300       ?sharpen@VImage@vips@@QEBA?AV12@PEAVVOption@2@@Z 0000000180018300 f   VImage.obj
 0001:000173e0       ?shrink@VImage@vips@@QEBA?AV12@NNPEAVVOption@2@@Z 00000001800183e0 f   VImage.obj
 0001:00017500       ?shrinkh@VImage@vips@@QEBA?AV12@HPEAVVOption@2@@Z 0000000180018500 f   VImage.obj
 0001:000175f0       ?shrinkv@VImage@vips@@QEBA?AV12@HPEAVVOption@2@@Z 00000001800185f0 f   VImage.obj
 0001:000176e0       ?sign@VImage@vips@@QEBA?AV12@PEAVVOption@2@@Z 00000001800186e0 f   VImage.obj
 0001:000177c0       ?similarity@VImage@vips@@QEBA?AV12@PEAVVOption@2@@Z 00000001800187c0 f   VImage.obj
 0001:000178a0       ?sines@VImage@vips@@SA?AV12@HHPEAVVOption@2@@Z 00000001800188a0 f   VImage.obj
 0001:00017940       ?smartcrop@VImage@vips@@QEBA?AV12@HHPEAVVOption@2@@Z 0000000180018940 f   VImage.obj
 0001:00017a60       ?sobel@VImage@vips@@QEBA?AV12@PEAVVOption@2@@Z 0000000180018a60 f   VImage.obj
 0001:00017b40       ?spcor@VImage@vips@@QEBA?AV12@V12@PEAVVOption@2@@Z 0000000180018b40 f   VImage.obj
 0001:00017ce0       ?spectrum@VImage@vips@@QEBA?AV12@PEAVVOption@2@@Z 0000000180018ce0 f   VImage.obj
 0001:00017dc0       ?stats@VImage@vips@@QEBA?AV12@PEAVVOption@2@@Z 0000000180018dc0 f   VImage.obj
 0001:00017ea0       ?stdif@VImage@vips@@QEBA?AV12@HHPEAVVOption@2@@Z 0000000180018ea0 f   VImage.obj
 0001:00017fc0       ?subsample@VImage@vips@@QEBA?AV12@HHPEAVVOption@2@@Z 0000000180018fc0 f   VImage.obj
 0001:000180e0       ?subtract@VImage@vips@@QEBA?AV12@V12@PEAVVOption@2@@Z 00000001800190e0 f   VImage.obj
 0001:00018280       ?sum@VImage@vips@@SA?AV12@V?$vector@VVImage@vips@@V?$allocator@VVImage@vips@@@std@@@std@@PEAVVOption@2@@Z 0000000180019280 f   VImage.obj
 0001:000183b0       ?svgload@VImage@vips@@SA?AV12@PEBDPEAVVOption@2@@Z 00000001800193b0 f   VImage.obj
 0001:00018430       ?svgload_buffer@VImage@vips@@SA?AV12@PEAU_VipsBlob@@PEAVVOption@2@@Z 0000000180019430 f   VImage.obj
 0001:000184b0       ?svgload_source@VImage@vips@@SA?AV12@VVSource@2@PEAVVOption@2@@Z 00000001800194b0 f   VImage.obj
 0001:000185e0       ?switch_image@VImage@vips@@SA?AV12@V?$vector@VVImage@vips@@V?$allocator@VVImage@vips@@@std@@@std@@PEAVVOption@2@@Z 00000001800195e0 f   VImage.obj
 0001:00018710       ?system@VImage@vips@@SAXPEBDPEAVVOption@2@@Z 0000000180019710 f   VImage.obj
 0001:00018750       ?text@VImage@vips@@SA?AV12@PEBDPEAVVOption@2@@Z 0000000180019750 f   VImage.obj
 0001:000187d0       ?thumbnail@VImage@vips@@SA?AV12@PEBDHPEAVVOption@2@@Z 00000001800197d0 f   VImage.obj
 0001:00018870       ?thumbnail_buffer@VImage@vips@@SA?AV12@PEAU_VipsBlob@@HPEAVVOption@2@@Z 0000000180019870 f   VImage.obj
 0001:00018910       ?thumbnail_image@VImage@vips@@QEBA?AV12@HPEAVVOption@2@@Z 0000000180019910 f   VImage.obj
 0001:00018a00       ?thumbnail_source@VImage@vips@@SA?AV12@VVSource@2@HPEAVVOption@2@@Z 0000000180019a00 f   VImage.obj
 0001:00018b60       ?tiffload@VImage@vips@@SA?AV12@PEBDPEAVVOption@2@@Z 0000000180019b60 f   VImage.obj
 0001:00018be0       ?tiffload_buffer@VImage@vips@@SA?AV12@PEAU_VipsBlob@@PEAVVOption@2@@Z 0000000180019be0 f   VImage.obj
 0001:00018c60       ?tiffload_source@VImage@vips@@SA?AV12@VVSource@2@PEAVVOption@2@@Z 0000000180019c60 f   VImage.obj
 0001:00018d90       ?tiffsave@VImage@vips@@QEBAXPEBDPEAVVOption@2@@Z 0000000180019d90 f   VImage.obj
 0001:00018e50       ?tiffsave_buffer@VImage@vips@@QEBAPEAU_VipsBlob@@PEAVVOption@2@@Z 0000000180019e50 f   VImage.obj
 0001:00018fa0       ?tilecache@VImage@vips@@QEBA?AV12@PEAVVOption@2@@Z 0000000180019fa0 f   VImage.obj
 0001:00019080       ?tonelut@VImage@vips@@SA?AV12@PEAVVOption@2@@Z 000000018001a080 f   VImage.obj
 0001:000190f0       ?transpose3d@VImage@vips@@QEBA?AV12@PEAVVOption@2@@Z 000000018001a0f0 f   VImage.obj
 0001:000191d0       ?unpremultiply@VImage@vips@@QEBA?AV12@PEAVVOption@2@@Z 000000018001a1d0 f   VImage.obj
 0001:000192b0       ?vipsload@VImage@vips@@SA?AV12@PEBDPEAVVOption@2@@Z 000000018001a2b0 f   VImage.obj
 0001:00019330       ?vipssave@VImage@vips@@QEBAXPEBDPEAVVOption@2@@Z 000000018001a330 f   VImage.obj
 0001:000193f0       ?webpload@VImage@vips@@SA?AV12@PEBDPEAVVOption@2@@Z 000000018001a3f0 f   VImage.obj
 0001:00019470       ?webpload_buffer@VImage@vips@@SA?AV12@PEAU_VipsBlob@@PEAVVOption@2@@Z 000000018001a470 f   VImage.obj
 0001:000194f0       ?webpload_source@VImage@vips@@SA?AV12@VVSource@2@PEAVVOption@2@@Z 000000018001a4f0 f   VImage.obj
 0001:00019620       ?webpsave@VImage@vips@@QEBAXPEBDPEAVVOption@2@@Z 000000018001a620 f   VImage.obj
 0001:000196e0       ?webpsave_buffer@VImage@vips@@QEBAPEAU_VipsBlob@@PEAVVOption@2@@Z 000000018001a6e0 f   VImage.obj
 0001:00019830       ?webpsave_target@VImage@vips@@QEBAXVVTarget@2@PEAVVOption@2@@Z 000000018001a830 f   VImage.obj
 0001:00019990       ?worley@VImage@vips@@SA?AV12@HHPEAVVOption@2@@Z 000000018001a990 f   VImage.obj
 0001:00019a30       ?wrap@VImage@vips@@QEBA?AV12@PEAVVOption@2@@Z 000000018001aa30 f   VImage.obj
 0001:00019b10       ?xyz@VImage@vips@@SA?AV12@HHPEAVVOption@2@@Z 000000018001ab10 f   VImage.obj
 0001:00019bb0       ?zone@VImage@vips@@SA?AV12@HHPEAVVOption@2@@Z 000000018001abb0 f   VImage.obj
 0001:00019c50       ?zoom@VImage@vips@@QEBA?AV12@HHPEAVVOption@2@@Z 000000018001ac50 f   VImage.obj
 0001:00019d70       ?bandsplit@VImage@vips@@QEBA?AV?$vector@VVImage@vips@@V?$allocator@VVImage@vips@@@std@@@std@@PEAVVOption@2@@Z 000000018001ad70 f   VImage.obj
 0001:0001a090       ?bandjoin@VImage@vips@@QEBA?AV12@V12@PEAVVOption@2@@Z 000000018001b090 f   VImage.obj
 0001:0001a2c0       ?composite@VImage@vips@@QEBA?AV12@V12@W4VipsBlendMode@@PEAVVOption@2@@Z 000000018001b2c0 f   VImage.obj
 0001:0001a5c0       ?minpos@VImage@vips@@QEBA?AV?$complex@N@std@@PEAVVOption@2@@Z 000000018001b5c0 f   VImage.obj
 0001:0001a760       ?maxpos@VImage@vips@@QEBA?AV?$complex@N@std@@PEAVVOption@2@@Z 000000018001b760 f   VImage.obj
 0001:0001a900       ??AVImage@vips@@QEBA?AV01@H@Z 000000018001b900 f   VImage.obj
 0001:0001a920       ??RVImage@vips@@QEBA?AV?$vector@NV?$allocator@N@std@@@std@@HH@Z 000000018001b920 f   VImage.obj
 0001:0001a940       ??Hvips@@YA?AVVImage@0@V10@0@Z 000000018001b940 f   VImage.obj
 0001:0001aa80       ??Hvips@@YA?AVVImage@0@NV10@@Z 000000018001ba80 f   VImage.obj
 0001:0001ab20       ??Hvips@@YA?AVVImage@0@V10@N@Z 000000018001bb20 f   VImage.obj
 0001:0001abc0       ??Hvips@@YA?AVVImage@0@V?$vector@NV?$allocator@N@std@@@std@@V10@@Z 000000018001bbc0 f   VImage.obj
 0001:0001ad10       ??Hvips@@YA?AVVImage@0@V10@V?$vector@NV?$allocator@N@std@@@std@@@Z 000000018001bd10 f   VImage.obj
 0001:0001ae60       ??Yvips@@YAAEAVVImage@0@AEAV10@V10@@Z 000000018001be60 f   VImage.obj
 0001:0001afd0       ??Yvips@@YAAEAVVImage@0@AEAV10@N@Z 000000018001bfd0 f   VImage.obj
 0001:0001b1a0       ??Yvips@@YAAEAVVImage@0@AEAV10@V?$vector@NV?$allocator@N@std@@@std@@@Z 000000018001c1a0 f   VImage.obj
 0001:0001b340       ??Gvips@@YA?AVVImage@0@V10@0@Z 000000018001c340 f   VImage.obj
 0001:0001b480       ??Gvips@@YA?AVVImage@0@NV10@@Z 000000018001c480 f   VImage.obj
 0001:0001b520       ??Gvips@@YA?AVVImage@0@V10@N@Z 000000018001c520 f   VImage.obj
 0001:0001b5d0       ??Gvips@@YA?AVVImage@0@V?$vector@NV?$allocator@N@std@@@std@@V10@@Z 000000018001c5d0 f   VImage.obj
 0001:0001b720       ??Gvips@@YA?AVVImage@0@V10@V?$vector@NV?$allocator@N@std@@@std@@@Z 000000018001c720 f   VImage.obj
 0001:0001b870       ??Zvips@@YAAEAVVImage@0@AEAV10@V10@@Z 000000018001c870 f   VImage.obj
 0001:0001b9e0       ??Zvips@@YAAEAVVImage@0@AEAV10@N@Z 000000018001c9e0 f   VImage.obj
 0001:0001bbb0       ??Zvips@@YAAEAVVImage@0@AEAV10@V?$vector@NV?$allocator@N@std@@@std@@@Z 000000018001cbb0 f   VImage.obj
 0001:0001bd50       ??Gvips@@YA?AVVImage@0@V10@@Z 000000018001cd50 f   VImage.obj
 0001:0001be40       ??Dvips@@YA?AVVImage@0@V10@0@Z 000000018001ce40 f   VImage.obj
 0001:0001bf80       ??Dvips@@YA?AVVImage@0@NV10@@Z 000000018001cf80 f   VImage.obj
 0001:0001c020       ??Dvips@@YA?AVVImage@0@V10@N@Z 000000018001d020 f   VImage.obj
 0001:0001c0c0       ??Dvips@@YA?AVVImage@0@V?$vector@NV?$allocator@N@std@@@std@@V10@@Z 000000018001d0c0 f   VImage.obj
 0001:0001c210       ??Dvips@@YA?AVVImage@0@V10@V?$vector@NV?$allocator@N@std@@@std@@@Z 000000018001d210 f   VImage.obj
 0001:0001c350       ??Xvips@@YAAEAVVImage@0@AEAV10@V10@@Z 000000018001d350 f   VImage.obj
 0001:0001c4c0       ??Xvips@@YAAEAVVImage@0@AEAV10@N@Z 000000018001d4c0 f   VImage.obj
 0001:0001c690       ??Xvips@@YAAEAVVImage@0@AEAV10@V?$vector@NV?$allocator@N@std@@@std@@@Z 000000018001d690 f   VImage.obj
 0001:0001c830       ??Kvips@@YA?AVVImage@0@V10@0@Z 000000018001d830 f   VImage.obj
 0001:0001c970       ??Kvips@@YA?AVVImage@0@NV10@@Z 000000018001d970 f   VImage.obj
 0001:0001cab0       ??Kvips@@YA?AVVImage@0@V10@N@Z 000000018001dab0 f   VImage.obj
 0001:0001cb60       ??Kvips@@YA?AVVImage@0@V?$vector@NV?$allocator@N@std@@@std@@V10@@Z 000000018001db60 f   VImage.obj
 0001:0001cd50       ??Kvips@@YA?AVVImage@0@V10@V?$vector@NV?$allocator@N@std@@@std@@@Z 000000018001dd50 f   VImage.obj
 0001:0001cea0       ??_0vips@@YAAEAVVImage@0@AEAV10@V10@@Z 000000018001dea0 f   VImage.obj
 0001:0001d010       ??_0vips@@YAAEAVVImage@0@AEAV10@N@Z 000000018001e010 f   VImage.obj
 0001:0001d1f0       ??_0vips@@YAAEAVVImage@0@AEAV10@V?$vector@NV?$allocator@N@std@@@std@@@Z 000000018001e1f0 f   VImage.obj
 0001:0001d390       ??Lvips@@YA?AVVImage@0@V10@0@Z 000000018001e390 f   VImage.obj
 0001:0001d4d0       ??Lvips@@YA?AVVImage@0@V10@N@Z 000000018001e4d0 f   VImage.obj
 0001:0001d580       ??Lvips@@YA?AVVImage@0@V10@V?$vector@NV?$allocator@N@std@@@std@@@Z 000000018001e580 f   VImage.obj
 0001:0001d6c0       ??_1vips@@YAAEAVVImage@0@AEAV10@V10@@Z 000000018001e6c0 f   VImage.obj
 0001:0001d830       ??_1vips@@YAAEAVVImage@0@AEAV10@N@Z 000000018001e830 f   VImage.obj
 0001:0001d9c0       ??_1vips@@YAAEAVVImage@0@AEAV10@V?$vector@NV?$allocator@N@std@@@std@@@Z 000000018001e9c0 f   VImage.obj
 0001:0001db60       ??Mvips@@YA?AVVImage@0@V10@0@Z 000000018001eb60 f   VImage.obj
 0001:0001dca0       ??Mvips@@YA?AVVImage@0@NV10@@Z 000000018001eca0 f   VImage.obj
 0001:0001dd60       ??Mvips@@YA?AVVImage@0@V10@N@Z 000000018001ed60 f   VImage.obj
 0001:0001de10       ??Mvips@@YA?AVVImage@0@V?$vector@NV?$allocator@N@std@@@std@@V10@@Z 000000018001ee10 f   VImage.obj
 0001:0001df60       ??Mvips@@YA?AVVImage@0@V10@V?$vector@NV?$allocator@N@std@@@std@@@Z 000000018001ef60 f   VImage.obj
 0001:0001e0b0       ??Nvips@@YA?AVVImage@0@V10@0@Z 000000018001f0b0 f   VImage.obj
 0001:0001e1f0       ??Nvips@@YA?AVVImage@0@NV10@@Z 000000018001f1f0 f   VImage.obj
 0001:0001e2b0       ??Nvips@@YA?AVVImage@0@V10@N@Z 000000018001f2b0 f   VImage.obj
 0001:0001e360       ??Nvips@@YA?AVVImage@0@V?$vector@NV?$allocator@N@std@@@std@@V10@@Z 000000018001f360 f   VImage.obj
 0001:0001e4b0       ??Nvips@@YA?AVVImage@0@V10@V?$vector@NV?$allocator@N@std@@@std@@@Z 000000018001f4b0 f   VImage.obj
 0001:0001e600       ??Ovips@@YA?AVVImage@0@V10@0@Z 000000018001f600 f   VImage.obj
 0001:0001e740       ??Ovips@@YA?AVVImage@0@NV10@@Z 000000018001f740 f   VImage.obj
 0001:0001e800       ??Ovips@@YA?AVVImage@0@V10@N@Z 000000018001f800 f   VImage.obj
 0001:0001e8b0       ??Ovips@@YA?AVVImage@0@V?$vector@NV?$allocator@N@std@@@std@@V10@@Z 000000018001f8b0 f   VImage.obj
 0001:0001ea00       ??Ovips@@YA?AVVImage@0@V10@V?$vector@NV?$allocator@N@std@@@std@@@Z 000000018001fa00 f   VImage.obj
 0001:0001eb50       ??Pvips@@YA?AVVImage@0@V10@0@Z 000000018001fb50 f   VImage.obj
 0001:0001ec90       ??Pvips@@YA?AVVImage@0@NV10@@Z 000000018001fc90 f   VImage.obj
 0001:0001ed50       ??Pvips@@YA?AVVImage@0@V10@N@Z 000000018001fd50 f   VImage.obj
 0001:0001ee00       ??Pvips@@YA?AVVImage@0@V?$vector@NV?$allocator@N@std@@@std@@V10@@Z 000000018001fe00 f   VImage.obj
 0001:0001ef50       ??Pvips@@YA?AVVImage@0@V10@V?$vector@NV?$allocator@N@std@@@std@@@Z 000000018001ff50 f   VImage.obj
 0001:0001f0a0       ??8vips@@YA?AVVImage@0@V10@0@Z 00000001800200a0 f   VImage.obj
 0001:0001f1e0       ??8vips@@YA?AVVImage@0@NV10@@Z 00000001800201e0 f   VImage.obj
 0001:0001f290       ??8vips@@YA?AVVImage@0@V10@N@Z 0000000180020290 f   VImage.obj
 0001:0001f340       ??8vips@@YA?AVVImage@0@V?$vector@NV?$allocator@N@std@@@std@@V10@@Z 0000000180020340 f   VImage.obj
 0001:0001f490       ??8vips@@YA?AVVImage@0@V10@V?$vector@NV?$allocator@N@std@@@std@@@Z 0000000180020490 f   VImage.obj
 0001:0001f5d0       ??9vips@@YA?AVVImage@0@V10@0@Z 00000001800205d0 f   VImage.obj
 0001:0001f710       ??9vips@@YA?AVVImage@0@NV10@@Z 0000000180020710 f   VImage.obj
 0001:0001f7d0       ??9vips@@YA?AVVImage@0@V10@N@Z 00000001800207d0 f   VImage.obj
 0001:0001f880       ??9vips@@YA?AVVImage@0@V?$vector@NV?$allocator@N@std@@@std@@V10@@Z 0000000180020880 f   VImage.obj
 0001:0001f9d0       ??9vips@@YA?AVVImage@0@V10@V?$vector@NV?$allocator@N@std@@@std@@@Z 00000001800209d0 f   VImage.obj
 0001:0001fb20       ??Ivips@@YA?AVVImage@0@V10@0@Z 0000000180020b20 f   VImage.obj
 0001:0001fc60       ??Ivips@@YA?AVVImage@0@NV10@@Z 0000000180020c60 f   VImage.obj
 0001:0001fd10       ??Ivips@@YA?AVVImage@0@V10@N@Z 0000000180020d10 f   VImage.obj
 0001:0001fdc0       ??Ivips@@YA?AVVImage@0@V?$vector@NV?$allocator@N@std@@@std@@V10@@Z 0000000180020dc0 f   VImage.obj
 0001:0001ff10       ??Ivips@@YA?AVVImage@0@V10@V?$vector@NV?$allocator@N@std@@@std@@@Z 0000000180020f10 f   VImage.obj
 0001:00020050       ??_4vips@@YAAEAVVImage@0@AEAV10@V10@@Z 0000000180021050 f   VImage.obj
 0001:000201c0       ??_4vips@@YAAEAVVImage@0@AEAV10@N@Z 00000001800211c0 f   VImage.obj
 0001:00020360       ??_4vips@@YAAEAVVImage@0@AEAV10@V?$vector@NV?$allocator@N@std@@@std@@@Z 0000000180021360 f   VImage.obj
 0001:00020500       ??Uvips@@YA?AVVImage@0@V10@0@Z 0000000180021500 f   VImage.obj
 0001:00020640       ??Uvips@@YA?AVVImage@0@NV10@@Z 0000000180021640 f   VImage.obj
 0001:00020700       ??Uvips@@YA?AVVImage@0@V10@N@Z 0000000180021700 f   VImage.obj
 0001:000207b0       ??Uvips@@YA?AVVImage@0@V?$vector@NV?$allocator@N@std@@@std@@V10@@Z 00000001800217b0 f   VImage.obj
 0001:00020900       ??Uvips@@YA?AVVImage@0@V10@V?$vector@NV?$allocator@N@std@@@std@@@Z 0000000180021900 f   VImage.obj
 0001:00020a50       ??_5vips@@YAAEAVVImage@0@AEAV10@V10@@Z 0000000180021a50 f   VImage.obj
 0001:00020bc0       ??_5vips@@YAAEAVVImage@0@AEAV10@N@Z 0000000180021bc0 f   VImage.obj
 0001:00020d60       ??_5vips@@YAAEAVVImage@0@AEAV10@V?$vector@NV?$allocator@N@std@@@std@@@Z 0000000180021d60 f   VImage.obj
 0001:00020f00       ??Tvips@@YA?AVVImage@0@V10@0@Z 0000000180021f00 f   VImage.obj
 0001:00021040       ??Tvips@@YA?AVVImage@0@NV10@@Z 0000000180022040 f   VImage.obj
 0001:00021100       ??Tvips@@YA?AVVImage@0@V10@N@Z 0000000180022100 f   VImage.obj
 0001:000211b0       ??Tvips@@YA?AVVImage@0@V?$vector@NV?$allocator@N@std@@@std@@V10@@Z 00000001800221b0 f   VImage.obj
 0001:00021300       ??Tvips@@YA?AVVImage@0@V10@V?$vector@NV?$allocator@N@std@@@std@@@Z 0000000180022300 f   VImage.obj
 0001:00021450       ??_6vips@@YAAEAVVImage@0@AEAV10@V10@@Z 0000000180022450 f   VImage.obj
 0001:000215c0       ??_6vips@@YAAEAVVImage@0@AEAV10@N@Z 00000001800225c0 f   VImage.obj
 0001:00021760       ??_6vips@@YAAEAVVImage@0@AEAV10@V?$vector@NV?$allocator@N@std@@@std@@@Z 0000000180022760 f   VImage.obj
 0001:00021900       ??6vips@@YA?AVVImage@0@V10@0@Z 0000000180022900 f   VImage.obj
 0001:00021a40       ??6vips@@YA?AVVImage@0@V10@N@Z 0000000180022a40 f   VImage.obj
 0001:00021af0       ??6vips@@YA?AVVImage@0@V10@V?$vector@NV?$allocator@N@std@@@std@@@Z 0000000180022af0 f   VImage.obj
 0001:00021c40       ??_2vips@@YAAEAVVImage@0@AEAV10@V10@@Z 0000000180022c40 f   VImage.obj
 0001:00021c40       ??_3vips@@YAAEAVVImage@0@AEAV10@V10@@Z 0000000180022c40 f   VImage.obj
 0001:00021db0       ??_2vips@@YAAEAVVImage@0@AEAV10@N@Z 0000000180022db0 f   VImage.obj
 0001:00021db0       ??_3vips@@YAAEAVVImage@0@AEAV10@N@Z 0000000180022db0 f   VImage.obj
 0001:00021f50       ??_3vips@@YAAEAVVImage@0@AEAV10@V?$vector@NV?$allocator@N@std@@@std@@@Z 0000000180022f50 f   VImage.obj
 0001:00021f50       ??_2vips@@YAAEAVVImage@0@AEAV10@V?$vector@NV?$allocator@N@std@@@std@@@Z 0000000180022f50 f   VImage.obj
 0001:000220f0       ??5vips@@YA?AVVImage@0@V10@0@Z 00000001800230f0 f   VImage.obj
 0001:00022230       ??5vips@@YA?AVVImage@0@V10@N@Z 0000000180023230 f   VImage.obj
 0001:000222e0       ??5vips@@YA?AVVImage@0@V10@V?$vector@NV?$allocator@N@std@@@std@@@Z 00000001800232e0 f   VImage.obj
 0001:00022430       ??1?$vector@VVImage@vips@@V?$allocator@VVImage@vips@@@std@@@std@@QEAA@XZ 0000000180023430 f i VImage.obj
 0001:000224a0       ??$construct@VVImage@vips@@V12@@?$_Default_allocator_traits@V?$allocator@VVImage@vips@@@std@@@std@@SAXAEAV?$allocator@VVImage@vips@@@1@QEAVVImage@vips@@$$QEAV34@@Z 00000001800234a0 f i VImage.obj
 0001:00022510       ??$_Emplace_reallocate@VVImage@vips@@@?$vector@VVImage@vips@@V?$allocator@VVImage@vips@@@std@@@std@@QEAAPEAVVImage@vips@@QEAV23@$$QEAV23@@Z 0000000180023510 f i VImage.obj
 0001:000226d0       ??$_Resize@V<lambda_2a778761999fc28b0a098902444dd25e>@@@?$vector@NV?$allocator@N@std@@@std@@AEAAX_KV<lambda_2a778761999fc28b0a098902444dd25e>@@@Z 00000001800236d0 f i VImage.obj
 0001:00022880       ??$_Destroy_range@V?$allocator@VVImage@vips@@@std@@@std@@YAXPEAVVImage@vips@@0AEAV?$allocator@VVImage@vips@@@0@@Z 0000000180023880 f i VImage.obj
 0001:00022910       ?_Umove@?$vector@VVImage@vips@@V?$allocator@VVImage@vips@@@std@@@std@@AEAAPEAVVImage@vips@@PEAV34@00@Z 0000000180023910 f i VImage.obj
 0001:000229b0       ??$_Uninitialized_copy@PEAVVImage@vips@@PEAV12@V?$allocator@VVImage@vips@@@std@@@std@@YAPEAVVImage@vips@@QEAV12@0PEAV12@AEAV?$allocator@VVImage@vips@@@0@@Z 00000001800239b0 f i VImage.obj
 0001:00022a50       ??0exception@std@@QEAA@AEBV01@@Z 0000000180023a50 f i libcpmt:xonce.obj
 0001:00022a88       ??_Ebad_exception@std@@UEAAPEAXI@Z 0000000180023a88 f i libvcruntime:frame.obj
 0001:00022a88       ??_Eexception@std@@UEAAPEAXI@Z 0000000180023a88 f i libcpmt:xonce.obj
 0001:00022a88       ??_Ebad_array_new_length@std@@UEAAPEAXI@Z 0000000180023a88 f i LIBCMT:throw_bad_alloc.obj
 0001:00022a88       ??_Gbad_array_new_length@std@@UEAAPEAXI@Z 0000000180023a88 f i LIBCMT:throw_bad_alloc.obj
 0001:00022a88       ??_Glogic_error@std@@UEAAPEAXI@Z 0000000180023a88 f i libcpmt:xthrow.obj
 0001:00022a88       ??_Gbad_alloc@std@@UEAAPEAXI@Z 0000000180023a88 f i libcpmt:xthrow.obj
 0001:00022a88       ??_Elogic_error@std@@UEAAPEAXI@Z 0000000180023a88 f i libcpmt:xthrow.obj
 0001:00022a88       ??_Ebad_alloc@std@@UEAAPEAXI@Z 0000000180023a88 f i libcpmt:xthrow.obj
 0001:00022a88       ??_Elength_error@std@@UEAAPEAXI@Z 0000000180023a88 f i libcpmt:xthrow.obj
 0001:00022a88       ??_Gexception@std@@UEAAPEAXI@Z 0000000180023a88 f i libcpmt:xonce.obj
 0001:00022a88       ??_Glength_error@std@@UEAAPEAXI@Z 0000000180023a88 f i libcpmt:xthrow.obj
 0001:00022a88       ??_Gbad_exception@std@@UEAAPEAXI@Z 0000000180023a88 f i libvcruntime:frame.obj
 0001:00022acc       ?_Execute_once@std@@YAHAEAUonce_flag@1@P6AHPEAX1PEAPEAX@Z1@Z 0000000180023acc f   libcpmt:xonce.obj
 0001:00022ad4       ?what@exception@std@@UEBAPEBDXZ 0000000180023ad4 f i libcpmt:xonce.obj
 0001:00022ae8       ??0bad_alloc@std@@QEAA@AEBV01@@Z 0000000180023ae8 f i libcpmt:xthrow.obj
 0001:00022b28       ??0bad_alloc@std@@QEAA@XZ  0000000180023b28 f i libcpmt:xthrow.obj
 0001:00022b48       ??0length_error@std@@QEAA@AEBV01@@Z 0000000180023b48 f i libcpmt:xthrow.obj
 0001:00022b88       ??0length_error@std@@QEAA@PEBD@Z 0000000180023b88 f i libcpmt:xthrow.obj
 0001:00022bd4       ??0logic_error@std@@QEAA@AEBV01@@Z 0000000180023bd4 f i libcpmt:xthrow.obj
 0001:00022c14       ??1bad_exception@std@@UEAA@XZ 0000000180023c14 f i libvcruntime:frame.obj
 0001:00022c14       ??1bad_array_new_length@std@@UEAA@XZ 0000000180023c14 f i LIBCMT:throw_bad_alloc.obj
 0001:00022c14       ??1length_error@std@@UEAA@XZ 0000000180023c14 f i libcpmt:xthrow.obj
 0001:00022c14       ??1bad_alloc@std@@UEAA@XZ  0000000180023c14 f i libcpmt:xthrow.obj
 0001:00022c28       ?_Xlength_error@std@@YAXPEBD@Z 0000000180023c28 f   libcpmt:xthrow.obj
 0001:00022c4c       ?_Syserror_map@std@@YAPEBDH@Z 0000000180023c4c f   libcpmt:syserror.obj
 0001:00023144       __crtInitOnceExecuteOnce   0000000180024144 f   libcpmt:winapisupp.obj
 0001:00023220       __security_check_cookie    0000000180024220 f   LIBCMT:amdsecgs.obj
 0001:00023244       ??_V@YAXPEAX_K@Z           0000000180024244 f   LIBCMT:delete_array_size.obj
 0001:0002324c       ??2@YAPEAX_K@Z             000000018002424c f   LIBCMT:new_scalar.obj
 0001:00023288       ??_M@YAXPEAX_K1P6AX0@Z@Z   0000000180024288 f   LIBCMT:ehvecdtr.obj
 0001:000232f4       ?__ArrayUnwind@@YAXPEAX_K1P6AX0@Z@Z 00000001800242f4 f   LIBCMT:ehvecdtr.obj
 0001:00023358       ??_V@YAXPEAX@Z             0000000180024358 f   LIBCMT:delete_array.obj
 0001:00023358       ??3@YAXPEAX_K@Z            0000000180024358 f   LIBCMT:delete_scalar_size.obj
 0001:00023360       ??_Etype_info@@UEAAPEAXI@Z 0000000180024360 f i LIBCMT:std_type_info_static.obj
 0001:00023360       ??_Gtype_info@@UEAAPEAXI@Z 0000000180024360 f i LIBCMT:std_type_info_static.obj
 0001:000236bc       _DllMainCRTStartup         00000001800246bc f   LIBCMT:dll_dllmain.obj
 0001:000236fc       __GSHandlerCheck           00000001800246fc f   LIBCMT:gshandler.obj
 0001:0002371c       __GSHandlerCheckCommon     000000018002471c f   LIBCMT:gshandler.obj
 0001:00023778       __GSHandlerCheck_EH        0000000180024778 f   LIBCMT:gshandlereh.obj
 0001:000237f8       __raise_securityfailure    00000001800247f8 f   LIBCMT:gs_report.obj
 0001:0002382c       __report_gsfailure         000000018002482c f   LIBCMT:gs_report.obj
 0001:00023900       __report_rangecheckfailure 0000000180024900 f   LIBCMT:gs_report.obj
 0001:00023914       __report_securityfailure   0000000180024914 f   LIBCMT:gs_report.obj
 0001:00023a94       ??0bad_array_new_length@std@@QEAA@AEBV01@@Z 0000000180024a94 f i LIBCMT:throw_bad_alloc.obj
 0001:00023ad4       ??0bad_array_new_length@std@@QEAA@XZ 0000000180024ad4 f i LIBCMT:throw_bad_alloc.obj
 0001:00023af4       ?__scrt_throw_std_bad_alloc@@YAXXZ 0000000180024af4 f   LIBCMT:throw_bad_alloc.obj
 0001:00023b14       ?__scrt_throw_std_bad_array_new_length@@YAXXZ 0000000180024b14 f   LIBCMT:throw_bad_alloc.obj
 0001:00023b34       ??3@YAXPEAX@Z              0000000180024b34 f   LIBCMT:delete_scalar.obj
 0001:00023b3c       __security_init_cookie     0000000180024b3c f   LIBCMT:gs_support.obj
 0001:00023be8       _get_startup_argv_mode     0000000180024be8 f   LIBCMT:argv_mode.obj
 0001:00023be8       DllMain                    0000000180024be8 f   LIBCMT:dll_dllmain_stub.obj
 0001:00023bf0       ?__scrt_initialize_type_info@@YAXXZ 0000000180024bf0 f   LIBCMT:tncleanup.obj
 0001:00023c00       ?__scrt_uninitialize_type_info@@YAXXZ 0000000180024c00 f   LIBCMT:tncleanup.obj
 0001:00023c0c       __local_stdio_printf_options 0000000180024c0c f i LIBCMT:default_local_stdio_options.obj
 0001:00023c14       __local_stdio_scanf_options 0000000180024c14 f i LIBCMT:default_local_stdio_options.obj
 0001:00023c1c       __scrt_initialize_default_local_stdio_options 0000000180024c1c f   LIBCMT:default_local_stdio_options.obj
 0001:00023c38       __scrt_acquire_startup_lock 0000000180024c38 f   LIBCMT:utility.obj
 0001:00023c74       __scrt_dllmain_after_initialize_c 0000000180024c74 f   LIBCMT:utility.obj
 0001:00023ca8       __scrt_dllmain_before_initialize_c 0000000180024ca8 f   LIBCMT:utility.obj
 0001:00023cc0       __scrt_dllmain_crt_thread_attach 0000000180024cc0 f   LIBCMT:utility.obj
 0001:00023ce8       __scrt_dllmain_crt_thread_detach 0000000180024ce8 f   LIBCMT:utility.obj
 0001:00023d00       __scrt_dllmain_exception_filter 0000000180024d00 f   LIBCMT:utility.obj
 0001:00023d60       __scrt_dllmain_uninitialize_c 0000000180024d60 f   LIBCMT:utility.obj
 0001:00023d90       __scrt_dllmain_uninitialize_critical 0000000180024d90 f   LIBCMT:utility.obj
 0001:00023da4       __scrt_initialize_crt      0000000180024da4 f   LIBCMT:utility.obj
 0001:00023df0       __scrt_initialize_onexit_tables 0000000180024df0 f   LIBCMT:utility.obj
 0001:00023ec8       __scrt_is_nonwritable_in_current_image 0000000180024ec8 f   LIBCMT:utility.obj
 0001:00023f64       __scrt_release_startup_lock 0000000180024f64 f   LIBCMT:utility.obj
 0001:00023f88       __scrt_uninitialize_crt    0000000180024f88 f   LIBCMT:utility.obj
 0001:00023fb4       __scrt_get_dyn_tls_init_callback 0000000180024fb4 f   LIBCMT:dyn_tls_init.obj
 0001:00023fbc       __crt_debugger_hook        0000000180024fbc f   LIBCMT:utility_desktop.obj
 0001:00023fc4       __scrt_fastfail            0000000180024fc4 f   LIBCMT:utility_desktop.obj
 0001:00024110       _RTC_Initialize            0000000180025110 f   LIBCMT:initsect.obj
 0001:0002414c       _RTC_Terminate             000000018002514c f   LIBCMT:initsect.obj
 0001:00024190       __isa_available_init       0000000180025190 f   LIBCMT:cpu_disp.obj
 0001:0002430c       __scrt_is_ucrt_dll_in_use  000000018002530c f   LIBCMT:ucrt_detection.obj
 0001:00024318       ??$_CallSETranslator@V__FrameHandler3@@@@YAHPEAUEHExceptionRecord@@PEA_KPEAU_CONTEXT@@PEAU_xDISPATCHER_CONTEXT@@PEBU_s_FuncInfo@@K1@Z 0000000180025318 f i libvcruntime:risctrnsctrl.obj
 0001:0002436c       ?CatchTryBlock@__FrameHandler3@@SAPEBU_s_TryBlockMapEntry@@PEBU_s_FuncInfo@@H@Z 000000018002536c f   libvcruntime:risctrnsctrl.obj
 0001:000243c4       ?ExecutionInCatch@__FrameHandler3@@SA_NPEAU_xDISPATCHER_CONTEXT@@PEBU_s_FuncInfo@@@Z 00000001800253c4 f   libvcruntime:risctrnsctrl.obj
 0001:000243f0       ?FrameUnwindToEmptyState@__FrameHandler3@@SAXPEA_KPEAU_xDISPATCHER_CONTEXT@@PEBU_s_FuncInfo@@@Z 00000001800253f0 f   libvcruntime:risctrnsctrl.obj
 0001:00024454       ?GetEstablisherFrame@__FrameHandler3@@SAPEA_KPEA_KPEAU_xDISPATCHER_CONTEXT@@PEBU_s_FuncInfo@@0@Z 0000000180025454 f   libvcruntime:risctrnsctrl.obj
 0001:00024520       ?GetRangeOfTrysToCheck@__FrameHandler3@@SA?AU?$pair@Viterator@TryBlockMap@__FrameHandler3@@V123@@std@@AEAVTryBlockMap@1@HH@Z 0000000180025520 f   libvcruntime:risctrnsctrl.obj
 0001:0002467c       ?UnwindNestedFrames@__FrameHandler3@@SAXPEA_KPEAUEHExceptionRecord@@PEAU_CONTEXT@@0PEAXPEBU_s_FuncInfo@@HHPEBU_s_HandlerType@@PEAU_xDISPATCHER_CONTEXT@@E@Z 000000018002567c f   libvcruntime:risctrnsctrl.obj
 0001:000247a0       _CreateFrameInfo           00000001800257a0 f   libvcruntime:risctrnsctrl.obj
 0001:000247dc       _FindAndUnlinkFrame        00000001800257dc f   libvcruntime:risctrnsctrl.obj
 0001:00024830       _GetImageBase              0000000180025830 f   libvcruntime:risctrnsctrl.obj
 0001:00024844       _GetThrowImageBase         0000000180025844 f   libvcruntime:risctrnsctrl.obj
 0001:00024858       _SetImageBase              0000000180025858 f   libvcruntime:risctrnsctrl.obj
 0001:00024870       _SetThrowImageBase         0000000180025870 f   libvcruntime:risctrnsctrl.obj
 0001:00024888       __CxxFrameHandler3         0000000180025888 f   libvcruntime:risctrnsctrl.obj
 0001:00024908       __DestructExceptionObject  0000000180025908 f   libvcruntime:ehhelpers.obj
 0001:0002497c       ?_CallMemberFunction0@@YAXQEAX0@Z 000000018002597c f i libvcruntime:ehhelpers.obj
 0001:00024980       _IsExceptionObjectToBeDestroyed 0000000180025980 f   libvcruntime:ehhelpers.obj
 0001:000249b0       __AdjustPointer            00000001800259b0 f   libvcruntime:ehhelpers.obj
 0001:000249d4       __FrameUnwindFilter        00000001800259d4 f   libvcruntime:ehhelpers.obj
 0001:00024a20       __std_terminate            0000000180025a20 f   libvcruntime:ehhelpers.obj
 0001:00024a2c       __std_exception_copy       0000000180025a2c f   libvcruntime:std_exception.obj
 0001:00024abc       __std_exception_destroy    0000000180025abc f   libvcruntime:std_exception.obj
 0001:00024ae4       _CxxThrowException         0000000180025ae4 f   libvcruntime:throw.obj
 0001:00024bc0       memcpy_repmovs             0000000180025bc0 f   libvcruntime:memcpy.obj
 0001:00024be0       memcpy                     0000000180025be0 f   libvcruntime:memcpy.obj
 0001:00024be0       memmove                    0000000180025be0 f   libvcruntime:memcpy.obj
 0001:00025020       memset_repmovs             0000000180026020 f   libvcruntime:memset.obj
 0001:00025040       memset                     0000000180026040 f   libvcruntime:memset.obj
 0001:000251d0       __C_specific_handler       00000001800261d0 f   libvcruntime:riscchandler.obj
 0001:000253dc       __std_type_info_compare    00000001800263dc f   libvcruntime:std_type_info.obj
 0001:00025404       __std_type_info_destroy_list 0000000180026404 f   libvcruntime:std_type_info.obj
 0001:00025430       __vcrt_initialize          0000000180026430 f   libvcruntime:initialization.obj
 0001:00025464       __vcrt_thread_attach       0000000180026464 f   libvcruntime:initialization.obj
 0001:00025478       __vcrt_thread_detach       0000000180026478 f   libvcruntime:initialization.obj
 0001:0002548c       __vcrt_uninitialize        000000018002648c f   libvcruntime:initialization.obj
 0001:000254ac       __vcrt_uninitialize_critical 00000001800264ac f   libvcruntime:initialization.obj
 0001:000254bc       __vcrt_freefls             00000001800264bc f   libvcruntime:per_thread_data.obj
 0001:000254dc       __vcrt_freeptd             00000001800264dc f   libvcruntime:per_thread_data.obj
 0001:0002552c       __vcrt_getptd              000000018002652c f   libvcruntime:per_thread_data.obj
 0001:00025548       __vcrt_getptd_noexit       0000000180026548 f   libvcruntime:per_thread_data.obj
 0001:00025614       __vcrt_initialize_ptd      0000000180026614 f   libvcruntime:per_thread_data.obj
 0001:00025668       __vcrt_uninitialize_ptd    0000000180026668 f   libvcruntime:per_thread_data.obj
 0001:0002568c       ?GetCurrentState@__FrameHandler3@@SAHPEA_KPEAU_xDISPATCHER_CONTEXT@@PEBU_s_FuncInfo@@@Z 000000018002668c f   libvcruntime:ehstate.obj
 0001:000256b4       ?GetUnwindTryBlock@__FrameHandler3@@SAHPEA_KPEAU_xDISPATCHER_CONTEXT@@PEBU_s_FuncInfo@@@Z 00000001800266b4 f   libvcruntime:ehstate.obj
 0001:000256e0       ?SetState@__FrameHandler3@@SAXPEA_KPEBU_s_FuncInfo@@H@Z 00000001800266e0 f   libvcruntime:ehstate.obj
 0001:000256ec       ?SetUnwindTryBlock@__FrameHandler3@@SAXPEA_KPEAU_xDISPATCHER_CONTEXT@@PEBU_s_FuncInfo@@H@Z 00000001800266ec f   libvcruntime:ehstate.obj
 0001:00025728       ?StateFromControlPc@__FrameHandler3@@SAHPEBU_s_FuncInfo@@PEAU_xDISPATCHER_CONTEXT@@@Z 0000000180026728 f   libvcruntime:ehstate.obj
 0001:00025730       ?StateFromIp@__FrameHandler3@@SAHPEBU_s_FuncInfo@@PEAU_xDISPATCHER_CONTEXT@@_K@Z 0000000180026730 f   libvcruntime:ehstate.obj
 0001:000261bc       ??$TypeMatchHelper@V__FrameHandler3@@@@YAHPEBU_s_HandlerType@@PEBU_s_CatchableType@@PEBU_s_ThrowInfo@@@Z 00000001800271bc f i libvcruntime:frame.obj
 0001:00026300       ??$__InternalCxxFrameHandler@V__FrameHandler3@@@@YA?AW4_EXCEPTION_DISPOSITION@@PEAUEHExceptionRecord@@PEA_KPEAU_CONTEXT@@PEAU_xDISPATCHER_CONTEXT@@PEBU_s_FuncInfo@@H1E@Z 0000000180027300 f i libvcruntime:frame.obj
 0001:00026548       ??0bad_exception@std@@QEAA@AEBV01@@Z 0000000180027548 f i libvcruntime:frame.obj
 0001:00026588       ??0bad_exception@std@@QEAA@XZ 0000000180027588 f i libvcruntime:frame.obj
 0001:000265a8       ?CxxCallCatchBlock@__FrameHandler3@@SAPEAXPEAU_EXCEPTION_RECORD@@@Z 00000001800275a8 f   libvcruntime:frame.obj
 0001:0002681c       ?FrameUnwindToState@__FrameHandler3@@SAXPEA_KPEAU_xDISPATCHER_CONTEXT@@PEBU_s_FuncInfo@@H@Z 000000018002781c f   libvcruntime:frame.obj
 0001:000269b0       ?GetHandlerSearchState@__FrameHandler3@@SAHPEA_KPEAU_xDISPATCHER_CONTEXT@@PEBU_s_FuncInfo@@@Z 00000001800279b0 f i libvcruntime:frame.obj
 0001:00026bb4       ?_CallMemberFunction1@@YAXQEAX00@Z 0000000180027bb4 f i libvcruntime:frame.obj
 0001:00026bc0       ?_CallMemberFunction2@@YAXQEAX00H@Z 0000000180027bc0 f i libvcruntime:frame.obj
 0001:00026be0       _NLG_Notify                0000000180027be0 f   libvcruntime:notify.obj
 0001:00026c00       __NLG_Dispatch2            0000000180027c00 f   libvcruntime:notify.obj
 0001:00026c10       __NLG_Return2              0000000180027c10 f   libvcruntime:notify.obj
 0001:00026c14       __except_validate_context_record 0000000180027c14 f   libvcruntime:jbcxrval.obj
 0001:00026c4c       __vcrt_initialize_locks    0000000180027c4c f   libvcruntime:locks.obj
 0001:00026c94       __vcrt_uninitialize_locks  0000000180027c94 f   libvcruntime:locks.obj
 0001:00026ea4       __vcrt_FlsAlloc            0000000180027ea4 f   libvcruntime:winapi_downlevel.obj
 0001:00026eec       __vcrt_FlsFree             0000000180027eec f   libvcruntime:winapi_downlevel.obj
 0001:00026f34       __vcrt_FlsGetValue         0000000180027f34 f   libvcruntime:winapi_downlevel.obj
 0001:00026f7c       __vcrt_FlsSetValue         0000000180027f7c f   libvcruntime:winapi_downlevel.obj
 0001:00026fd0       __vcrt_InitializeCriticalSectionEx 0000000180027fd0 f   libvcruntime:winapi_downlevel.obj
 0001:00027034       __vcrt_initialize_winapi_thunks 0000000180028034 f   libvcruntime:winapi_downlevel.obj
 0001:00027064       __vcrt_uninitialize_winapi_thunks 0000000180028064 f   libvcruntime:winapi_downlevel.obj
 0001:000270a4       __vcrt_initialize_pure_virtual_call_handler 00000001800280a4 f   libvcruntime:purevirt_data.obj
 0001:000270d0       _CallSettingFrame          00000001800280d0 f   libvcruntime:handlers.obj
 0001:00027120       _CallSettingFrameEncoded   0000000180028120 f   libvcruntime:handlers.obj
 0001:00027168       __acrt_call_reportfault    0000000180028168 f   libucrt:invalid_parameter.obj
 0001:000272c4       __acrt_initialize_invalid_parameter_handler 00000001800282c4 f   libucrt:invalid_parameter.obj
 0001:000272cc       _invalid_parameter         00000001800282cc f   libucrt:invalid_parameter.obj
 0001:0002737c       _invalid_parameter_noinfo  000000018002837c f   libucrt:invalid_parameter.obj
 0001:0002739c       _invalid_parameter_noinfo_noreturn 000000018002839c f   libucrt:invalid_parameter.obj
 0001:000273cc       _invoke_watson             00000001800283cc f   libucrt:invalid_parameter.obj
 0001:00027414       ??0_LocaleUpdate@@QEAA@QEAU__crt_locale_pointers@@@Z 0000000180028414 f i libucrt:stricmp.obj
 0001:000274b0       terminate                  00000001800284b0 f   libucrt:terminate.obj
 0001:000274d0       __acrt_initialize_new_handler 00000001800284d0 f   libucrt:new_handler.obj
 0001:000274d8       _callnewh                  00000001800284d8 f   libucrt:new_handler.obj
 0001:00027508       _query_new_handler         0000000180028508 f   libucrt:new_handler.obj
 0001:0002753c       malloc                     000000018002853c f   libucrt:malloc.obj
 0001:00027544       _initterm                  0000000180028544 f   libucrt:initterm.obj
 0001:000275a8       _initterm_e                00000001800285a8 f   libucrt:initterm.obj
 0001:000275e8       free                       00000001800285e8 f   libucrt:free.obj
 0001:000275fc       _seh_filter_dll            00000001800285fc f   libucrt:exception_filter.obj
 0001:00027610       _seh_filter_exe            0000000180028610 f   libucrt:exception_filter.obj
 0001:00027a00       __acrt_initialize_thread_local_exit_callback 0000000180028a00 f   libucrt:exit.obj
 0001:00027a08       _cexit                     0000000180028a08 f   libucrt:exit.obj
 0001:00027a18       _exit                      0000000180028a18 f   libucrt:exit.obj
 0001:00027a24       _is_c_termination_complete 0000000180028a24 f   libucrt:exit.obj
 0001:00027bf0       __acrt_allocate_buffer_for_argv 0000000180028bf0 f   libucrt:argv_parsing.obj
 0001:00027c50       _configure_narrow_argv     0000000180028c50 f   libucrt:argv_parsing.obj
 0001:00027fc8       __dcrt_uninitialize_environments_nolock 0000000180028fc8 f   libucrt:environment_initialization.obj
 0001:00028000       _initialize_narrow_environment 0000000180029000 f   libucrt:environment_initialization.obj
 0001:0002815c       _execute_onexit_table      000000018002915c f   libucrt:onexit.obj
 0001:00028198       _initialize_onexit_table   0000000180029198 f   libucrt:onexit.obj
 0001:000281f8       __acrt_uninitialize_command_line 00000001800291f8 f   libucrt:argv_data.obj
 0001:000282f0       __acrt_initialize          00000001800292f0 f   libucrt:initialization.obj
 0001:00028304       __acrt_thread_attach       0000000180029304 f   libucrt:initialization.obj
 0001:00028318       __acrt_thread_detach       0000000180029318 f   libucrt:initialization.obj
 0001:00028328       __acrt_uninitialize        0000000180029328 f   libucrt:initialization.obj
 0001:00028360       __acrt_uninitialize_critical 0000000180029360 f   libucrt:initialization.obj
 0001:00028370       strcpy_s                   0000000180029370 f   libucrt:strcpy_s.obj
 0001:000283d0       abort                      00000001800293d0 f   libucrt:abort.obj
 0001:00028428       calloc                     0000000180029428 f   libucrt:calloc.obj
 0001:00028440       strncmp                    0000000180029440 f   libucrt:strncmp.obj
 0001:000284c0       wcsncmp                    00000001800294c0 f   libucrt:wcsncmp.obj
 0001:00028864       __acrt_freeptd             0000000180029864 f   libucrt:per_thread_data.obj
 0001:000288a8       __acrt_getptd              00000001800298a8 f   libucrt:per_thread_data.obj
 0001:0002897c       __acrt_getptd_head         000000018002997c f   libucrt:per_thread_data.obj
 0001:00028a24       __acrt_getptd_noexit       0000000180029a24 f   libucrt:per_thread_data.obj
 0001:00028af0       __acrt_initialize_ptd      0000000180029af0 f   libucrt:per_thread_data.obj
 0001:00028b2c       __acrt_uninitialize_ptd    0000000180029b2c f   libucrt:per_thread_data.obj
 0001:00028b50       __acrt_errno_from_os_error 0000000180029b50 f   libucrt:errno.obj
 0001:00028b98       __acrt_errno_map_os_error  0000000180029b98 f   libucrt:errno.obj
 0001:00028be8       __doserrno                 0000000180029be8 f   libucrt:errno.obj
 0001:00028c08       _errno                     0000000180029c08 f   libucrt:errno.obj
 0001:00028c28       __acrt_update_locale_info  0000000180029c28 f   libucrt:locale_update.obj
 0001:00028c5c       __acrt_update_multibyte_info 0000000180029c5c f   libucrt:locale_update.obj
 0001:00028d00       __acrt_set_locale_changed  0000000180029d00 f   libucrt:wsetlocale.obj
 0001:00028d0c       __acrt_uninitialize_locale 0000000180029d0c f   libucrt:wsetlocale.obj
 0001:00028d3c       __acrt_initialize_locks    0000000180029d3c f   libucrt:locks.obj
 0001:00028d84       __acrt_lock                0000000180029d84 f   libucrt:locks.obj
 0001:00028da0       __acrt_uninitialize_locks  0000000180029da0 f   libucrt:locks.obj
 0001:00028dd8       __acrt_unlock              0000000180029dd8 f   libucrt:locks.obj
 0001:00028df4       _malloc_base               0000000180029df4 f   libucrt:malloc_base.obj
 0001:00028e54       _free_base                 0000000180029e54 f   libucrt:free_base.obj
 0001:00028e94       __acrt_get_process_end_policy 0000000180029e94 f   libucrt:win_policies.obj
 0001:00028ed0       _calloc_base               0000000180029ed0 f   libucrt:calloc_base.obj
 0001:00028f5c       ??$__acrt_mbs_to_wcs_cp@U__crt_win32_buffer_internal_dynamic_resizing@@@@YAHQEBDAEAV?$__crt_win32_buffer@_WU__crt_win32_buffer_internal_dynamic_resizing@@@@I@Z 0000000180029f5c f i libucrt:argv_wildcards.obj
 0001:000290d4       ??$__acrt_wcs_to_mbs_cp@U__crt_win32_buffer_internal_dynamic_resizing@@@@YAHQEB_WAEAV?$__crt_win32_buffer@DU__crt_win32_buffer_internal_dynamic_resizing@@@@I@Z 000000018002a0d4 f i libucrt:argv_wildcards.obj
 0001:00029904       __acrt_expand_narrow_argv_wildcards 000000018002a904 f   libucrt:argv_wildcards.obj
 0001:0002990c       ??$__acrt_wcs_to_mbs_cp@U__crt_win32_buffer_no_resizing@@@@YAHQEB_WAEAV?$__crt_win32_buffer@DU__crt_win32_buffer_no_resizing@@@@I@Z 000000018002a90c f i libucrt:getmodulefilenamea.obj
 0001:00029a20       __acrt_GetModuleFileNameA  000000018002aa20 f   libucrt:getmodulefilenamea.obj
 0001:0002a26c       __acrt_initialize_multibyte 000000018002b26c f   libucrt:mbctype.obj
 0001:0002a2cc       __acrt_update_thread_multibyte_data 000000018002b2cc f   libucrt:mbctype.obj
 0001:0002a2e8       _setmbcp_nolock            000000018002b2e8 f   libucrt:mbctype.obj
 0001:0002a61c       _ismbblead                 000000018002b61c f   libucrt:ismbbyte.obj
 0001:0002a630       __acrt_initialize_command_line 000000018002b630 f   libucrt:argv_data.obj
 0001:0002a658       __acrt_MultiByteToWideChar 000000018002b658 f   libucrt:multibytetowidechar.obj
 0001:0002a6b4       __acrt_WideCharToMultiByte 000000018002b6b4 f   libucrt:widechartomultibyte.obj
 0001:0002a74c       __dcrt_get_narrow_environment_from_os 000000018002b74c f   libucrt:get_environment_from_os.obj
 0001:0002a850       _recalloc_base             000000018002b850 f   libucrt:recalloc.obj
 0001:0002aac0       __acrt_AppPolicyGetProcessTerminationMethodInternal 000000018002bac0 f   libucrt:winapi_thunks.obj
 0001:0002ab10       __acrt_AreFileApisANSI     000000018002bb10 f   libucrt:winapi_thunks.obj
 0001:0002ab4c       __acrt_FlsAlloc            000000018002bb4c f   libucrt:winapi_thunks.obj
 0001:0002ab94       __acrt_FlsFree             000000018002bb94 f   libucrt:winapi_thunks.obj
 0001:0002abdc       __acrt_FlsGetValue         000000018002bbdc f   libucrt:winapi_thunks.obj
 0001:0002ac24       __acrt_FlsSetValue         000000018002bc24 f   libucrt:winapi_thunks.obj
 0001:0002ac78       __acrt_InitializeCriticalSectionEx 000000018002bc78 f   libucrt:winapi_thunks.obj
 0001:0002acdc       __acrt_LCMapStringEx       000000018002bcdc f   libucrt:winapi_thunks.obj
 0001:0002adb8       __acrt_LocaleNameToLCID    000000018002bdb8 f   libucrt:winapi_thunks.obj
 0001:0002ae08       __acrt_initialize_winapi_thunks 000000018002be08 f   libucrt:winapi_thunks.obj
 0001:0002ae3c       __acrt_uninitialize_winapi_thunks 000000018002be3c f   libucrt:winapi_thunks.obj
 0001:0002ae80       __acrt_initialize_heap     000000018002be80 f   libucrt:heap_handle.obj
 0001:0002ae9c       __acrt_uninitialize_heap   000000018002be9c f   libucrt:heap_handle.obj
 0001:0002b0a4       __acrt_initialize_lowio    000000018002c0a4 f   libucrt:ioinit.obj
 0001:0002b0e0       __acrt_uninitialize_lowio  000000018002c0e0 f   libucrt:ioinit.obj
 0001:0002b120       __acrt_execute_initializers 000000018002c120 f   libucrt:shared_initialization.obj
 0001:0002b1a0       __acrt_execute_uninitializers 000000018002c1a0 f   libucrt:shared_initialization.obj
 0001:0002b224       __acrt_get_sigabrt_handler 000000018002c224 f   libucrt:signal.obj
 0001:0002b254       __acrt_initialize_signal_handlers 000000018002c254 f   libucrt:signal.obj
 0001:0002b274       raise                      000000018002c274 f   libucrt:signal.obj
 0001:0002b4e0       __acrt_has_user_matherr    000000018002c4e0 f   libucrt:matherr.obj
 0001:0002b500       __acrt_initialize_user_matherr 000000018002c500 f   libucrt:matherr.obj
 0001:0002b508       __acrt_invoke_user_matherr 000000018002c508 f   libucrt:matherr.obj
 0001:0002b714       __acrt_stdio_flush_nolock  000000018002c714 f   libucrt:fflush.obj
 0001:0002b790       _fflush_nolock             000000018002c790 f   libucrt:fflush.obj
 0001:0002b7dc       _flushall                  000000018002c7dc f   libucrt:fflush.obj
 0001:0002b7e4       __acrt_initialize_stdio    000000018002c7e4 f   libucrt:_file.obj
 0001:0002b904       __acrt_uninitialize_stdio  000000018002c904 f   libucrt:_file.obj
 0001:0002b960       _lock_file                 000000018002c960 f   libucrt:_file.obj
 0001:0002b96c       _unlock_file               000000018002c96c f   libucrt:_file.obj
 0001:0002b978       _mbtowc_l                  000000018002c978 f   libucrt:mbtowc.obj
 0001:0002baf4       mbtowc                     000000018002caf4 f   libucrt:mbtowc.obj
 0001:0002bafc       _fileno                    000000018002cafc f   libucrt:fileno.obj
 0001:0002bb24       __pctype_func              000000018002cb24 f   libucrt:ctype.obj
 0001:0002bb54       __acrt_add_locale_ref      000000018002cb54 f   libucrt:locale_refcounting.obj
 0001:0002bbe0       __acrt_free_locale         000000018002cbe0 f   libucrt:locale_refcounting.obj
 0001:0002bd58       __acrt_locale_add_lc_time_reference 000000018002cd58 f   libucrt:locale_refcounting.obj
 0001:0002bd80       __acrt_locale_free_lc_time_if_unreferenced 000000018002cd80 f   libucrt:locale_refcounting.obj
 0001:0002bdb8       __acrt_locale_release_lc_time_reference 000000018002cdb8 f   libucrt:locale_refcounting.obj
 0001:0002bde0       __acrt_release_locale_ref  000000018002cde0 f   libucrt:locale_refcounting.obj
 0001:0002be88       __acrt_update_thread_locale_data 000000018002ce88 f   libucrt:locale_refcounting.obj
 0001:0002bef8       _updatetlocinfoEx_nolock   000000018002cef8 f   libucrt:locale_refcounting.obj
 0001:0002bf60       _isleadbyte_l              000000018002cf60 f i libucrt:_wctype.obj
 0001:0002c2c4       __acrt_LCMapStringA        000000018002d2c4 f   libucrt:lcmapstringa.obj
 0001:0002c35c       __acrt_locale_free_monetary 000000018002d35c f   libucrt:initmon.obj
 0001:0002c468       __acrt_locale_free_numeric 000000018002d468 f   libucrt:initnum.obj
 0001:0002c52c       __acrt_locale_free_time    000000018002d52c f   libucrt:inittime.obj
 0001:0002c634       __acrt_GetStringTypeA      000000018002d634 f   libucrt:getstringtypea.obj
 0001:0002c7c4       _query_new_mode            000000018002d7c4 f   libucrt:new_mode.obj
 0001:0002c7d0       qsort                      000000018002d7d0 f   libucrt:qsort.obj
 0001:0002cb90       strncpy_s                  000000018002db90 f   libucrt:strncpy_s.obj
 0001:0002cd10       strpbrk                    000000018002dd10 f   libucrt:strpbrk.obj
 0001:0002d0f0       _mbsdec                    000000018002e0f0 f   libucrt:mbsdec.obj
 0001:0002d0f8       _mbsdec_l                  000000018002e0f8 f   libucrt:mbsdec.obj
 0001:0002d1a4       _msize_base                000000018002e1a4 f   libucrt:msize.obj
 0001:0002d1e0       _realloc_base              000000018002e1e0 f   libucrt:realloc_base.obj
 0001:0002d344       __acrt_DownlevelLocaleNameToLCID 000000018002e344 f   libucrt:lcidtoname_downlevel.obj
 0001:0002d378       __acrt_lowio_create_handle_array 000000018002e378 f   libucrt:osfinfo.obj
 0001:0002d420       __acrt_lowio_destroy_handle_array 000000018002e420 f   libucrt:osfinfo.obj
 0001:0002d470       __acrt_lowio_ensure_fh_exists 000000018002e470 f   libucrt:osfinfo.obj
 0001:0002d518       __acrt_lowio_lock_fh       000000018002e518 f   libucrt:osfinfo.obj
 0001:0002d540       __acrt_lowio_unlock_fh     000000018002e540 f   libucrt:osfinfo.obj
 0001:0002d568       _free_osfhnd               000000018002e568 f   libucrt:osfinfo.obj
 0001:0002d624       _get_osfhandle             000000018002e624 f   libucrt:osfinfo.obj
 0001:0002d728       _commit                    000000018002e728 f   libucrt:commit.obj
 0001:0002e028       _write                     000000018002f028 f   libucrt:write.obj
 0001:0002e114       _write_nolock              000000018002f114 f   libucrt:write.obj
 0001:0002e3f0       _fcloseall                 000000018002f3f0 f   libucrt:closeall.obj
 0001:0002e4a4       __acrt_stdio_free_buffer_nolock 000000018002f4a4 f   libucrt:_freebuf.obj
 0001:0002e4e4       _isatty                    000000018002f4e4 f   libucrt:isatty.obj
 0001:0002e544       ?__mbrtowc_utf8@__crt_mbstring@@YA_KPEA_WPEBD_KPEAU_Mbstatet@@@Z 000000018002f544 f   libucrt:mbrtowc.obj
 0001:0002e580       ?__mbsrtowcs_utf8@__crt_mbstring@@YA_KPEA_WPEAPEBD_KPEAU_Mbstatet@@@Z 000000018002f580 f   libucrt:mbrtowc.obj
 0001:0002e6f8       __strncnt                  000000018002f6f8 f   libucrt:strncnt.obj
 0001:0002e710       _query_app_type            000000018002f710 f   libucrt:report_runtime_error.obj
 0001:0002e7b4       _lseeki64_nolock           000000018002f7b4 f   libucrt:lseek.obj
 0001:0002e7bc       _putwch_nolock             000000018002f7bc f   libucrt:putwch.obj
 0001:0002e7f8       _fclose_nolock             000000018002f7f8 f   libucrt:fclose.obj
 0001:0002e87c       fclose                     000000018002f87c f   libucrt:fclose.obj
 0001:0002e8e0       ?__mbrtoc32_utf8@__crt_mbstring@@YA_KPEA_UPEBD_KPEAU_Mbstatet@@@Z 000000018002f8e0 f   libucrt:mbrtoc32.obj
 0001:0002eac0       log10                      000000018002fac0 f   libucrt:log10.obj
 0001:0002f06c       __dcrt_lowio_ensure_console_output_initialized 000000018003006c f   libucrt:initcon.obj
 0001:0002f0c0       __dcrt_terminate_console_output 00000001800300c0 f   libucrt:initcon.obj
 0001:0002f0dc       __dcrt_write_console       00000001800300dc f   libucrt:initcon.obj
 0001:0002f210       _close                     0000000180030210 f   libucrt:close.obj
 0001:0002f2b4       _close_nolock              00000001800302b4 f   libucrt:close.obj
 0001:0002f374       ?__acrt_stdio_free_stream@@YAXV__crt_stdio_stream@@@Z 0000000180030374 f   libucrt:stream.obj
 0001:0002f4b4       _handle_error              00000001800304b4 f   libucrt:libm_error.obj
 0001:0002f5e0       __acrt_initialize_fma3     00000001800305e0 f   libucrt:fma3_available.obj
 0001:0002f650       _log10_special             0000000180030650 f   libucrt:log_special.obj
 0001:0002f720       _get_fpsr                  0000000180030720 f   libucrt:fpsr.obj
 0001:0002f730       _set_fpsr                  0000000180030730 f   libucrt:fpsr.obj
 0001:0002f73a       _fclrf                     000000018003073a f   libucrt:fpsr.obj
 0001:0002f74e       _frnd                      000000018003074e f   libucrt:fpsr.obj
 0001:0002f770       _raise_exc                 0000000180030770 f   libucrt:fpexcept.obj
 0001:0002f798       _raise_exc_ex              0000000180030798 f   libucrt:fpexcept.obj
 0001:0002faa8       _set_errno_from_matherr    0000000180030aa8 f   libucrt:fpexcept.obj
 0001:0002fad8       _clrfp                     0000000180030ad8 f   libucrt:fpctrl.obj
 0001:0002faf8       _ctrlfp                    0000000180030af8 f   libucrt:fpctrl.obj
 0001:0002fb74       _set_statfp                0000000180030b74 f   libucrt:fpctrl.obj
 0001:0002fb94       _statfp                    0000000180030b94 f   libucrt:fpctrl.obj
 0001:0002fba5       IsProcessorFeaturePresent  0000000180030ba5 f   kernel32:KERNEL32.dll
 0001:0002fbb0       _FindPESection             0000000180030bb0 f   LIBCMT:pesect.obj
 0001:0002fc00       _IsNonwritableInCurrentImage 0000000180030c00 f   LIBCMT:pesect.obj
 0001:0002fc50       _ValidateImageBase         0000000180030c50 f   LIBCMT:pesect.obj
 0001:0002fc90       _alloca_probe              0000000180030c90 f   LIBCMT:chkstk.obj
 0001:0002fc90       __chkstk                   0000000180030c90 f   LIBCMT:chkstk.obj
 0001:0002fd00       memcmp                     0000000180030d00 f   libvcruntime:memcmp.obj
 0001:0002fde0       _guard_dispatch_icall_nop  0000000180030de0 f   LIBCMT:guard_dispatch.obj
 0002:00000000       __imp_WriteConsoleW        0000000180032000     kernel32:KERNEL32.dll
 0002:00000008       __imp_CloseHandle          0000000180032008     kernel32:KERNEL32.dll
 0002:00000010       __imp_CreateFileW          0000000180032010     kernel32:KERNEL32.dll
 0002:00000018       __imp_SetFilePointerEx     0000000180032018     kernel32:KERNEL32.dll
 0002:00000020       __imp_GetConsoleMode       0000000180032020     kernel32:KERNEL32.dll
 0002:00000028       __imp_GetConsoleCP         0000000180032028     kernel32:KERNEL32.dll
 0002:00000030       __imp_WriteFile            0000000180032030     kernel32:KERNEL32.dll
 0002:00000038       __imp_FlushFileBuffers     0000000180032038     kernel32:KERNEL32.dll
 0002:00000040       __imp_SetStdHandle         0000000180032040     kernel32:KERNEL32.dll
 0002:00000048       __imp_HeapReAlloc          0000000180032048     kernel32:KERNEL32.dll
 0002:00000050       __imp_HeapSize             0000000180032050     kernel32:KERNEL32.dll
 0002:00000058       __imp_GetStringTypeW       0000000180032058     kernel32:KERNEL32.dll
 0002:00000060       __imp_GetFileType          0000000180032060     kernel32:KERNEL32.dll
 0002:00000068       __imp_GetStdHandle         0000000180032068     kernel32:KERNEL32.dll
 0002:00000070       __imp_GetProcessHeap       0000000180032070     kernel32:KERNEL32.dll
 0002:00000078       __imp_LCMapStringW         0000000180032078     kernel32:KERNEL32.dll
 0002:00000080       __imp_FreeEnvironmentStringsW 0000000180032080     kernel32:KERNEL32.dll
 0002:00000088       __imp_GetEnvironmentStringsW 0000000180032088     kernel32:KERNEL32.dll
 0002:00000090       __imp_MultiByteToWideChar  0000000180032090     kernel32:KERNEL32.dll
 0002:00000098       __imp_GetCommandLineW      0000000180032098     kernel32:KERNEL32.dll
 0002:000000a0       __imp_GetCommandLineA      00000001800320a0     kernel32:KERNEL32.dll
 0002:000000a8       __imp_GetCPInfo            00000001800320a8     kernel32:KERNEL32.dll
 0002:000000b0       __imp_GetOEMCP             00000001800320b0     kernel32:KERNEL32.dll
 0002:000000b8       __imp_GetACP               00000001800320b8     kernel32:KERNEL32.dll
 0002:000000c0       __imp_IsValidCodePage      00000001800320c0     kernel32:KERNEL32.dll
 0002:000000c8       __imp_FindNextFileW        00000001800320c8     kernel32:KERNEL32.dll
 0002:000000d0       __imp_FindFirstFileExW     00000001800320d0     kernel32:KERNEL32.dll
 0002:000000d8       __imp_FindClose            00000001800320d8     kernel32:KERNEL32.dll
 0002:000000e0       __imp_HeapFree             00000001800320e0     kernel32:KERNEL32.dll
 0002:000000e8       __imp_HeapAlloc            00000001800320e8     kernel32:KERNEL32.dll
 0002:000000f0       __imp_GetModuleFileNameW   00000001800320f0     kernel32:KERNEL32.dll
 0002:000000f8       __imp_GetModuleHandleExW   00000001800320f8     kernel32:KERNEL32.dll
 0002:00000100       __imp_ExitProcess          0000000180032100     kernel32:KERNEL32.dll
 0002:00000108       __imp_LoadLibraryExW       0000000180032108     kernel32:KERNEL32.dll
 0002:00000110       __imp_FreeLibrary          0000000180032110     kernel32:KERNEL32.dll
 0002:00000118       __imp_DeleteCriticalSection 0000000180032118     kernel32:KERNEL32.dll
 0002:00000120       __imp_LeaveCriticalSection 0000000180032120     kernel32:KERNEL32.dll
 0002:00000128       __imp_EnterCriticalSection 0000000180032128     kernel32:KERNEL32.dll
 0002:00000130       __imp_EncodePointer        0000000180032130     kernel32:KERNEL32.dll
 0002:00000138       __imp_InterlockedFlushSList 0000000180032138     kernel32:KERNEL32.dll
 0002:00000140       __imp_RaiseException       0000000180032140     kernel32:KERNEL32.dll
 0002:00000148       __imp_RtlPcToFileHeader    0000000180032148     kernel32:KERNEL32.dll
 0002:00000150       __imp_RtlUnwindEx          0000000180032150     kernel32:KERNEL32.dll
 0002:00000158       __imp_GetStartupInfoW      0000000180032158     kernel32:KERNEL32.dll
 0002:00000160       __imp_IsDebuggerPresent    0000000180032160     kernel32:KERNEL32.dll
 0002:00000168       __imp_InitializeSListHead  0000000180032168     kernel32:KERNEL32.dll
 0002:00000170       __imp_GetCurrentThreadId   0000000180032170     kernel32:KERNEL32.dll
 0002:00000178       __imp_GetCurrentProcessId  0000000180032178     kernel32:KERNEL32.dll
 0002:00000180       __imp_QueryPerformanceCounter 0000000180032180     kernel32:KERNEL32.dll
 0002:00000188       __imp_IsProcessorFeaturePresent 0000000180032188     kernel32:KERNEL32.dll
 0002:00000190       __imp_TerminateProcess     0000000180032190     kernel32:KERNEL32.dll
 0002:00000198       __imp_GetCurrentProcess    0000000180032198     kernel32:KERNEL32.dll
 0002:000001a0       __imp_SetUnhandledExceptionFilter 00000001800321a0     kernel32:KERNEL32.dll
 0002:000001a8       __imp_UnhandledExceptionFilter 00000001800321a8     kernel32:KERNEL32.dll
 0002:000001b0       __imp_RtlVirtualUnwind     00000001800321b0     kernel32:KERNEL32.dll
 0002:000001b8       __imp_RtlLookupFunctionEntry 00000001800321b8     kernel32:KERNEL32.dll
 0002:000001c0       __imp_RtlCaptureContext    00000001800321c0     kernel32:KERNEL32.dll
 0002:000001c8       __imp_GetProcAddress       00000001800321c8     kernel32:KERNEL32.dll
 0002:000001d0       __imp_GetModuleHandleW     00000001800321d0     kernel32:KERNEL32.dll
 0002:000001d8       __imp_GetSystemTimeAsFileTime 00000001800321d8     kernel32:KERNEL32.dll
 0002:000001e0       __imp_TlsFree              00000001800321e0     kernel32:KERNEL32.dll
 0002:000001e8       __imp_TlsSetValue          00000001800321e8     kernel32:KERNEL32.dll
 0002:000001f0       __imp_TlsGetValue          00000001800321f0     kernel32:KERNEL32.dll
 0002:000001f8       __imp_TlsAlloc             00000001800321f8     kernel32:KERNEL32.dll
 0002:00000200       __imp_SwitchToThread       0000000180032200     kernel32:KERNEL32.dll
 0002:00000208       __imp_InitializeCriticalSectionAndSpinCount 0000000180032208     kernel32:KERNEL32.dll
 0002:00000210       __imp_SetLastError         0000000180032210     kernel32:KERNEL32.dll
 0002:00000218       __imp_WideCharToMultiByte  0000000180032218     kernel32:KERNEL32.dll
 0002:00000220       __imp_GetLastError         0000000180032220     kernel32:KERNEL32.dll
 0002:00000228       \177KERNEL32_NULL_THUNK_DATA 0000000180032228     kernel32:KERNEL32.dll
 0002:00000230       __imp_vips__filename_split8 0000000180032230     libvips:desubs00711.o
 0002:00000238       __imp_vips_area_unref      0000000180032238     libvips:desubs00890.o
 0002:00000240       __imp_vips_array_double_get_type 0000000180032240     libvips:desubs00904.o
 0002:00000248       __imp_vips_array_image_get_type 0000000180032248     libvips:desubs00910.o
 0002:00000250       __imp_vips_array_int_get_type 0000000180032250     libvips:desubs00915.o
 0002:00000258       __imp_vips_blob_get_type   0000000180032258     libvips:desubs00961.o
 0002:00000260       __imp_vips_blob_new        0000000180032260     libvips:desubs00962.o
 0002:00000268       __imp_vips_cache_operation_buildp 0000000180032268     libvips:desubs01015.o
 0002:00000270       __imp_vips_enum_from_nick  0000000180032270     libvips:desubs01230.o
 0002:00000278       __imp_vips_error_buffer    0000000180032278     libvips:desubs01240.o
 0002:00000280       __imp_vips_error_clear     0000000180032280     libvips:desubs01242.o
 0002:00000288       __imp_vips_foreign_find_load 0000000180032288     libvips:desubs01289.o
 0002:00000290       __imp_vips_foreign_find_load_buffer 0000000180032290     libvips:desubs01290.o
 0002:00000298       __imp_vips_foreign_find_load_source 0000000180032298     libvips:desubs01291.o
 0002:000002a0       __imp_vips_foreign_find_save 00000001800322a0     libvips:desubs01292.o
 0002:000002a8       __imp_vips_foreign_find_save_buffer 00000001800322a8     libvips:desubs01293.o
 0002:000002b0       __imp_vips_foreign_find_save_target 00000001800322b0     libvips:desubs01294.o
 0002:000002b8       __imp_vips_format_sizeof_unsafe 00000001800322b8     libvips:desubs01390.o
 0002:000002c0       __imp_vips_image_copy_memory 00000001800322c0     libvips:desubs01487.o
 0002:000002c8       __imp_vips_image_get_array_int 00000001800322c8     libvips:desubs01495.o
 0002:000002d0       __imp_vips_image_get_bands 00000001800322d0     libvips:desubs01497.o
 0002:000002d8       __imp_vips_image_get_blob  00000001800322d8     libvips:desubs01498.o
 0002:000002e0       __imp_vips_image_get_coding 00000001800322e0     libvips:desubs01499.o
 0002:000002e8       __imp_vips_image_get_data  00000001800322e8     libvips:desubs01500.o
 0002:000002f0       __imp_vips_image_get_double 00000001800322f0     libvips:desubs01501.o
 0002:000002f8       __imp_vips_image_get_filename 00000001800322f8     libvips:desubs01503.o
 0002:00000300       __imp_vips_image_get_format 0000000180032300     libvips:desubs01504.o
 0002:00000308       __imp_vips_image_get_height 0000000180032308     libvips:desubs01505.o
 0002:00000310       __imp_vips_image_get_int   0000000180032310     libvips:desubs01508.o
 0002:00000318       __imp_vips_image_get_interpretation 0000000180032318     libvips:desubs01509.o
 0002:00000320       __imp_vips_image_get_string 0000000180032320     libvips:desubs01515.o
 0002:00000328       __imp_vips_image_get_type  0000000180032328     libvips:desubs01516.o
 0002:00000330       __imp_vips_image_get_typeof 0000000180032330     libvips:desubs01517.o
 0002:00000338       __imp_vips_image_get_width 0000000180032338     libvips:desubs01518.o
 0002:00000340       __imp_vips_image_get_xoffset 0000000180032340     libvips:desubs01519.o
 0002:00000348       __imp_vips_image_get_xres  0000000180032348     libvips:desubs01520.o
 0002:00000350       __imp_vips_image_get_yoffset 0000000180032350     libvips:desubs01521.o
 0002:00000358       __imp_vips_image_get_yres  0000000180032358     libvips:desubs01522.o
 0002:00000360       __imp_vips_image_guess_interpretation 0000000180032360     libvips:desubs01524.o
 0002:00000368       __imp_vips_image_hasalpha  0000000180032368     libvips:desubs01525.o
 0002:00000370       __imp_vips_image_new_from_image 0000000180032370     libvips:desubs01547.o
 0002:00000378       __imp_vips_image_new_from_memory 0000000180032378     libvips:desubs01549.o
 0002:00000380       __imp_vips_image_new_matrix 0000000180032380     libvips:desubs01552.o
 0002:00000388       __imp_vips_image_new_matrix_from_array 0000000180032388     libvips:desubs01553.o
 0002:00000390       __imp_vips_image_new_memory 0000000180032390     libvips:desubs01555.o
 0002:00000398       __imp_vips_image_new_temp_file 0000000180032398     libvips:desubs01557.o
 0002:000003a0       __imp_vips_image_remove    00000001800323a0     libvips:desubs01567.o
 0002:000003a8       __imp_vips_image_set_array_int 00000001800323a8     libvips:desubs01570.o
 0002:000003b0       __imp_vips_image_set_blob  00000001800323b0     libvips:desubs01571.o
 0002:000003b8       __imp_vips_image_set_double 00000001800323b8     libvips:desubs01574.o
 0002:000003c0       __imp_vips_image_set_int   00000001800323c0     libvips:desubs01576.o
 0002:000003c8       __imp_vips_image_set_string 00000001800323c8     libvips:desubs01579.o
 0002:000003d0       __imp_vips_image_write     00000001800323d0     libvips:desubs01583.o
 0002:000003d8       __imp_vips_image_write_to_memory 00000001800323d8     libvips:desubs01588.o
 0002:000003e0       __imp_vips_interpolate_get_type 00000001800323e0     libvips:desubs01604.o
 0002:000003e8       __imp_vips_interpolate_new 00000001800323e8     libvips:desubs01611.o
 0002:000003f0       __imp_vips_object_get_argument 00000001800323f0     libvips:desubs01742.o
 0002:000003f8       __imp_vips_object_get_type 00000001800323f8     libvips:desubs01748.o
 0002:00000400       __imp_vips_object_set_from_string 0000000180032400     libvips:desubs01765.o
 0002:00000408       __imp_vips_object_unref_outputs 0000000180032408     libvips:desubs01772.o
 0002:00000410       __imp_vips_operation_new   0000000180032410     libvips:desubs01787.o
 0002:00000418       __imp_vips_source_get_type 0000000180032418     libvips:desubs02007.o
 0002:00000420       __imp_vips_source_new_from_blob 0000000180032420     libvips:desubs02013.o
 0002:00000428       __imp_vips_source_new_from_descriptor 0000000180032428     libvips:desubs02014.o
 0002:00000430       __imp_vips_source_new_from_file 0000000180032430     libvips:desubs02015.o
 0002:00000438       __imp_vips_source_new_from_memory 0000000180032438     libvips:desubs02016.o
 0002:00000440       __imp_vips_source_new_from_options 0000000180032440     libvips:desubs02017.o
 0002:00000448       __imp_vips_target_get_type 0000000180032448     libvips:desubs02057.o
 0002:00000450       __imp_vips_target_new_to_descriptor 0000000180032450     libvips:desubs02058.o
 0002:00000458       __imp_vips_target_new_to_file 0000000180032458     libvips:desubs02059.o
 0002:00000460       __imp_vips_target_new_to_memory 0000000180032460     libvips:desubs02060.o
 0002:00000468       __imp_vips_value_get_array_double 0000000180032468     libvips:desubs02120.o
 0002:00000470       __imp_vips_value_get_array_image 0000000180032470     libvips:desubs02121.o
 0002:00000478       __imp_vips_value_get_array_int 0000000180032478     libvips:desubs02122.o
 0002:00000480       __imp_vips_value_set_array_double 0000000180032480     libvips:desubs02130.o
 0002:00000488       __imp_vips_value_set_array_image 0000000180032488     libvips:desubs02131.o
 0002:00000490       __imp_vips_value_set_array_int 0000000180032490     libvips:desubs02132.o
 0002:000004a0       __imp_g_assertion_message_expr 00000001800324a0     libglib-2.0:dnoubs00046.o
 0002:000004a8       __imp_g_log                00000001800324a8     libglib-2.0:dnoubs00662.o
 0002:000004b8       __imp_g_object_get_property 00000001800324b8     libgobject-2.0:dxoubs00129.o
 0002:000004c0       __imp_g_object_ref         00000001800324c0     libgobject-2.0:dxoubs00144.o
 0002:000004c8       __imp_g_object_set_property 00000001800324c8     libgobject-2.0:dxoubs00154.o
 0002:000004d0       __imp_g_object_unref       00000001800324d0     libgobject-2.0:dxoubs00162.o
 0002:000004d8       __imp_g_param_spec_types   00000001800324d8     libgobject-2.0:dxoubs00203.o
 0002:000004e0       __imp_g_type_check_instance_cast 00000001800324e0     libgobject-2.0:dxoubs00278.o
 0002:000004e8       __imp_g_type_check_instance_is_a 00000001800324e8     libgobject-2.0:dxoubs00279.o
 0002:000004f0       __imp_g_value_dup_boxed    00000001800324f0     libgobject-2.0:dxoubs00363.o
 0002:000004f8       __imp_g_value_get_boolean  00000001800324f8     libgobject-2.0:dxoubs00369.o
 0002:00000500       __imp_g_value_get_double   0000000180032500     libgobject-2.0:dxoubs00372.o
 0002:00000508       __imp_g_value_get_int      0000000180032508     libgobject-2.0:dxoubs00377.o
 0002:00000510       __imp_g_value_get_object   0000000180032510     libgobject-2.0:dxoubs00380.o
 0002:00000518       __imp_g_value_get_string   0000000180032518     libgobject-2.0:dxoubs00384.o
 0002:00000520       __imp_g_value_init         0000000180032520     libgobject-2.0:dxoubs00391.o
 0002:00000528       __imp_g_value_set_boolean  0000000180032528     libgobject-2.0:dxoubs00396.o
 0002:00000530       __imp_g_value_set_boxed    0000000180032530     libgobject-2.0:dxoubs00397.o
 0002:00000538       __imp_g_value_set_double   0000000180032538     libgobject-2.0:dxoubs00400.o
 0002:00000540       __imp_g_value_set_enum     0000000180032540     libgobject-2.0:dxoubs00401.o
 0002:00000548       __imp_g_value_set_int      0000000180032548     libgobject-2.0:dxoubs00406.o
 0002:00000550       __imp_g_value_set_object   0000000180032550     libgobject-2.0:dxoubs00409.o
 0002:00000558       __imp_g_value_set_string   0000000180032558     libgobject-2.0:dxoubs00417.o
 0002:00000560       __imp_g_value_unset        0000000180032560     libgobject-2.0:dxoubs00432.o
 0002:00000570       __guard_check_icall_fptr   0000000180032570     LIBCMT:guard_support.obj
 0002:00000578       __guard_dispatch_icall_fptr 0000000180032578     LIBCMT:guard_support.obj
 0002:00000580       __xc_a                     0000000180032580     LIBCMT:initializers.obj
 0002:00000588       __xc_z                     0000000180032588     LIBCMT:initializers.obj
 0002:00000590       __xi_a                     0000000180032590     LIBCMT:initializers.obj
 0002:000005a0       __acrt_multibyte_initializer 00000001800325a0     libucrt:multibyte_initializer.obj
 0002:000005a8       __acrt_stdio_initializer   00000001800325a8     libucrt:stdio_initializer.obj
 0002:000005b0       __acrt_tran_fma3_initializer 00000001800325b0     libucrt:fma3_initializer.obj
 0002:000005b8       __xi_z                     00000001800325b8     LIBCMT:initializers.obj
 0002:000005c0       __xp_a                     00000001800325c0     LIBCMT:initializers.obj
 0002:000005c8       __acrt_locale_terminator   00000001800325c8     libucrt:locale_initializer.obj
 0002:000005d0       __dcrt_console_output_terminator 00000001800325d0     libucrt:console_output_initializer.obj
 0002:000005d8       __acrt_stdio_terminator    00000001800325d8     libucrt:stdio_initializer.obj
 0002:000005e0       __xp_z                     00000001800325e0     LIBCMT:initializers.obj
 0002:000005e8       __xt_a                     00000001800325e8     LIBCMT:initializers.obj
 0002:000005f0       __xt_z                     00000001800325f0     LIBCMT:initializers.obj
 0002:00000608       ??_7exception@std@@6B@     0000000180032608     libcpmt:xonce.obj
 0002:00000618       ??_C@_0BC@EOODALEL@Unknown?5exception@ 0000000180032618     libcpmt:xonce.obj
 0002:00000638       ??_7runtime_error@std@@6B@ 0000000180032638     libcpmt:xonce.obj
 0002:00000650       ??_7_System_error@std@@6B@ 0000000180032650     libcpmt:xonce.obj
 0002:00000660       ??_C@_0O@BFJCFAAK@unknown?5error@ 0000000180032660     libcpmt:xonce.obj
 0002:00000678       ??_7bad_alloc@std@@6B@     0000000180032678     libcpmt:xthrow.obj
 0002:00000688       ??_C@_0P@GHFPNOJB@bad?5allocation@ 0000000180032688     libcpmt:xthrow.obj
 0002:000006a0       ??_7logic_error@std@@6B@   00000001800326a0     libcpmt:xthrow.obj
 0002:000006b8       ??_7length_error@std@@6B@  00000001800326b8     libcpmt:xthrow.obj
 0002:00000e20       ??_C@_0BN@LKKBCCDB@address?5family?5not?5supported@ 0000000180032e20     libcpmt:syserror.obj
 0002:00000e40       ??_C@_0P@LDMLAFHI@address?5in?5use@ 0000000180032e40     libcpmt:syserror.obj
 0002:00000e50       ??_C@_0BG@DHPCNBJB@address?5not?5available@ 0000000180032e50     libcpmt:syserror.obj
 0002:00000e68       ??_C@_0BC@DFIBIBIL@already?5connected@ 0000000180032e68     libcpmt:syserror.obj
 0002:00000e80       ??_C@_0BH@CAKOHOMI@argument?5list?5too?5long@ 0000000180032e80     libcpmt:syserror.obj
 0002:00000e98       ??_C@_0BH@CGIMPKIM@argument?5out?5of?5domain@ 0000000180032e98     libcpmt:syserror.obj
 0002:00000eb0       ??_C@_0M@KGHGGJGL@bad?5address@ 0000000180032eb0     libcpmt:syserror.obj
 0002:00000ec0       ??_C@_0BE@MPJPGCEO@bad?5file?5descriptor@ 0000000180032ec0     libcpmt:syserror.obj
 0002:00000ed8       ??_C@_0M@PMMIEFCP@bad?5message@ 0000000180032ed8     libcpmt:syserror.obj
 0002:00000ee8       ??_C@_0M@KPHOFDBE@broken?5pipe@ 0000000180032ee8     libcpmt:syserror.obj
 0002:00000ef8       ??_C@_0BD@MGNDDEGM@connection?5aborted@ 0000000180032ef8     libcpmt:syserror.obj
 0002:00000f10       ??_C@_0BP@KAIHPOGN@connection?5already?5in?5progress@ 0000000180032f10     libcpmt:syserror.obj
 0002:00000f30       ??_C@_0BD@PJLIIJEL@connection?5refused@ 0000000180032f30     libcpmt:syserror.obj
 0002:00000f48       ??_C@_0BB@IECNJNOI@connection?5reset@ 0000000180032f48     libcpmt:syserror.obj
 0002:00000f60       ??_C@_0BC@PPHBOELF@cross?5device?5link@ 0000000180032f60     libcpmt:syserror.obj
 0002:00000f78       ??_C@_0BN@KDMIFEIP@destination?5address?5required@ 0000000180032f78     libcpmt:syserror.obj
 0002:00000f98       ??_C@_0BI@NGCEHDD@device?5or?5resource?5busy@ 0000000180032f98     libcpmt:syserror.obj
 0002:00000fb0       ??_C@_0BE@JIDOCPHM@directory?5not?5empty@ 0000000180032fb0     libcpmt:syserror.obj
 0002:00000fc8       ??_C@_0BI@BNCLIGPB@executable?5format?5error@ 0000000180032fc8     libcpmt:syserror.obj
 0002:00000fe0       ??_C@_0M@MIDIAGJP@file?5exists@ 0000000180032fe0     libcpmt:syserror.obj
 0002:00000ff0       ??_C@_0P@DNAJLBJK@file?5too?5large@ 0000000180032ff0     libcpmt:syserror.obj
 0002:00001000       ??_C@_0BC@EJHOMAAK@filename?5too?5long@ 0000000180033000     libcpmt:syserror.obj
 0002:00001018       ??_C@_0BH@KEFGLDAF@function?5not?5supported@ 0000000180033018     libcpmt:syserror.obj
 0002:00001030       ??_C@_0BB@DHFDFGDM@host?5unreachable@ 0000000180033030     libcpmt:syserror.obj
 0002:00001048       ??_C@_0BD@JPHBMONG@identifier?5removed@ 0000000180033048     libcpmt:syserror.obj
 0002:00001060       ??_C@_0BG@CDNPAGJK@illegal?5byte?5sequence@ 0000000180033060     libcpmt:syserror.obj
 0002:00001078       ??_C@_0CD@BNPLBMNA@inappropriate?5io?5control?5operat@ 0000000180033078     libcpmt:syserror.obj
 0002:000010a0       ??_C@_0M@EGEKIIMP@interrupted@ 00000001800330a0     libcpmt:syserror.obj
 0002:000010b0       ??_C@_0BB@FCMFBGOM@invalid?5argument@ 00000001800330b0     libcpmt:syserror.obj
 0002:000010c8       ??_C@_0N@OHAFKDEK@invalid?5seek@ 00000001800330c8     libcpmt:syserror.obj
 0002:000010d8       ??_C@_08GLNPIFBN@io?5error@ 00000001800330d8     libcpmt:syserror.obj
 0002:000010e8       ??_C@_0P@FLLDBIDK@is?5a?5directory@ 00000001800330e8     libcpmt:syserror.obj
 0002:000010f8       ??_C@_0N@IFLPBIOP@message?5size@ 00000001800330f8     libcpmt:syserror.obj
 0002:00001108       ??_C@_0N@KIIEAAIO@network?5down@ 0000000180033108     libcpmt:syserror.obj
 0002:00001118       ??_C@_0O@FNPDBHEE@network?5reset@ 0000000180033118     libcpmt:syserror.obj
 0002:00001128       ??_C@_0BE@IFNCKGE@network?5unreachable@ 0000000180033128     libcpmt:syserror.obj
 0002:00001140       ??_C@_0BA@PFFCAOFK@no?5buffer?5space@ 0000000180033140     libcpmt:syserror.obj
 0002:00001150       ??_C@_0BB@IEPBLJHK@no?5child?5process@ 0000000180033150     libcpmt:syserror.obj
 0002:00001168       ??_C@_07PLECNNKG@no?5link@ 0000000180033168     libcpmt:syserror.obj
 0002:00001170       ??_C@_0BC@NJECKMKE@no?5lock?5available@ 0000000180033170     libcpmt:syserror.obj
 0002:00001188       ??_C@_0BF@PBGGPKKE@no?5message?5available@ 0000000180033188     libcpmt:syserror.obj
 0002:000011a0       ??_C@_0L@EDOLMPAK@no?5message@ 00000001800331a0     libcpmt:syserror.obj
 0002:000011b0       ??_C@_0BD@EAMBFIDF@no?5protocol?5option@ 00000001800331b0     libcpmt:syserror.obj
 0002:000011c8       ??_C@_0BD@IJDJKDEA@no?5space?5on?5device@ 00000001800331c8     libcpmt:syserror.obj
 0002:000011e0       ??_C@_0BE@MKFDAFMP@no?5stream?5resources@ 00000001800331e0     libcpmt:syserror.obj
 0002:000011f8       ??_C@_0BK@IMCPHCBI@no?5such?5device?5or?5address@ 00000001800331f8     libcpmt:syserror.obj
 0002:00001218       ??_C@_0P@FDINDDOK@no?5such?5device@ 0000000180033218     libcpmt:syserror.obj
 0002:00001228       ??_C@_0BK@NDOCBPGE@no?5such?5file?5or?5directory@ 0000000180033228     libcpmt:syserror.obj
 0002:00001248       ??_C@_0BA@ENLPPKBN@no?5such?5process@ 0000000180033248     libcpmt:syserror.obj
 0002:00001258       ??_C@_0BA@DOCPFFJG@not?5a?5directory@ 0000000180033258     libcpmt:syserror.obj
 0002:00001268       ??_C@_0N@POEIPGGF@not?5a?5socket@ 0000000180033268     libcpmt:syserror.obj
 0002:00001278       ??_C@_0N@LGAPMMPI@not?5a?5stream@ 0000000180033278     libcpmt:syserror.obj
 0002:00001288       ??_C@_0O@GLMIBBEG@not?5connected@ 0000000180033288     libcpmt:syserror.obj
 0002:00001298       ??_C@_0BC@ENOOLCNF@not?5enough?5memory@ 0000000180033298     libcpmt:syserror.obj
 0002:000012b0       ??_C@_0O@NHEDABJP@not?5supported@ 00000001800332b0     libcpmt:syserror.obj
 0002:000012c0       ??_C@_0BD@MOLBPMEA@operation?5canceled@ 00000001800332c0     libcpmt:syserror.obj
 0002:000012d8       ??_C@_0BG@KDKHOPCO@operation?5in?5progress@ 00000001800332d8     libcpmt:syserror.obj
 0002:000012f0       ??_C@_0BI@OHIEJAAB@operation?5not?5permitted@ 00000001800332f0     libcpmt:syserror.obj
 0002:00001308       ??_C@_0BI@LNEGIFLN@operation?5not?5supported@ 0000000180033308     libcpmt:syserror.obj
 0002:00001320       ??_C@_0BG@OEMDKMEE@operation?5would?5block@ 0000000180033320     libcpmt:syserror.obj
 0002:00001338       ??_C@_0L@BLPOFLNJ@owner?5dead@ 0000000180033338     libcpmt:syserror.obj
 0002:00001348       ??_C@_0BC@CIJDGCDI@permission?5denied@ 0000000180033348     libcpmt:syserror.obj
 0002:00001360       ??_C@_0P@FNPOCJBE@protocol?5error@ 0000000180033360     libcpmt:syserror.obj
 0002:00001370       ??_C@_0BH@JPPPLHJB@protocol?5not?5supported@ 0000000180033370     libcpmt:syserror.obj
 0002:00001388       ??_C@_0BG@EICBIHDP@read?5only?5file?5system@ 0000000180033388     libcpmt:syserror.obj
 0002:000013a0       ??_C@_0BO@BJBOMOEJ@resource?5deadlock?5would?5occur@ 00000001800333a0     libcpmt:syserror.obj
 0002:000013c0       ??_C@_0BP@LKNGHENJ@resource?5unavailable?5try?5again@ 00000001800333c0     libcpmt:syserror.obj
 0002:000013e0       ??_C@_0BE@GOIPJJHG@result?5out?5of?5range@ 00000001800333e0     libcpmt:syserror.obj
 0002:000013f8       ??_C@_0BG@MPLKFPAE@state?5not?5recoverable@ 00000001800333f8     libcpmt:syserror.obj
 0002:00001410       ??_C@_0P@DIIFGFCG@stream?5timeout@ 0000000180033410     libcpmt:syserror.obj
 0002:00001420       ??_C@_0P@IPFDMIFL@text?5file?5busy@ 0000000180033420     libcpmt:syserror.obj
 0002:00001430       ??_C@_09KJPPMAOI@timed?5out@ 0000000180033430     libcpmt:syserror.obj
 0002:00001440       ??_C@_0BO@HACHBEKI@too?5many?5files?5open?5in?5system@ 0000000180033440     libcpmt:syserror.obj
 0002:00001460       ??_C@_0BE@GHAFMPAH@too?5many?5files?5open@ 0000000180033460     libcpmt:syserror.obj
 0002:00001478       ??_C@_0P@HCOMKFCC@too?5many?5links@ 0000000180033478     libcpmt:syserror.obj
 0002:00001488       ??_C@_0BO@EFGOJEF@too?5many?5symbolic?5link?5levels@ 0000000180033488     libcpmt:syserror.obj
 0002:000014a8       ??_C@_0BA@KGKGOOJA@value?5too?5large@ 00000001800334a8     libcpmt:syserror.obj
 0002:000014b8       ??_C@_0BE@MIEJDDNH@wrong?5protocol?5type@ 00000001800334b8     libcpmt:syserror.obj
 0002:000014d0       ??_C@_1BK@MGMFAEKH@?$AAk?$AAe?$AAr?$AAn?$AAe?$AAl?$AA3?$AA2?$AA?4?$AAd?$AAl?$AAl@ 00000001800334d0     libcpmt:winapisupp.obj
 0002:000014f0       ??_C@_08KNHFBNJ@FlsAlloc@  00000001800334f0     libcpmt:winapisupp.obj
 0002:00001500       ??_C@_07PEJMOBNF@FlsFree@  0000000180033500     libcpmt:winapisupp.obj
 0002:00001508       ??_C@_0M@GDNOONDI@FlsGetValue@ 0000000180033508     libcpmt:winapisupp.obj
 0002:00001518       ??_C@_0M@JCPCPOEF@FlsSetValue@ 0000000180033518     libcpmt:winapisupp.obj
 0002:00001528       ??_C@_0BM@HCFOFFN@InitializeCriticalSectionEx@ 0000000180033528     libcpmt:winapisupp.obj
 0002:00001548       ??_C@_0BE@GPLMMCMH@InitOnceExecuteOnce@ 0000000180033548     libcpmt:winapisupp.obj
 0002:00001560       ??_C@_0P@DLHPPCNH@CreateEventExW@ 0000000180033560     libcpmt:winapisupp.obj
 0002:00001570       ??_C@_0BB@MEFPJLHN@CreateSemaphoreW@ 0000000180033570     libcpmt:winapisupp.obj
 0002:00001588       ??_C@_0BD@KIEEOEEH@CreateSemaphoreExW@ 0000000180033588     libcpmt:winapisupp.obj
 0002:000015a0       ??_C@_0BG@OGFAJCKC@CreateThreadpoolTimer@ 00000001800335a0     libcpmt:winapisupp.obj
 0002:000015b8       ??_C@_0BD@LPLEMMDI@SetThreadpoolTimer@ 00000001800335b8     libcpmt:winapisupp.obj
 0002:000015d0       ??_C@_0CA@FMNJENH@WaitForThreadpoolTimerCallbacks@ 00000001800335d0     libcpmt:winapisupp.obj
 0002:000015f0       ??_C@_0BF@DCFCCNOC@CloseThreadpoolTimer@ 00000001800335f0     libcpmt:winapisupp.obj
 0002:00001608       ??_C@_0BF@FLABGKKM@CreateThreadpoolWait@ 0000000180033608     libcpmt:winapisupp.obj
 0002:00001620       ??_C@_0BC@MGCOHNA@SetThreadpoolWait@ 0000000180033620     libcpmt:winapisupp.obj
 0002:00001638       ??_C@_0BE@OCIOMIMP@CloseThreadpoolWait@ 0000000180033638     libcpmt:winapisupp.obj
 0002:00001650       ??_C@_0BJ@LKGHFHBO@FlushProcessWriteBuffers@ 0000000180033650     libcpmt:winapisupp.obj
 0002:00001670       ??_C@_0BP@KALKKPMO@FreeLibraryWhenCallbackReturns@ 0000000180033670     libcpmt:winapisupp.obj
 0002:00001690       ??_C@_0BK@DFNBACLA@GetCurrentProcessorNumber@ 0000000180033690     libcpmt:winapisupp.obj
 0002:000016b0       ??_C@_0BE@FKKLLFLM@CreateSymbolicLinkW@ 00000001800336b0     libcpmt:winapisupp.obj
 0002:000016c8       ??_C@_0BE@JOGNEJCI@GetCurrentPackageId@ 00000001800336c8     libcpmt:winapisupp.obj
 0002:000016e0       ??_C@_0P@CDHHOHKP@GetTickCount64@ 00000001800336e0     libcpmt:winapisupp.obj
 0002:000016f0       ??_C@_0BN@NEEHBBPO@GetFileInformationByHandleEx@ 00000001800336f0     libcpmt:winapisupp.obj
 0002:00001710       ??_C@_0BL@KBBHGKCM@SetFileInformationByHandle@ 0000000180033710     libcpmt:winapisupp.obj
 0002:00001730       ??_C@_0BP@FPNJPEJC@GetSystemTimePreciseAsFileTime@ 0000000180033730     libcpmt:winapisupp.obj
 0002:00001750       ??_C@_0BM@HLJJNPAH@InitializeConditionVariable@ 0000000180033750     libcpmt:winapisupp.obj
 0002:00001770       ??_C@_0BG@BFNILBLN@WakeConditionVariable@ 0000000180033770     libcpmt:winapisupp.obj
 0002:00001788       ??_C@_0BJ@PGPPEPCC@WakeAllConditionVariable@ 0000000180033788     libcpmt:winapisupp.obj
 0002:000017a8       ??_C@_0BJ@JEBJOJFJ@SleepConditionVariableCS@ 00000001800337a8     libcpmt:winapisupp.obj
 0002:000017c8       ??_C@_0BC@MMLHEBPB@InitializeSRWLock@ 00000001800337c8     libcpmt:winapisupp.obj
 0002:000017e0       ??_C@_0BI@OMNLIJDB@AcquireSRWLockExclusive@ 00000001800337e0     libcpmt:winapisupp.obj
 0002:000017f8       ??_C@_0BL@OGHFEMNA@TryAcquireSRWLockExclusive@ 00000001800337f8     libcpmt:winapisupp.obj
 0002:00001818       ??_C@_0BI@HMIEPCNJ@ReleaseSRWLockExclusive@ 0000000180033818     libcpmt:winapisupp.obj
 0002:00001830       ??_C@_0BK@LGACAGIC@SleepConditionVariableSRW@ 0000000180033830     libcpmt:winapisupp.obj
 0002:00001850       ??_C@_0BF@GGPHFPJA@CreateThreadpoolWork@ 0000000180033850     libcpmt:winapisupp.obj
 0002:00001868       ??_C@_0BF@NHDAIMMO@SubmitThreadpoolWork@ 0000000180033868     libcpmt:winapisupp.obj
 0002:00001880       ??_C@_0BE@NPHIPNPD@CloseThreadpoolWork@ 0000000180033880     libcpmt:winapisupp.obj
 0002:00001898       ??_C@_0BA@IHGNDAEB@CompareStringEx@ 0000000180033898     libcpmt:winapisupp.obj
 0002:000018a8       ??_C@_0BA@ONOKGCMP@GetLocaleInfoEx@ 00000001800338a8     libcpmt:winapisupp.obj
 0002:000018b8       ??_C@_0O@KKBNKAPF@LCMapStringEx@ 00000001800338b8     libcpmt:winapisupp.obj
 0002:000018d0       ??_7type_info@@6B@         00000001800338d0     LIBCMT:std_type_info_static.obj
 0002:000018d8       _pDefaultRawDllMain        00000001800338d8     LIBCMT:dll_dllmain.obj
 0002:000018d8       _pRawDllMain               00000001800338d8     LIBCMT:dll_dllmain.obj
 0002:000018f8       ??_7bad_array_new_length@std@@6B@ 00000001800338f8     LIBCMT:throw_bad_alloc.obj
 0002:00001908       ??_C@_0BF@KINCDENJ@bad?5array?5new?5length@ 0000000180033908     LIBCMT:throw_bad_alloc.obj
 0002:000019b8       _pDestructExceptionObject  00000001800339b8     libvcruntime:ehhelpers.obj
 0002:00001a08       ??_7bad_exception@std@@6B@ 0000000180033a08     libvcruntime:frame.obj
 0002:00001a18       ??_C@_0O@DPKOEFFH@bad?5exception@ 0000000180033a18     libvcruntime:frame.obj
 0002:00001d68       ??_C@_08EHJDFFNH@__based?$CI@ 0000000180033d68     libvcruntime:undname.obj
 0002:00001d78       ??_C@_07KOLFKCDI@__cdecl@  0000000180033d78     libvcruntime:undname.obj
 0002:00001d80       ??_C@_08GHMPAG@__pascal@   0000000180033d80     libvcruntime:undname.obj
 0002:00001d90       ??_C@_09IFJBGAPI@__stdcall@ 0000000180033d90     libvcruntime:undname.obj
 0002:00001da0       ??_C@_0L@NPHFGOKO@__thiscall@ 0000000180033da0     libvcruntime:undname.obj
 0002:00001db0       ??_C@_0L@JMKHOMEK@__fastcall@ 0000000180033db0     libvcruntime:undname.obj
 0002:00001dc0       ??_C@_0N@BCKKPABJ@__vectorcall@ 0000000180033dc0     libvcruntime:undname.obj
 0002:00001dd0       ??_C@_09HIJEGCPM@__clrcall@ 0000000180033dd0     libvcruntime:undname.obj
 0002:00001ddc       ??_C@_06GHPCKEAG@__eabi@   0000000180033ddc     libvcruntime:undname.obj
 0002:00001de8       ??_C@_09IOPIDJLG@__swift_1@ 0000000180033de8     libvcruntime:undname.obj
 0002:00001df8       ??_C@_09KFNFGKHF@__swift_2@ 0000000180033df8     libvcruntime:undname.obj
 0002:00001e08       ??_C@_07JOMMBBKO@__ptr64@  0000000180033e08     libvcruntime:undname.obj
 0002:00001e10       ??_C@_0L@PILCLIHE@__restrict@ 0000000180033e10     libvcruntime:undname.obj
 0002:00001e20       ??_C@_0M@GFIIJFMG@__unaligned@ 0000000180033e20     libvcruntime:undname.obj
 0002:00001e30       ??_C@_09DHDLOLLB@restrict?$CI@ 0000000180033e30     libvcruntime:undname.obj
 0002:00001e3a       ??_C@_00CNPNBAHC@@         0000000180033e3a     libvcruntime:undname.obj
 0002:00001e3c       ??_C@_04NIHEBCM@?5new@     0000000180033e3c     libvcruntime:undname.obj
 0002:00001e48       ??_C@_07FPCDHGMM@?5delete@ 0000000180033e48     libvcruntime:undname.obj
 0002:00001e50       ??_C@_01NEMOKFLO@?$DN@     0000000180033e50     libvcruntime:undname.obj
 0002:00001e54       ??_C@_02GPIOPFAK@?$DO?$DO@ 0000000180033e54     libvcruntime:undname.obj
 0002:00001e58       ??_C@_02FODMEDOG@?$DM?$DM@ 0000000180033e58     libvcruntime:undname.obj
 0002:00001e5c       ??_C@_01DCLJPIOD@?$CB@     0000000180033e5c     libvcruntime:undname.obj
 0002:00001e60       ??_C@_02EGOFBIJA@?$DN?$DN@ 0000000180033e60     libvcruntime:undname.obj
 0002:00001e64       ??_C@_02FDNJECIE@?$CB?$DN@ 0000000180033e64     libvcruntime:undname.obj
 0002:00001e68       ??_C@_02GPECMEKF@?$FL?$FN@ 0000000180033e68     libvcruntime:undname.obj
 0002:00001e70       ??_C@_08LHJFAFGD@operator@ 0000000180033e70     libvcruntime:undname.obj
 0002:00001e7c       ??_C@_02HBOOOICD@?9?$DO@   0000000180033e7c     libvcruntime:undname.obj
 0002:00001e80       ??_C@_01NBENCBCI@?$CK@     0000000180033e80     libvcruntime:undname.obj
 0002:00001e84       ??_C@_02ECNGHCIF@?$CL?$CL@ 0000000180033e84     libvcruntime:undname.obj
 0002:00001e88       ??_C@_02BAABKJLB@?9?9@     0000000180033e88     libvcruntime:undname.obj
 0002:00001e8c       ??_C@_01JOAMLHOP@?9@       0000000180033e8c     libvcruntime:undname.obj
 0002:00001e90       ??_C@_01MIFGBAGJ@?$CL@     0000000180033e90     libvcruntime:undname.obj
 0002:00001e94       ??_C@_01HNPIGOCE@?$CG@     0000000180033e94     libvcruntime:undname.obj
 0002:00001e98       ??_C@_03MNHNFDLC@?9?$DO?$CK@ 0000000180033e98     libvcruntime:undname.obj
 0002:00001e9c       ??_C@_01KMDKNFGN@?1@       0000000180033e9c     libvcruntime:undname.obj
 0002:00001ea0       ??_C@_01FGNFDNOH@?$CF@     0000000180033ea0     libvcruntime:undname.obj
 0002:00001ea4       ??_C@_01MNNFJEPP@?$DM@     0000000180033ea4     libvcruntime:undname.obj
 0002:00001ea8       ??_C@_02EHCHHCKH@?$DM?$DN@ 0000000180033ea8     libvcruntime:undname.obj
 0002:00001eac       ??_C@_01PPODPGHN@?$DO@     0000000180033eac     libvcruntime:undname.obj
 0002:00001eb0       ??_C@_02EEKDKGMJ@?$DO?$DN@ 0000000180033eb0     libvcruntime:undname.obj
 0002:00001eb4       ??_C@_01IHBHIGKO@?0@       0000000180033eb4     libvcruntime:undname.obj
 0002:00001eb8       ??_C@_02HCKGKOFO@?$CI?$CJ@ 0000000180033eb8     libvcruntime:undname.obj
 0002:00001ebc       ??_C@_01PJKLJHI@?$HO@      0000000180033ebc     libvcruntime:undname.obj
 0002:00001ec0       ??_C@_01JKBOJNNK@?$FO@     0000000180033ec0     libvcruntime:undname.obj
 0002:00001ec4       ??_C@_01DNKMNLPK@?$HM@     0000000180033ec4     libvcruntime:undname.obj
 0002:00001ec8       ??_C@_02PPKAJPJL@?$CG?$CG@ 0000000180033ec8     libvcruntime:undname.obj
 0002:00001ecc       ??_C@_02NONPIBCD@?$HM?$HM@ 0000000180033ecc     libvcruntime:undname.obj
 0002:00001ed0       ??_C@_02FPIMKNGF@?$CK?$DN@ 0000000180033ed0     libvcruntime:undname.obj
 0002:00001ed4       ??_C@_02FOEOMHFC@?$CL?$DN@ 0000000180033ed4     libvcruntime:undname.obj
 0002:00001ed8       ??_C@_02FKMDLLOA@?9?$DN@   0000000180033ed8     libvcruntime:undname.obj
 0002:00001edc       ??_C@_02FJEHGPIO@?1?$DN@   0000000180033edc     libvcruntime:undname.obj
 0002:00001ee0       ??_C@_02FENAOKFI@?$CF?$DN@ 0000000180033ee0     libvcruntime:undname.obj
 0002:00001ee4       ??_C@_03IKFCCPFF@?$DO?$DO?$DN@ 0000000180033ee4     libvcruntime:undname.obj
 0002:00001ee8       ??_C@_03CDNPDDLA@?$DM?$DM?$DN@ 0000000180033ee8     libvcruntime:undname.obj
 0002:00001eec       ??_C@_02FGJGFEAB@?$CG?$DN@ 0000000180033eec     libvcruntime:undname.obj
 0002:00001ef0       ??_C@_02DHLNPPGH@?$HM?$DN@ 0000000180033ef0     libvcruntime:undname.obj
 0002:00001ef4       ??_C@_02MHEGNOJ@?$FO?$DN@  0000000180033ef4     libvcruntime:undname.obj
 0002:00001ef8       ??_C@_09IFPLHPGF@?$GAvftable?8@ 0000000180033ef8     libvcruntime:undname.obj
 0002:00001f08       ??_C@_09BLBHBJP@?$GAvbtable?8@ 0000000180033f08     libvcruntime:undname.obj
 0002:00001f18       ??_C@_07FEEIOKP@?$GAvcall?8@ 0000000180033f18     libvcruntime:undname.obj
 0002:00001f20       ??_C@_08LLFFHHDJ@?$GAtypeof?8@ 0000000180033f20     libvcruntime:undname.obj
 0002:00001f30       ??_C@_0BF@KDPPACIK@?$GAlocal?5static?5guard?8@ 0000000180033f30     libvcruntime:undname.obj
 0002:00001f48       ??_C@_08OBABFOLI@?$GAstring?8@ 0000000180033f48     libvcruntime:undname.obj
 0002:00001f58       ??_C@_0BD@JDLKDPAB@?$GAvbase?5destructor?8@ 0000000180033f58     libvcruntime:undname.obj
 0002:00001f70       ??_C@_0BN@DEGPLNFK@?$GAvector?5deleting?5destructor?8@ 0000000180033f70     libvcruntime:undname.obj
 0002:00001f90       ??_C@_0BO@OBMKPJIG@?$GAdefault?5constructor?5closure?8@ 0000000180033f90     libvcruntime:undname.obj
 0002:00001fb0       ??_C@_0BN@IMDCHIKM@?$GAscalar?5deleting?5destructor?8@ 0000000180033fb0     libvcruntime:undname.obj
 0002:00001fd0       ??_C@_0BO@PFGOCPJJ@?$GAvector?5constructor?5iterator?8@ 0000000180033fd0     libvcruntime:undname.obj
 0002:00001ff0       ??_C@_0BN@LFPFMEDL@?$GAvector?5destructor?5iterator?8@ 0000000180033ff0     libvcruntime:undname.obj
 0002:00002010       ??_C@_0CE@IKBNEHA@?$GAvector?5vbase?5constructor?5itera@ 0000000180034010     libvcruntime:undname.obj
 0002:00002038       ??_C@_0BL@NILFHHPC@?$GAvirtual?5displacement?5map?8@ 0000000180034038     libvcruntime:undname.obj
 0002:00002058       ??_C@_0CB@JONCMFFK@?$GAeh?5vector?5constructor?5iterator@ 0000000180034058     libvcruntime:undname.obj
 0002:00002080       ??_C@_0CA@GCEOPDGL@?$GAeh?5vector?5destructor?5iterator?8@ 0000000180034080     libvcruntime:undname.obj
 0002:000020a0       ??_C@_0CH@OOJPLCPH@?$GAeh?5vector?5vbase?5constructor?5it@ 00000001800340a0     libvcruntime:undname.obj
 0002:000020c8       ??_C@_0BL@LLKPOHJI@?$GAcopy?5constructor?5closure?8@ 00000001800340c8     libvcruntime:undname.obj
 0002:000020e8       ??_C@_0BA@KBCDOMBN@?$GAudt?5returning?8@ 00000001800340e8     libvcruntime:undname.obj
 0002:000020f8       ??_C@_03KLGMFNMG@?$GAEH@   00000001800340f8     libvcruntime:undname.obj
 0002:000020fc       ??_C@_05KHLCHHI@?$GARTTI@  00000001800340fc     libvcruntime:undname.obj
 0002:00002108       ??_C@_0BA@KKLDJDLB@?$GAlocal?5vftable?8@ 0000000180034108     libvcruntime:undname.obj
 0002:00002118       ??_C@_0CE@IIHCMGGL@?$GAlocal?5vftable?5constructor?5clos@ 0000000180034118     libvcruntime:undname.obj
 0002:0000213c       ??_C@_06FHBGPFGH@?5new?$FL?$FN@ 000000018003413c     libvcruntime:undname.obj
 0002:00002148       ??_C@_09LBNFPBCA@?5delete?$FL?$FN@ 0000000180034148     libvcruntime:undname.obj
 0002:00002158       ??_C@_0P@HJKNJFNN@?$GAomni?5callsig?8@ 0000000180034158     libvcruntime:undname.obj
 0002:00002168       ??_C@_0BL@CNOONJFP@?$GAplacement?5delete?5closure?8@ 0000000180034168     libvcruntime:undname.obj
 0002:00002188       ??_C@_0BN@CKNJLHMB@?$GAplacement?5delete?$FL?$FN?5closure?8@ 0000000180034188     libvcruntime:undname.obj
 0002:000021a8       ??_C@_0CG@CFDHKGGD@?$GAmanaged?5vector?5constructor?5ite@ 00000001800341a8     libvcruntime:undname.obj
 0002:000021d0       ??_C@_0CF@IMGKMJNO@?$GAmanaged?5vector?5destructor?5iter@ 00000001800341d0     libvcruntime:undname.obj
 0002:000021f8       ??_C@_0CG@HLDDJMAG@?$GAeh?5vector?5copy?5constructor?5ite@ 00000001800341f8     libvcruntime:undname.obj
 0002:00002220       ??_C@_0CM@FCBBDIGB@?$GAeh?5vector?5vbase?5copy?5construct@ 0000000180034220     libvcruntime:undname.obj
 0002:00002250       ??_C@_0BL@CLIPGLGB@?$GAdynamic?5initializer?5for?5?8@ 0000000180034250     libvcruntime:undname.obj
 0002:00002270       ??_C@_0CB@PDBIFEP@?$GAdynamic?5atexit?5destructor?5for?5@ 0000000180034270     libvcruntime:undname.obj
 0002:00002298       ??_C@_0CD@CGAJBKEJ@?$GAvector?5copy?5constructor?5iterat@ 0000000180034298     libvcruntime:undname.obj
 0002:000022c0       ??_C@_0CJ@GJELGAMM@?$GAvector?5vbase?5copy?5constructor?5@ 00000001800342c0     libvcruntime:undname.obj
 0002:000022f0       ??_C@_0CL@FGIJHLCE@?$GAmanaged?5vector?5copy?5constructo@ 00000001800342f0     libvcruntime:undname.obj
 0002:00002320       ??_C@_0BM@PMGGMLDN@?$GAlocal?5static?5thread?5guard?8@ 0000000180034320     libvcruntime:undname.obj
 0002:00002340       ??_C@_0N@BDNMDMOL@operator?5?$CC?$CC?5@ 0000000180034340     libvcruntime:undname.obj
 0002:00002350       ??_C@_0BC@GGEBGALA@operator?5co_await@ 0000000180034350     libvcruntime:undname.obj
 0002:00002368       ??_C@_0BC@DAFEJGAK@?5Type?5Descriptor?8@ 0000000180034368     libvcruntime:undname.obj
 0002:00002380       ??_C@_0BM@LDKODKLH@?5Base?5Class?5Descriptor?5at?5?$CI@ 0000000180034380     libvcruntime:undname.obj
 0002:000023a0       ??_C@_0BD@LGICGFMM@?5Base?5Class?5Array?8@ 00000001800343a0     libvcruntime:undname.obj
 0002:000023b8       ??_C@_0BN@MECKDCOJ@?5Class?5Hierarchy?5Descriptor?8@ 00000001800343b8     libvcruntime:undname.obj
 0002:000023d8       ??_C@_0BK@CFCOFLF@?5Complete?5Object?5Locator?8@ 00000001800343d8     libvcruntime:undname.obj
 0002:00002410       ??_C@_1DM@KHCHBNEB@?$AAa?$AAp?$AAi?$AA?9?$AAm?$AAs?$AA?9?$AAw?$AAi?$AAn?$AA?9?$AAc?$AAo?$AAr?$AAe@ 0000000180034410     libvcruntime:winapi_downlevel.obj
 0002:00002450       ??_C@_1DK@LPPGFMPP@?$AAa?$AAp?$AAi?$AA?9?$AAm?$AAs?$AA?9?$AAw?$AAi?$AAn?$AA?9?$AAc?$AAo?$AAr?$AAe@ 0000000180034450     libvcruntime:winapi_downlevel.obj
 0002:00002490       ??_C@_1BC@GDMECMAK@?$AAk?$AAe?$AAr?$AAn?$AAe?$AAl?$AA3?$AA2@ 0000000180034490     libvcruntime:winapi_downlevel.obj
 0002:000024a8       ??_C@_1BA@PFFKHIOG@?$AAa?$AAp?$AAi?$AA?9?$AAm?$AAs?$AA?9@ 00000001800344a8     libvcruntime:winapi_downlevel.obj
 0002:000024b8       ??_C@_1BA@IAIFMGEF@?$AAe?$AAx?$AAt?$AA?9?$AAm?$AAs?$AA?9@ 00000001800344b8     libvcruntime:winapi_downlevel.obj
 0002:000024f0       __acrt_exception_action_table 00000001800344f0     libucrt:exception_filter.obj
 0002:000025b0       __acrt_signal_action_table_count 00000001800345b0     libucrt:exception_filter.obj
 0002:000025b8       __acrt_signal_action_first_fpe_index 00000001800345b8     libucrt:exception_filter.obj
 0002:000025c0       __acrt_signal_action_fpe_count 00000001800345c0     libucrt:exception_filter.obj
 0002:000025c8       ??_C@_1BI@BGOHAHKC@?$AAm?$AAs?$AAc?$AAo?$AAr?$AAe?$AAe?$AA?4?$AAd?$AAl?$AAl?$AA?$AA@ 00000001800345c8     libucrt:exit.obj
 0002:000025e0       ??_C@_0P@MIGLKIOC@CorExitProcess?$AA@ 00000001800345e0     libucrt:exit.obj
 0002:00002860       __lc_time_c                0000000180034860     libucrt:nlsdata.obj
 0002:00002b20       ??_C@_03KOEHGMDN@Sun?$AA@  0000000180034b20     libucrt:nlsdata.obj
 0002:00002b24       ??_C@_03PDAGKDH@Mon?$AA@   0000000180034b24     libucrt:nlsdata.obj
 0002:00002b28       ??_C@_03NAGEINEP@Tue?$AA@  0000000180034b28     libucrt:nlsdata.obj
 0002:00002b2c       ??_C@_03MHOMLAJA@Wed?$AA@  0000000180034b2c     libucrt:nlsdata.obj
 0002:00002b30       ??_C@_03IOFIKPDN@Thu?$AA@  0000000180034b30     libucrt:nlsdata.obj
 0002:00002b34       ??_C@_03IDIOELNC@Fri?$AA@  0000000180034b34     libucrt:nlsdata.obj
 0002:00002b38       ??_C@_03FEFJNEK@Sat?$AA@   0000000180034b38     libucrt:nlsdata.obj
 0002:00002b3c       ??_C@_06OOPIFAJ@Sunday?$AA@ 0000000180034b3c     libucrt:nlsdata.obj
 0002:00002b44       ??_C@_06JLEDEDGH@Monday?$AA@ 0000000180034b44     libucrt:nlsdata.obj
 0002:00002b50       ??_C@_07BAAGCFCM@Tuesday?$AA@ 0000000180034b50     libucrt:nlsdata.obj
 0002:00002b58       ??_C@_09DLIGFAKA@Wednesday?$AA@ 0000000180034b58     libucrt:nlsdata.obj
 0002:00002b68       ??_C@_08HACCIKIA@Thursday?$AA@ 0000000180034b68     libucrt:nlsdata.obj
 0002:00002b74       ??_C@_06JECMNKMI@Friday?$AA@ 0000000180034b74     libucrt:nlsdata.obj
 0002:00002b80       ??_C@_08INBOOONO@Saturday?$AA@ 0000000180034b80     libucrt:nlsdata.obj
 0002:00002b8c       ??_C@_03JIHJHPIE@Jan?$AA@  0000000180034b8c     libucrt:nlsdata.obj
 0002:00002b90       ??_C@_03HJBDCHOM@Feb?$AA@  0000000180034b90     libucrt:nlsdata.obj
 0002:00002b94       ??_C@_03ODNJBKGA@Mar?$AA@  0000000180034b94     libucrt:nlsdata.obj
 0002:00002b98       ??_C@_03LEOLGMJP@Apr?$AA@  0000000180034b98     libucrt:nlsdata.obj
 0002:00002b9c       ??_C@_03CNMDKL@May?$AA@    0000000180034b9c     libucrt:nlsdata.obj
 0002:00002ba0       ??_C@_03IDFGHECI@Jun?$AA@  0000000180034ba0     libucrt:nlsdata.obj
 0002:00002ba4       ??_C@_03LBGABGKK@Jul?$AA@  0000000180034ba4     libucrt:nlsdata.obj
 0002:00002ba8       ??_C@_03IFJFEIGA@Aug?$AA@  0000000180034ba8     libucrt:nlsdata.obj
 0002:00002bac       ??_C@_03GGCAPAJC@Sep?$AA@  0000000180034bac     libucrt:nlsdata.obj
 0002:00002bb0       ??_C@_03BMAOKBAD@Oct?$AA@  0000000180034bb0     libucrt:nlsdata.obj
 0002:00002bb4       ??_C@_03JPJOFNIA@Nov?$AA@  0000000180034bb4     libucrt:nlsdata.obj
 0002:00002bb8       ??_C@_03MKABNOCG@Dec?$AA@  0000000180034bb8     libucrt:nlsdata.obj
 0002:00002bc0       ??_C@_07CGJPFGJA@January?$AA@ 0000000180034bc0     libucrt:nlsdata.obj
 0002:00002bc8       ??_C@_08GNJGEPFN@February?$AA@ 0000000180034bc8     libucrt:nlsdata.obj
 0002:00002bd4       ??_C@_05HPCKOFNC@March?$AA@ 0000000180034bd4     libucrt:nlsdata.obj
 0002:00002bdc       ??_C@_05DMJDNLEJ@April?$AA@ 0000000180034bdc     libucrt:nlsdata.obj
 0002:00002be4       ??_C@_04CNLMGBGM@June?$AA@ 0000000180034be4     libucrt:nlsdata.obj
 0002:00002bec       ??_C@_04MIEPOIFP@July?$AA@ 0000000180034bec     libucrt:nlsdata.obj
 0002:00002bf4       ??_C@_06LBBHFDDG@August?$AA@ 0000000180034bf4     libucrt:nlsdata.obj
 0002:00002c00       ??_C@_09BHHEALKD@September?$AA@ 0000000180034c00     libucrt:nlsdata.obj
 0002:00002c10       ??_C@_07JJNFCEND@October?$AA@ 0000000180034c10     libucrt:nlsdata.obj
 0002:00002c18       ??_C@_08HCHEGEOA@November?$AA@ 0000000180034c18     libucrt:nlsdata.obj
 0002:00002c28       ??_C@_08EDHMEBNP@December?$AA@ 0000000180034c28     libucrt:nlsdata.obj
 0002:00002c34       ??_C@_02DEDBPAFC@AM?$AA@   0000000180034c34     libucrt:nlsdata.obj
 0002:00002c38       ??_C@_02CJNFDJBF@PM?$AA@   0000000180034c38     libucrt:nlsdata.obj
 0002:00002c40       ??_C@_08BPBNCDIB@MM?1dd?1yy?$AA@ 0000000180034c40     libucrt:nlsdata.obj
 0002:00002c50       ??_C@_0BE@CKGJFCPC@dddd?0?5MMMM?5dd?0?5yyyy?$AA@ 0000000180034c50     libucrt:nlsdata.obj
 0002:00002c68       ??_C@_08JCCMCCIL@HH?3mm?3ss?$AA@ 0000000180034c68     libucrt:nlsdata.obj
 0002:00002c78       ??_C@_17MBGCMIPB@?$AAS?$AAu?$AAn?$AA?$AA@ 0000000180034c78     libucrt:nlsdata.obj
 0002:00002c80       ??_C@_17KBOMKBF@?$AAM?$AAo?$AAn?$AA?$AA@ 0000000180034c80     libucrt:nlsdata.obj
 0002:00002c88       ??_C@_17BMKGEGOJ@?$AAT?$AAu?$AAe?$AA?$AA@ 0000000180034c88     libucrt:nlsdata.obj
 0002:00002c90       ??_C@_17CJEDCEPE@?$AAW?$AAe?$AAd?$AA?$AA@ 0000000180034c90     libucrt:nlsdata.obj
 0002:00002c98       ??_C@_17PDPHAADD@?$AAT?$AAh?$AAu?$AA?$AA@ 0000000180034c98     libucrt:nlsdata.obj
 0002:00002ca0       ??_C@_17HFOLPPLP@?$AAF?$AAr?$AAi?$AA?$AA@ 0000000180034ca0     libucrt:nlsdata.obj
 0002:00002ca8       ??_C@_17GGIBDPIH@?$AAS?$AAa?$AAt?$AA?$AA@ 0000000180034ca8     libucrt:nlsdata.obj
 0002:00002cb0       ??_C@_1O@IHNHDHPB@?$AAS?$AAu?$AAn?$AAd?$AAa?$AAy?$AA?$AA@ 0000000180034cb0     libucrt:nlsdata.obj
 0002:00002cc0       ??_C@_1O@MMNBFLIA@?$AAM?$AAo?$AAn?$AAd?$AAa?$AAy?$AA?$AA@ 0000000180034cc0     libucrt:nlsdata.obj
 0002:00002cd0       ??_C@_1BA@ENFBFFEK@?$AAT?$AAu?$AAe?$AAs?$AAd?$AAa?$AAy?$AA?$AA@ 0000000180034cd0     libucrt:nlsdata.obj
 0002:00002ce0       ??_C@_1BE@EBOGMDOH@?$AAW?$AAe?$AAd?$AAn?$AAe?$AAs?$AAd?$AAa?$AAy?$AA?$AA@ 0000000180034ce0     libucrt:nlsdata.obj
 0002:00002cf8       ??_C@_1BC@HHMNLIHE@?$AAT?$AAh?$AAu?$AAr?$AAs?$AAd?$AAa?$AAy?$AA?$AA@ 0000000180034cf8     libucrt:nlsdata.obj
 0002:00002d10       ??_C@_1O@PDICJHAG@?$AAF?$AAr?$AAi?$AAd?$AAa?$AAy?$AA?$AA@ 0000000180034d10     libucrt:nlsdata.obj
 0002:00002d20       ??_C@_1BC@ENMNNPAJ@?$AAS?$AAa?$AAt?$AAu?$AAr?$AAd?$AAa?$AAy?$AA?$AA@ 0000000180034d20     libucrt:nlsdata.obj
 0002:00002d38       ??_C@_17DKNBKCHM@?$AAJ?$AAa?$AAn?$AA?$AA@ 0000000180034d38     libucrt:nlsdata.obj
 0002:00002d40       ??_C@_17LMDJEKJN@?$AAF?$AAe?$AAb?$AA?$AA@ 0000000180034d40     libucrt:nlsdata.obj
 0002:00002d48       ??_C@_17CKNLEDEC@?$AAM?$AAa?$AAr?$AA?$AA@ 0000000180034d48     libucrt:nlsdata.obj
 0002:00002d50       ??_C@_17LFPOIHDD@?$AAA?$AAp?$AAr?$AA?$AA@ 0000000180034d50     libucrt:nlsdata.obj
 0002:00002d58       ??_C@_17PNNKMEED@?$AAM?$AAa?$AAy?$AA?$AA@ 0000000180034d58     libucrt:nlsdata.obj
 0002:00002d60       ??_C@_17KCJGOCPB@?$AAJ?$AAu?$AAn?$AA?$AA@ 0000000180034d60     libucrt:nlsdata.obj
 0002:00002d68       ??_C@_17IJPCKHK@?$AAJ?$AAu?$AAl?$AA?$AA@ 0000000180034d68     libucrt:nlsdata.obj
 0002:00002d70       ??_C@_17ICPELBCN@?$AAA?$AAu?$AAg?$AA?$AA@ 0000000180034d70     libucrt:nlsdata.obj
 0002:00002d78       ??_C@_17HCHCOKMG@?$AAS?$AAe?$AAp?$AA?$AA@ 0000000180034d78     libucrt:nlsdata.obj
 0002:00002d80       ??_C@_17FNLKOI@?$AAO?$AAc?$AAt?$AA?$AA@ 0000000180034d80     libucrt:nlsdata.obj
 0002:00002d88       ??_C@_17BBDMLCIG@?$AAN?$AAo?$AAv?$AA?$AA@ 0000000180034d88     libucrt:nlsdata.obj
 0002:00002d90       ??_C@_17EGKACKIF@?$AAD?$AAe?$AAc?$AA?$AA@ 0000000180034d90     libucrt:nlsdata.obj
 0002:00002d98       ??_C@_1BA@EFMEIEBA@?$AAJ?$AAa?$AAn?$AAu?$AAa?$AAr?$AAy?$AA?$AA@ 0000000180034d98     libucrt:nlsdata.obj
 0002:00002da8       ??_C@_1BC@JGDDFFAM@?$AAF?$AAe?$AAb?$AAr?$AAu?$AAa?$AAr?$AAy?$AA?$AA@ 0000000180034da8     libucrt:nlsdata.obj
 0002:00002dc0       ??_C@_1M@IKEENEDF@?$AAM?$AAa?$AAr?$AAc?$AAh?$AA?$AA@ 0000000180034dc0     libucrt:nlsdata.obj
 0002:00002dd0       ??_C@_1M@GJNLMHFD@?$AAA?$AAp?$AAr?$AAi?$AAl?$AA?$AA@ 0000000180034dd0     libucrt:nlsdata.obj
 0002:00002de0       ??_C@_19EPFLPGAP@?$AAJ?$AAu?$AAn?$AAe?$AA?$AA@ 0000000180034de0     libucrt:nlsdata.obj
 0002:00002df0       ??_C@_19BIFMLPCD@?$AAJ?$AAu?$AAl?$AAy?$AA?$AA@ 0000000180034df0     libucrt:nlsdata.obj
 0002:00002e00       ??_C@_1O@PAHLKOAC@?$AAA?$AAu?$AAg?$AAu?$AAs?$AAt?$AA?$AA@ 0000000180034e00     libucrt:nlsdata.obj
 0002:00002e10       ??_C@_1BE@DKAAMBJL@?$AAS?$AAe?$AAp?$AAt?$AAe?$AAm?$AAb?$AAe?$AAr?$AA?$AA@ 0000000180034e10     libucrt:nlsdata.obj
 0002:00002e28       ??_C@_1BA@EPANDLNG@?$AAO?$AAc?$AAt?$AAo?$AAb?$AAe?$AAr?$AA?$AA@ 0000000180034e28     libucrt:nlsdata.obj
 0002:00002e38       ??_C@_1BC@BGLIFPF@?$AAN?$AAo?$AAv?$AAe?$AAm?$AAb?$AAe?$AAr?$AA?$AA@ 0000000180034e38     libucrt:nlsdata.obj
 0002:00002e50       ??_C@_1BC@FEMKIFH@?$AAD?$AAe?$AAc?$AAe?$AAm?$AAb?$AAe?$AAr?$AA?$AA@ 0000000180034e50     libucrt:nlsdata.obj
 0002:00002e64       ??_C@_15ODEHAHHF@?$AAA?$AAM?$AA?$AA@ 0000000180034e64     libucrt:nlsdata.obj
 0002:00002e6c       ??_C@_15CLMNNGEL@?$AAP?$AAM?$AA?$AA@ 0000000180034e6c     libucrt:nlsdata.obj
 0002:00002e78       ??_C@_1BC@IEBCMHCM@?$AAM?$AAM?$AA?1?$AAd?$AAd?$AA?1?$AAy?$AAy?$AA?$AA@ 0000000180034e78     libucrt:nlsdata.obj
 0002:00002e90       ??_C@_1CI@KNAKOEBC@?$AAd?$AAd?$AAd?$AAd?$AA?0?$AA?5?$AAM?$AAM?$AAM?$AAM?$AA?5?$AAd?$AAd?$AA?0?$AA?5?$AAy?$AAy?$AAy?$AAy?$AA?$AA@ 0000000180034e90     libucrt:nlsdata.obj
 0002:00002eb8       ??_C@_1BC@GDGBMEMK@?$AAH?$AAH?$AA?3?$AAm?$AAm?$AA?3?$AAs?$AAs?$AA?$AA@ 0000000180034eb8     libucrt:nlsdata.obj
 0002:00002ed0       ??_C@_1M@BMHNFIME@?$AAe?$AAn?$AA?9?$AAU?$AAS?$AA?$AA@ 0000000180034ed0     libucrt:nlsdata.obj
 0002:00002f00       ??_C@_1M@HPNHIDJI@?$AAj?$AAa?$AA?9?$AAJ?$AAP?$AA?$AA@ 0000000180034f00     libucrt:mbctype.obj
 0002:00002f10       ??_C@_1M@BIBDDEMK@?$AAz?$AAh?$AA?9?$AAC?$AAN?$AA?$AA@ 0000000180034f10     libucrt:mbctype.obj
 0002:00002f20       ??_C@_1M@JLOOOEGK@?$AAk?$AAo?$AA?9?$AAK?$AAR?$AA?$AA@ 0000000180034f20     libucrt:mbctype.obj
 0002:00002f30       ??_C@_1M@CLNBBOPM@?$AAz?$AAh?$AA?9?$AAT?$AAW?$AA?$AA@ 0000000180034f30     libucrt:mbctype.obj
 0002:00002fe0       ??_C@_1EA@JGEFHKEI@?$AAa?$AAp?$AAi?$AA?9?$AAm?$AAs?$AA?9?$AAw?$AAi?$AAn?$AA?9?$AAc?$AAo?$AAr?$AAe?$AA?9?$AAd?$AAa?$AAt?$AAe?$AAt?$AAi?$AAm?$AAe?$AA?9?$AAl?$AA1?$AA?9?$AA1?$AA?9?$AA1?$AA?$AA@ 0000000180034fe0     libucrt:winapi_thunks.obj
 0002:00003020       ??_C@_1DM@KHCHBNEB@?$AAa?$AAp?$AAi?$AA?9?$AAm?$AAs?$AA?9?$AAw?$AAi?$AAn?$AA?9?$AAc?$AAo?$AAr?$AAe?$AA?9?$AAf?$AAi?$AAb?$AAe?$AAr?$AAs?$AA?9?$AAl?$AA1?$AA?9?$AA1?$AA?9?$AA1?$AA?$AA@ 0000000180035020     libucrt:winapi_thunks.obj
 0002:00003060       ??_C@_1DI@IJCEHOCB@?$AAa?$AAp?$AAi?$AA?9?$AAm?$AAs?$AA?9?$AAw?$AAi?$AAn?$AA?9?$AAc?$AAo?$AAr?$AAe?$AA?9?$AAf?$AAi?$AAl?$AAe?$AA?9?$AAl?$AA1?$AA?9?$AA2?$AA?9?$AA2?$AA?$AA@ 0000000180035060     libucrt:winapi_thunks.obj
 0002:000030a0       ??_C@_1EI@MPIAOHOC@?$AAa?$AAp?$AAi?$AA?9?$AAm?$AAs?$AA?9?$AAw?$AAi?$AAn?$AA?9?$AAc?$AAo?$AAr?$AAe?$AA?9?$AAl?$AAo?$AAc?$AAa?$AAl?$AAi?$AAz?$AAa?$AAt?$AAi?$AAo?$AAn?$AA?9?$AAl?$AA1?$AA?9@ 00000001800350a0     libucrt:winapi_thunks.obj
 0002:000030f0       ??_C@_1FK@FPHCKFIE@?$AAa?$AAp?$AAi?$AA?9?$AAm?$AAs?$AA?9?$AAw?$AAi?$AAn?$AA?9?$AAc?$AAo?$AAr?$AAe?$AA?9?$AAl?$AAo?$AAc?$AAa?$AAl?$AAi?$AAz?$AAa?$AAt?$AAi?$AAo?$AAn?$AA?9?$AAo?$AAb?$AAs@ 00000001800350f0     libucrt:winapi_thunks.obj
 0002:00003150       ??_C@_1EM@DILCGIIO@?$AAa?$AAp?$AAi?$AA?9?$AAm?$AAs?$AA?9?$AAw?$AAi?$AAn?$AA?9?$AAc?$AAo?$AAr?$AAe?$AA?9?$AAp?$AAr?$AAo?$AAc?$AAe?$AAs?$AAs?$AAt?$AAh?$AAr?$AAe?$AAa?$AAd?$AAs?$AA?9?$AAl@ 0000000180035150     libucrt:winapi_thunks.obj
 0002:000031a0       ??_C@_1DM@LNCGDDPN@?$AAa?$AAp?$AAi?$AA?9?$AAm?$AAs?$AA?9?$AAw?$AAi?$AAn?$AA?9?$AAc?$AAo?$AAr?$AAe?$AA?9?$AAs?$AAt?$AAr?$AAi?$AAn?$AAg?$AA?9?$AAl?$AA1?$AA?9?$AA1?$AA?9?$AA0?$AA?$AA@ 00000001800351a0     libucrt:winapi_thunks.obj
 0002:000031e0       ??_C@_1DK@LPPGFMPP@?$AAa?$AAp?$AAi?$AA?9?$AAm?$AAs?$AA?9?$AAw?$AAi?$AAn?$AA?9?$AAc?$AAo?$AAr?$AAe?$AA?9?$AAs?$AAy?$AAn?$AAc?$AAh?$AA?9?$AAl?$AA1?$AA?9?$AA2?$AA?9?$AA0?$AA?$AA@ 00000001800351e0     libucrt:winapi_thunks.obj
 0002:00003220       ??_C@_1DO@FPAPJEMD@?$AAa?$AAp?$AAi?$AA?9?$AAm?$AAs?$AA?9?$AAw?$AAi?$AAn?$AA?9?$AAc?$AAo?$AAr?$AAe?$AA?9?$AAs?$AAy?$AAs?$AAi?$AAn?$AAf?$AAo?$AA?9?$AAl?$AA1?$AA?9?$AA2?$AA?9?$AA1?$AA?$AA@ 0000000180035220     libucrt:winapi_thunks.obj
 0002:00003260       ??_C@_1DK@NDHNAHIO@?$AAa?$AAp?$AAi?$AA?9?$AAm?$AAs?$AA?9?$AAw?$AAi?$AAn?$AA?9?$AAc?$AAo?$AAr?$AAe?$AA?9?$AAw?$AAi?$AAn?$AAr?$AAt?$AA?9?$AAl?$AA1?$AA?9?$AA1?$AA?9?$AA0?$AA?$AA@ 0000000180035260     libucrt:winapi_thunks.obj
 0002:000032a0       ??_C@_1DM@KGHDGBCM@?$AAa?$AAp?$AAi?$AA?9?$AAm?$AAs?$AA?9?$AAw?$AAi?$AAn?$AA?9?$AAc?$AAo?$AAr?$AAe?$AA?9?$AAx?$AAs?$AAt?$AAa?$AAt?$AAe?$AA?9?$AAl?$AA2?$AA?9?$AA1?$AA?9?$AA0?$AA?$AA@ 00000001800352a0     libucrt:winapi_thunks.obj
 0002:000032e0       ??_C@_1EO@IJIOEFOH@?$AAa?$AAp?$AAi?$AA?9?$AAm?$AAs?$AA?9?$AAw?$AAi?$AAn?$AA?9?$AAr?$AAt?$AAc?$AAo?$AAr?$AAe?$AA?9?$AAn?$AAt?$AAu?$AAs?$AAe?$AAr?$AA?9?$AAw?$AAi?$AAn?$AAd?$AAo?$AAw?$AA?9@ 00000001800352e0     libucrt:winapi_thunks.obj
 0002:00003330       ??_C@_1FG@HHGEKANL@?$AAa?$AAp?$AAi?$AA?9?$AAm?$AAs?$AA?9?$AAw?$AAi?$AAn?$AA?9?$AAs?$AAe?$AAc?$AAu?$AAr?$AAi?$AAt?$AAy?$AA?9?$AAs?$AAy?$AAs?$AAt?$AAe?$AAm?$AAf?$AAu?$AAn?$AAc?$AAt?$AAi@ 0000000180035330     libucrt:winapi_thunks.obj
 0002:00003390       ??_C@_1EG@DBIOJECG@?$AAe?$AAx?$AAt?$AA?9?$AAm?$AAs?$AA?9?$AAw?$AAi?$AAn?$AA?9?$AAn?$AAt?$AAu?$AAs?$AAe?$AAr?$AA?9?$AAd?$AAi?$AAa?$AAl?$AAo?$AAg?$AAb?$AAo?$AAx?$AA?9?$AAl?$AA1?$AA?9?$AA1@ 0000000180035390     libucrt:winapi_thunks.obj
 0002:000033e0       ??_C@_1EO@FIHMJCLF@?$AAe?$AAx?$AAt?$AA?9?$AAm?$AAs?$AA?9?$AAw?$AAi?$AAn?$AA?9?$AAn?$AAt?$AAu?$AAs?$AAe?$AAr?$AA?9?$AAw?$AAi?$AAn?$AAd?$AAo?$AAw?$AAs?$AAt?$AAa?$AAt?$AAi?$AAo?$AAn?$AA?9@ 00000001800353e0     libucrt:winapi_thunks.obj
 0002:00003430       ??_C@_1BC@DNHGCMLG@?$AAa?$AAd?$AAv?$AAa?$AAp?$AAi?$AA3?$AA2?$AA?$AA@ 0000000180035430     libucrt:winapi_thunks.obj
 0002:00003448       ??_C@_1BC@GDMECMAK@?$AAk?$AAe?$AAr?$AAn?$AAe?$AAl?$AA3?$AA2?$AA?$AA@ 0000000180035448     libucrt:winapi_thunks.obj
 0002:00003460       ??_C@_1M@OAIMIKLP@?$AAn?$AAt?$AAd?$AAl?$AAl?$AA?$AA@ 0000000180035460     libucrt:winapi_thunks.obj
 0002:00003470       ??_C@_1EG@DPGNFKGC@?$AAa?$AAp?$AAi?$AA?9?$AAm?$AAs?$AA?9?$AAw?$AAi?$AAn?$AA?9?$AAa?$AAp?$AAp?$AAm?$AAo?$AAd?$AAe?$AAl?$AA?9?$AAr?$AAu?$AAn?$AAt?$AAi?$AAm?$AAe?$AA?9?$AAl?$AA1?$AA?9?$AA1@ 0000000180035470     libucrt:winapi_thunks.obj
 0002:000034b8       ??_C@_1O@BCCLBEOE@?$AAu?$AAs?$AAe?$AAr?$AA3?$AA2?$AA?$AA@ 00000001800354b8     libucrt:winapi_thunks.obj
 0002:000034c8       ??_C@_1BA@PFFKHIOG@?$AAa?$AAp?$AAi?$AA?9?$AAm?$AAs?$AA?9?$AA?$AA@ 00000001800354c8     libucrt:winapi_thunks.obj
 0002:000034d8       ??_C@_1BA@IAIFMGEF@?$AAe?$AAx?$AAt?$AA?9?$AAm?$AAs?$AA?9?$AA?$AA@ 00000001800354d8     libucrt:winapi_thunks.obj
 0002:000034f0       ??_C@_0BA@FHFNEAED@AreFileApisANSI?$AA@ 00000001800354f0     libucrt:winapi_thunks.obj
 0002:00003508       ??_C@_08KNHFBNJ@FlsAlloc?$AA@ 0000000180035508     libucrt:winapi_thunks.obj
 0002:00003520       ??_C@_07PEJMOBNF@FlsFree?$AA@ 0000000180035520     libucrt:winapi_thunks.obj
 0002:00003530       ??_C@_0M@GDNOONDI@FlsGetValue?$AA@ 0000000180035530     libucrt:winapi_thunks.obj
 0002:00003548       ??_C@_0M@JCPCPOEF@FlsSetValue?$AA@ 0000000180035548     libucrt:winapi_thunks.obj
 0002:00003560       ??_C@_0BM@HCFOFFN@InitializeCriticalSectionEx?$AA@ 0000000180035560     libucrt:winapi_thunks.obj
 0002:00003588       ??_C@_0O@KKBNKAPF@LCMapStringEx?$AA@ 0000000180035588     libucrt:winapi_thunks.obj
 0002:000035a0       ??_C@_0BB@HBDEELFH@LocaleNameToLCID?$AA@ 00000001800355a0     libucrt:winapi_thunks.obj
 0002:000035b8       ??_C@_0CF@OJOFEIGO@AppPolicyGetProcessTerminationMe@ 00000001800355b8     libucrt:winapi_thunks.obj
 0002:000035e0       __newctype                 00000001800355e0     libucrt:ctype.obj
 0002:000038e0       __newclmap                 00000001800358e0     libucrt:ctype.obj
 0002:00003a60       __newcumap                 0000000180035a60     libucrt:ctype.obj
 0002:00003be0       ??_C@_15PJPFLCCM@?$AAu?$AAk?$AA?$AA@ 0000000180035be0     libucrt:get_qualified_locale.obj
 0002:00004a30       ??_C@_15EMKDOKLE@?$AAa?$AAr?$AA?$AA@ 0000000180036a30     libucrt:lcidtoname_downlevel.obj
 0002:00004a38       ??_C@_15KNPADPLH@?$AAb?$AAg?$AA?$AA@ 0000000180036a38     libucrt:lcidtoname_downlevel.obj
 0002:00004a40       ??_C@_15EDMHLDMO@?$AAc?$AAa?$AA?$AA@ 0000000180036a40     libucrt:lcidtoname_downlevel.obj
 0002:00004a48       ??_C@_1O@BPEAJADD@?$AAz?$AAh?$AA?9?$AAC?$AAH?$AAS?$AA?$AA@ 0000000180036a48     libucrt:lcidtoname_downlevel.obj
 0002:00004a58       ??_C@_15LJNHCMNK@?$AAc?$AAs?$AA?$AA@ 0000000180036a58     libucrt:lcidtoname_downlevel.obj
 0002:00004a60       ??_C@_15FOMCIDHG@?$AAd?$AAa?$AA?$AA@ 0000000180036a60     libucrt:lcidtoname_downlevel.obj
 0002:00004a68       ??_C@_15NBKABECB@?$AAd?$AAe?$AA?$AA@ 0000000180036a68     libucrt:lcidtoname_downlevel.obj
 0002:00004a70       ??_C@_15GHPEIIAO@?$AAe?$AAl?$AA?$AA@ 0000000180036a70     libucrt:lcidtoname_downlevel.obj
 0002:00004a78       ??_C@_15MNPNEAIF@?$AAe?$AAn?$AA?$AA@ 0000000180036a78     libucrt:lcidtoname_downlevel.obj
 0002:00004a80       ??_C@_15GPIOMPMH@?$AAe?$AAs?$AA?$AA@ 0000000180036a80     libucrt:lcidtoname_downlevel.obj
 0002:00004a88       ??_C@_15NGLOAKJC@?$AAf?$AAi?$AA?$AA@ 0000000180036a88     libucrt:lcidtoname_downlevel.obj
 0002:00004a90       ??_C@_15FBKGNKAM@?$AAf?$AAr?$AA?$AA@ 0000000180036a90     libucrt:lcidtoname_downlevel.obj
 0002:00004a98       ??_C@_15KGGCNEFK@?$AAh?$AAe?$AA?$AA@ 0000000180036a98     libucrt:lcidtoname_downlevel.obj
 0002:00004aa0       ??_C@_15PGHLIDMF@?$AAh?$AAu?$AA?$AA@ 0000000180036aa0     libucrt:lcidtoname_downlevel.obj
 0002:00004aa8       ??_C@_15BIEMAPLM@?$AAi?$AAs?$AA?$AA@ 0000000180036aa8     libucrt:lcidtoname_downlevel.obj
 0002:00004ab0       ??_C@_15IFJLDHAF@?$AAi?$AAt?$AA?$AA@ 0000000180036ab0     libucrt:lcidtoname_downlevel.obj
 0002:00004ab8       ??_C@_15GEMIOCAG@?$AAj?$AAa?$AA?$AA@ 0000000180036ab8     libucrt:lcidtoname_downlevel.obj
 0002:00004ac0       ??_C@_15EPELEGJA@?$AAk?$AAo?$AA?$AA@ 0000000180036ac0     libucrt:lcidtoname_downlevel.obj
 0002:00004ac8       ??_C@_15NDDHIMN@?$AAn?$AAl?$AA?$AA@ 0000000180036ac8     libucrt:lcidtoname_downlevel.obj
 0002:00004ad0       ??_C@_15BPIGNHCD@?$AAn?$AAo?$AA?$AA@ 0000000180036ad0     libucrt:lcidtoname_downlevel.obj
 0002:00004ad8       ??_C@_15DEOPBLCG@?$AAp?$AAl?$AA?$AA@ 0000000180036ad8     libucrt:lcidtoname_downlevel.obj
 0002:00004ae0       ??_C@_15KBECGEFG@?$AAp?$AAt?$AA?$AA@ 0000000180036ae0     libucrt:lcidtoname_downlevel.obj
 0002:00004ae8       ??_C@_15GLJCBFMD@?$AAr?$AAo?$AA?$AA@ 0000000180036ae8     libucrt:lcidtoname_downlevel.obj
 0002:00004af0       ??_C@_15FEDGKCDI@?$AAr?$AAu?$AA?$AA@ 0000000180036af0     libucrt:lcidtoname_downlevel.obj
 0002:00004af8       ??_C@_15GLKMLLHM@?$AAh?$AAr?$AA?$AA@ 0000000180036af8     libucrt:lcidtoname_downlevel.obj
 0002:00004b00       ??_C@_15CPKMFBDB@?$AAs?$AAk?$AA?$AA@ 0000000180036b00     libucrt:lcidtoname_downlevel.obj
 0002:00004b08       ??_C@_15BAAIOGMK@?$AAs?$AAq?$AA?$AA@ 0000000180036b08     libucrt:lcidtoname_downlevel.obj
 0002:00004b10       ??_C@_15INNPNOHD@?$AAs?$AAv?$AA?$AA@ 0000000180036b10     libucrt:lcidtoname_downlevel.obj
 0002:00004b18       ??_C@_15CABMMOGH@?$AAt?$AAh?$AA?$AA@ 0000000180036b18     libucrt:lcidtoname_downlevel.obj
 0002:00004b20       ??_C@_15BPLIHJJM@?$AAt?$AAr?$AA?$AA@ 0000000180036b20     libucrt:lcidtoname_downlevel.obj
 0002:00004b28       ??_C@_15NEOEKKDJ@?$AAu?$AAr?$AA?$AA@ 0000000180036b28     libucrt:lcidtoname_downlevel.obj
 0002:00004b30       ??_C@_15NFICGAJK@?$AAi?$AAd?$AA?$AA@ 0000000180036b30     libucrt:lcidtoname_downlevel.obj
 0002:00004b38       ??_C@_15HPJPHDM@?$AAb?$AAe?$AA?$AA@ 0000000180036b38     libucrt:lcidtoname_downlevel.obj
 0002:00004b40       ??_C@_15LCHLGJII@?$AAs?$AAl?$AA?$AA@ 0000000180036b40     libucrt:lcidtoname_downlevel.obj
 0002:00004b48       ??_C@_15PCFJPHHO@?$AAe?$AAt?$AA?$AA@ 0000000180036b48     libucrt:lcidtoname_downlevel.obj
 0002:00004b50       ??_C@_15HPFPGODN@?$AAl?$AAv?$AA?$AA@ 0000000180036b50     libucrt:lcidtoname_downlevel.obj
 0002:00004b58       ??_C@_15NFFGKGLG@?$AAl?$AAt?$AA?$AA@ 0000000180036b58     libucrt:lcidtoname_downlevel.obj
 0002:00004b60       ??_C@_15BDAKCCHN@?$AAf?$AAa?$AA?$AA@ 0000000180036b60     libucrt:lcidtoname_downlevel.obj
 0002:00004b68       ??_C@_15NFGIAIAJ@?$AAv?$AAi?$AA?$AA@ 0000000180036b68     libucrt:lcidtoname_downlevel.obj
 0002:00004b70       ??_C@_15LMKNDMHN@?$AAh?$AAy?$AA?$AA@ 0000000180036b70     libucrt:lcidtoname_downlevel.obj
 0002:00004b78       ??_C@_15IJBHMCFL@?$AAa?$AAz?$AA?$AA@ 0000000180036b78     libucrt:lcidtoname_downlevel.obj
 0002:00004b80       ??_C@_15EKOFJABL@?$AAe?$AAu?$AA?$AA@ 0000000180036b80     libucrt:lcidtoname_downlevel.obj
 0002:00004b88       ??_C@_15BGHADCNK@?$AAm?$AAk?$AA?$AA@ 0000000180036b88     libucrt:lcidtoname_downlevel.obj
 0002:00004b90       ??_C@_15JDNICKHM@?$AAa?$AAf?$AA?$AA@ 0000000180036b90     libucrt:lcidtoname_downlevel.obj
 0002:00004b98       ??_C@_15KPJEDBKD@?$AAk?$AAa?$AA?$AA@ 0000000180036b98     libucrt:lcidtoname_downlevel.obj
 0002:00004ba0       ??_C@_15PDNFFFEO@?$AAf?$AAo?$AA?$AA@ 0000000180036ba0     libucrt:lcidtoname_downlevel.obj
 0002:00004ba8       ??_C@_15OMLEGLOC@?$AAh?$AAi?$AA?$AA@ 0000000180036ba8     libucrt:lcidtoname_downlevel.obj
 0002:00004bb0       ??_C@_15IDNNENKK@?$AAm?$AAs?$AA?$AA@ 0000000180036bb0     libucrt:lcidtoname_downlevel.obj
 0002:00004bb8       ??_C@_15MACJNBMH@?$AAk?$AAk?$AA?$AA@ 0000000180036bb8     libucrt:lcidtoname_downlevel.obj
 0002:00004bc0       ??_C@_15DKDJEOND@?$AAk?$AAy?$AA?$AA@ 0000000180036bc0     libucrt:lcidtoname_downlevel.obj
 0002:00004bc8       ??_C@_15DFGDLJBG@?$AAs?$AAw?$AA?$AA@ 0000000180036bc8     libucrt:lcidtoname_downlevel.obj
 0002:00004bd0       ??_C@_15BBFAICNG@?$AAu?$AAz?$AA?$AA@ 0000000180036bd0     libucrt:lcidtoname_downlevel.obj
 0002:00004bd8       ??_C@_15DKNDCGEA@?$AAt?$AAt?$AA?$AA@ 0000000180036bd8     libucrt:lcidtoname_downlevel.obj
 0002:00004be0       ??_C@_15MGIFMDPL@?$AAp?$AAa?$AA?$AA@ 0000000180036be0     libucrt:lcidtoname_downlevel.obj
 0002:00004be8       ??_C@_15HCNDBBA@?$AAg?$AAu?$AA?$AA@ 0000000180036be8     libucrt:lcidtoname_downlevel.obj
 0002:00004bf0       ??_C@_15FNBEIBON@?$AAt?$AAa?$AA?$AA@ 0000000180036bf0     libucrt:lcidtoname_downlevel.obj
 0002:00004bf8       ??_C@_15NCHGBGLK@?$AAt?$AAe?$AA?$AA@ 0000000180036bf8     libucrt:lcidtoname_downlevel.obj
 0002:00004c00       ??_C@_15PHPHCBPF@?$AAk?$AAn?$AA?$AA@ 0000000180036c00     libucrt:lcidtoname_downlevel.obj
 0002:00004c08       ??_C@_15DLGBCKMP@?$AAm?$AAr?$AA?$AA@ 0000000180036c08     libucrt:lcidtoname_downlevel.obj
 0002:00004c10       ??_C@_15EABBLBFF@?$AAs?$AAa?$AA?$AA@ 0000000180036c10     libucrt:lcidtoname_downlevel.obj
 0002:00004c18       ??_C@_15CBKOMCOI@?$AAm?$AAn?$AA?$AA@ 0000000180036c18     libucrt:lcidtoname_downlevel.obj
 0002:00004c20       ??_C@_15CKDMCJAF@?$AAg?$AAl?$AA?$AA@ 0000000180036c20     libucrt:lcidtoname_downlevel.obj
 0002:00004c28       ??_C@_17CNJFBPG@?$AAk?$AAo?$AAk?$AA?$AA@ 0000000180036c28     libucrt:lcidtoname_downlevel.obj
 0002:00004c30       ??_C@_17FFBJICPL@?$AAs?$AAy?$AAr?$AA?$AA@ 0000000180036c30     libucrt:lcidtoname_downlevel.obj
 0002:00004c38       ??_C@_17KPNDCPAF@?$AAd?$AAi?$AAv?$AA?$AA@ 0000000180036c38     libucrt:lcidtoname_downlevel.obj
 0002:00004c40       ??_C@_11LOCGONAA@?$AA?$AA@ 0000000180036c40     libucrt:lcidtoname_downlevel.obj
 0002:00004c48       ??_C@_1M@OKAHONE@?$AAa?$AAr?$AA?9?$AAS?$AAA?$AA?$AA@ 0000000180036c48     libucrt:lcidtoname_downlevel.obj
 0002:00004c58       ??_C@_1M@FFFIGIGK@?$AAb?$AAg?$AA?9?$AAB?$AAG?$AA?$AA@ 0000000180036c58     libucrt:lcidtoname_downlevel.obj
 0002:00004c68       ??_C@_1M@BJNKEDC@?$AAc?$AAa?$AA?9?$AAE?$AAS?$AA?$AA@ 0000000180036c68     libucrt:lcidtoname_downlevel.obj
 0002:00004c78       ??_C@_1M@IJJHFJHA@?$AAc?$AAs?$AA?9?$AAC?$AAZ?$AA?$AA@ 0000000180036c78     libucrt:lcidtoname_downlevel.obj
 0002:00004c88       ??_C@_1M@CLPEOBGI@?$AAd?$AAa?$AA?9?$AAD?$AAK?$AA?$AA@ 0000000180036c88     libucrt:lcidtoname_downlevel.obj
 0002:00004c98       ??_C@_1M@MCMADGCB@?$AAd?$AAe?$AA?9?$AAD?$AAE?$AA?$AA@ 0000000180036c98     libucrt:lcidtoname_downlevel.obj
 0002:00004ca8       ??_C@_1M@OOCKEMAM@?$AAe?$AAl?$AA?9?$AAG?$AAR?$AA?$AA@ 0000000180036ca8     libucrt:lcidtoname_downlevel.obj
 0002:00004cb8       ??_C@_1M@DDNJFGID@?$AAf?$AAi?$AA?9?$AAF?$AAI?$AA?$AA@ 0000000180036cb8     libucrt:lcidtoname_downlevel.obj
 0002:00004cc8       ??_C@_1M@GLIPPMAC@?$AAf?$AAr?$AA?9?$AAF?$AAR?$AA?$AA@ 0000000180036cc8     libucrt:lcidtoname_downlevel.obj
 0002:00004cd8       ??_C@_1M@GFMCHPE@?$AAh?$AAe?$AA?9?$AAI?$AAL?$AA?$AA@ 0000000180036cd8     libucrt:lcidtoname_downlevel.obj
 0002:00004ce8       ??_C@_1M@MHLPGNKM@?$AAh?$AAu?$AA?9?$AAH?$AAU?$AA?$AA@ 0000000180036ce8     libucrt:lcidtoname_downlevel.obj
 0002:00004cf8       ??_C@_1M@LPDDNNPN@?$AAi?$AAs?$AA?9?$AAI?$AAS?$AA?$AA@ 0000000180036cf8     libucrt:lcidtoname_downlevel.obj
 0002:00004d08       ??_C@_1M@MADIPODN@?$AAi?$AAt?$AA?9?$AAI?$AAT?$AA?$AA@ 0000000180036d08     libucrt:lcidtoname_downlevel.obj
 0002:00004d18       ??_C@_1M@IHBJJGG@?$AAn?$AAl?$AA?9?$AAN?$AAL?$AA?$AA@ 0000000180036d18     libucrt:lcidtoname_downlevel.obj
 0002:00004d28       ??_C@_1M@EANAGDL@?$AAn?$AAb?$AA?9?$AAN?$AAO?$AA?$AA@ 0000000180036d28     libucrt:lcidtoname_downlevel.obj
 0002:00004d38       ??_C@_1M@NEIEMEGP@?$AAp?$AAl?$AA?9?$AAP?$AAL?$AA?$AA@ 0000000180036d38     libucrt:lcidtoname_downlevel.obj
 0002:00004d48       ??_C@_1M@BOCFIGEP@?$AAp?$AAt?$AA?9?$AAB?$AAR?$AA?$AA@ 0000000180036d48     libucrt:lcidtoname_downlevel.obj
 0002:00004d58       ??_C@_1M@IMPFOPBG@?$AAr?$AAo?$AA?9?$AAR?$AAO?$AA?$AA@ 0000000180036d58     libucrt:lcidtoname_downlevel.obj
 0002:00004d68       ??_C@_1M@IDNNEJMM@?$AAr?$AAu?$AA?9?$AAR?$AAU?$AA?$AA@ 0000000180036d68     libucrt:lcidtoname_downlevel.obj
 0002:00004d78       ??_C@_1M@LILEEOGM@?$AAh?$AAr?$AA?9?$AAH?$AAR?$AA?$AA@ 0000000180036d78     libucrt:lcidtoname_downlevel.obj
 0002:00004d88       ??_C@_1M@FKIFEHPB@?$AAs?$AAk?$AA?9?$AAS?$AAK?$AA?$AA@ 0000000180036d88     libucrt:lcidtoname_downlevel.obj
 0002:00004d98       ??_C@_1M@LJMAMNPJ@?$AAs?$AAq?$AA?9?$AAA?$AAL?$AA?$AA@ 0000000180036d98     libucrt:lcidtoname_downlevel.obj
 0002:00004da8       ??_C@_1M@GIAKDKJK@?$AAs?$AAv?$AA?9?$AAS?$AAE?$AA?$AA@ 0000000180036da8     libucrt:lcidtoname_downlevel.obj
 0002:00004db8       ??_C@_1M@MKJKIKCL@?$AAt?$AAh?$AA?9?$AAT?$AAH?$AA?$AA@ 0000000180036db8     libucrt:lcidtoname_downlevel.obj
 0002:00004dc8       ??_C@_1M@MFLCCMPB@?$AAt?$AAr?$AA?9?$AAT?$AAR?$AA?$AA@ 0000000180036dc8     libucrt:lcidtoname_downlevel.obj
 0002:00004dd8       ??_C@_1M@OIJHDKJN@?$AAu?$AAr?$AA?9?$AAP?$AAK?$AA?$AA@ 0000000180036dd8     libucrt:lcidtoname_downlevel.obj
 0002:00004de8       ??_C@_1M@LHIPCIEK@?$AAi?$AAd?$AA?9?$AAI?$AAD?$AA?$AA@ 0000000180036de8     libucrt:lcidtoname_downlevel.obj
 0002:00004df8       ??_C@_1M@MFMOBGI@?$AAu?$AAk?$AA?9?$AAU?$AAA?$AA?$AA@ 0000000180036df8     libucrt:lcidtoname_downlevel.obj
 0002:00004e08       ??_C@_1M@OBGLJIPL@?$AAb?$AAe?$AA?9?$AAB?$AAY?$AA?$AA@ 0000000180036e08     libucrt:lcidtoname_downlevel.obj
 0002:00004e18       ??_C@_1M@BCFAJEAD@?$AAs?$AAl?$AA?9?$AAS?$AAI?$AA?$AA@ 0000000180036e18     libucrt:lcidtoname_downlevel.obj
 0002:00004e28       ??_C@_1M@FKFFEDDN@?$AAe?$AAt?$AA?9?$AAE?$AAE?$AA?$AA@ 0000000180036e28     libucrt:lcidtoname_downlevel.obj
 0002:00004e38       ??_C@_1M@KGKKAACI@?$AAl?$AAv?$AA?9?$AAL?$AAV?$AA?$AA@ 0000000180036e38     libucrt:lcidtoname_downlevel.obj
 0002:00004e48       ??_C@_1M@IFGBIJO@?$AAl?$AAt?$AA?9?$AAL?$AAT?$AA?$AA@ 0000000180036e48     libucrt:lcidtoname_downlevel.obj
 0002:00004e58       ??_C@_1M@FGEAHEDM@?$AAf?$AAa?$AA?9?$AAI?$AAR?$AA?$AA@ 0000000180036e58     libucrt:lcidtoname_downlevel.obj
 0002:00004e68       ??_C@_1M@KBMAIBFN@?$AAv?$AAi?$AA?9?$AAV?$AAN?$AA?$AA@ 0000000180036e68     libucrt:lcidtoname_downlevel.obj
 0002:00004e78       ??_C@_1M@GPCBKDJK@?$AAh?$AAy?$AA?9?$AAA?$AAM?$AA?$AA@ 0000000180036e78     libucrt:lcidtoname_downlevel.obj
 0002:00004e88       ??_C@_1BG@BECMDDJB@?$AAa?$AAz?$AA?9?$AAA?$AAZ?$AA?9?$AAL?$AAa?$AAt?$AAn?$AA?$AA@ 0000000180036e88     libucrt:lcidtoname_downlevel.obj
 0002:00004ea0       ??_C@_1M@MAOFCAEA@?$AAe?$AAu?$AA?9?$AAE?$AAS?$AA?$AA@ 0000000180036ea0     libucrt:lcidtoname_downlevel.obj
 0002:00004eb0       ??_C@_1M@IGHABKPI@?$AAm?$AAk?$AA?9?$AAM?$AAK?$AA?$AA@ 0000000180036eb0     libucrt:lcidtoname_downlevel.obj
 0002:00004ec0       ??_C@_1M@IAIGNEJG@?$AAt?$AAn?$AA?9?$AAZ?$AAA?$AA?$AA@ 0000000180036ec0     libucrt:lcidtoname_downlevel.obj
 0002:00004ed0       ??_C@_1M@IIJCOJFA@?$AAx?$AAh?$AA?9?$AAZ?$AAA?$AA?$AA@ 0000000180036ed0     libucrt:lcidtoname_downlevel.obj
 0002:00004ee0       ??_C@_1M@LGPJHNJH@?$AAz?$AAu?$AA?9?$AAZ?$AAA?$AA?$AA@ 0000000180036ee0     libucrt:lcidtoname_downlevel.obj
 0002:00004ef0       ??_C@_1M@HOKAOIO@?$AAa?$AAf?$AA?9?$AAZ?$AAA?$AA?$AA@ 0000000180036ef0     libucrt:lcidtoname_downlevel.obj
 0002:00004f00       ??_C@_1M@DPCLHLIE@?$AAk?$AAa?$AA?9?$AAG?$AAE?$AA?$AA@ 0000000180036f00     libucrt:lcidtoname_downlevel.obj
 0002:00004f10       ??_C@_1M@BLKMHJBI@?$AAf?$AAo?$AA?9?$AAF?$AAO?$AA?$AA@ 0000000180036f10     libucrt:lcidtoname_downlevel.obj
 0002:00004f20       ??_C@_1M@LGGJAPPB@?$AAh?$AAi?$AA?9?$AAI?$AAN?$AA?$AA@ 0000000180036f20     libucrt:lcidtoname_downlevel.obj
 0002:00004f30       ??_C@_1M@FIKPIHFE@?$AAm?$AAt?$AA?9?$AAM?$AAT?$AA?$AA@ 0000000180036f30     libucrt:lcidtoname_downlevel.obj
 0002:00004f40       ??_C@_1M@HEGGPBFA@?$AAs?$AAe?$AA?9?$AAN?$AAO?$AA?$AA@ 0000000180036f40     libucrt:lcidtoname_downlevel.obj
 0002:00004f50       ??_C@_1M@EIBJEEPA@?$AAm?$AAs?$AA?9?$AAM?$AAY?$AA?$AA@ 0000000180036f50     libucrt:lcidtoname_downlevel.obj
 0002:00004f60       ??_C@_1M@FHLBGMPP@?$AAk?$AAk?$AA?9?$AAK?$AAZ?$AA?$AA@ 0000000180036f60     libucrt:lcidtoname_downlevel.obj
 0002:00004f70       ??_C@_1M@NGJJLCGI@?$AAk?$AAy?$AA?9?$AAK?$AAG?$AA?$AA@ 0000000180036f70     libucrt:lcidtoname_downlevel.obj
 0002:00004f80       ??_C@_1M@GIENNBFC@?$AAs?$AAw?$AA?9?$AAK?$AAE?$AA?$AA@ 0000000180036f80     libucrt:lcidtoname_downlevel.obj
 0002:00004f90       ??_C@_1BG@NDGMJIMJ@?$AAu?$AAz?$AA?9?$AAU?$AAZ?$AA?9?$AAL?$AAa?$AAt?$AAn?$AA?$AA@ 0000000180036f90     libucrt:lcidtoname_downlevel.obj
 0002:00004fa8       ??_C@_1M@IDCCIHBC@?$AAt?$AAt?$AA?9?$AAR?$AAU?$AA?$AA@ 0000000180036fa8     libucrt:lcidtoname_downlevel.obj
 0002:00004fb8       ??_C@_1M@LOICPMOJ@?$AAb?$AAn?$AA?9?$AAI?$AAN?$AA?$AA@ 0000000180036fb8     libucrt:lcidtoname_downlevel.obj
 0002:00004fc8       ??_C@_1M@KPKKNEAH@?$AAp?$AAa?$AA?9?$AAI?$AAN?$AA?$AA@ 0000000180036fc8     libucrt:lcidtoname_downlevel.obj
 0002:00004fd8       ??_C@_1M@PJGPPBOG@?$AAg?$AAu?$AA?9?$AAI?$AAN?$AA?$AA@ 0000000180036fd8     libucrt:lcidtoname_downlevel.obj
 0002:00004fe8       ??_C@_1M@KMKMOPHI@?$AAt?$AAa?$AA?9?$AAI?$AAN?$AA?$AA@ 0000000180036fe8     libucrt:lcidtoname_downlevel.obj
 0002:00004ff8       ??_C@_1M@KFEHEPAC@?$AAt?$AAe?$AA?9?$AAI?$AAN?$AA?$AA@ 0000000180036ff8     libucrt:lcidtoname_downlevel.obj
 0002:00005008       ??_C@_1M@CDCLMGHI@?$AAk?$AAn?$AA?9?$AAI?$AAN?$AA?$AA@ 0000000180037008     libucrt:lcidtoname_downlevel.obj
 0002:00005018       ??_C@_1M@MIODLDKF@?$AAm?$AAl?$AA?9?$AAI?$AAN?$AA?$AA@ 0000000180037018     libucrt:lcidtoname_downlevel.obj
 0002:00005028       ??_C@_1M@PBIEACPO@?$AAm?$AAr?$AA?9?$AAI?$AAN?$AA?$AA@ 0000000180037028     libucrt:lcidtoname_downlevel.obj
 0002:00005038       ??_C@_1M@NIDEAGPH@?$AAs?$AAa?$AA?9?$AAI?$AAN?$AA?$AA@ 0000000180037038     libucrt:lcidtoname_downlevel.obj
 0002:00005048       ??_C@_1M@FHIHCBIO@?$AAm?$AAn?$AA?9?$AAM?$AAN?$AA?$AA@ 0000000180037048     libucrt:lcidtoname_downlevel.obj
 0002:00005058       ??_C@_1M@JAIJPENP@?$AAc?$AAy?$AA?9?$AAG?$AAB?$AA?$AA@ 0000000180037058     libucrt:lcidtoname_downlevel.obj
 0002:00005068       ??_C@_1M@PHGFBEPN@?$AAg?$AAl?$AA?9?$AAE?$AAS?$AA?$AA@ 0000000180037068     libucrt:lcidtoname_downlevel.obj
 0002:00005078       ??_C@_1O@KPIPDNCP@?$AAk?$AAo?$AAk?$AA?9?$AAI?$AAN?$AA?$AA@ 0000000180037078     libucrt:lcidtoname_downlevel.obj
 0002:00005088       ??_C@_1O@KNHJLDJA@?$AAs?$AAy?$AAr?$AA?9?$AAS?$AAY?$AA?$AA@ 0000000180037088     libucrt:lcidtoname_downlevel.obj
 0002:00005098       ??_C@_1O@MKEKBLAH@?$AAd?$AAi?$AAv?$AA?9?$AAM?$AAV?$AA?$AA@ 0000000180037098     libucrt:lcidtoname_downlevel.obj
 0002:000050a8       ??_C@_1O@OHDCKDDF@?$AAq?$AAu?$AAz?$AA?9?$AAB?$AAO?$AA?$AA@ 00000001800370a8     libucrt:lcidtoname_downlevel.obj
 0002:000050b8       ??_C@_1M@LEPJNLFD@?$AAn?$AAs?$AA?9?$AAZ?$AAA?$AA?$AA@ 00000001800370b8     libucrt:lcidtoname_downlevel.obj
 0002:000050c8       ??_C@_1M@OMLEIIJB@?$AAm?$AAi?$AA?9?$AAN?$AAZ?$AA?$AA@ 00000001800370c8     libucrt:lcidtoname_downlevel.obj
 0002:000050d8       ??_C@_1M@PMPEAILG@?$AAa?$AAr?$AA?9?$AAI?$AAQ?$AA?$AA@ 00000001800370d8     libucrt:lcidtoname_downlevel.obj
 0002:000050e8       ??_C@_1M@CNKPNOEE@?$AAd?$AAe?$AA?9?$AAC?$AAH?$AA?$AA@ 00000001800370e8     libucrt:lcidtoname_downlevel.obj
 0002:000050f8       ??_C@_1M@LKMGMLKO@?$AAe?$AAn?$AA?9?$AAG?$AAB?$AA?$AA@ 00000001800370f8     libucrt:lcidtoname_downlevel.obj
 0002:00005108       ??_C@_1M@PGKJFFGL@?$AAe?$AAs?$AA?9?$AAM?$AAX?$AA?$AA@ 0000000180037108     libucrt:lcidtoname_downlevel.obj
 0002:00005118       ??_C@_1M@DNNANBDC@?$AAf?$AAr?$AA?9?$AAB?$AAE?$AA?$AA@ 0000000180037118     libucrt:lcidtoname_downlevel.obj
 0002:00005128       ??_C@_1M@HLGMDFHM@?$AAi?$AAt?$AA?9?$AAC?$AAH?$AA?$AA@ 0000000180037128     libucrt:lcidtoname_downlevel.obj
 0002:00005138       ??_C@_1M@CLLBGJH@?$AAn?$AAl?$AA?9?$AAB?$AAE?$AA?$AA@ 0000000180037138     libucrt:lcidtoname_downlevel.obj
 0002:00005148       ??_C@_1M@BODBOGLF@?$AAn?$AAn?$AA?9?$AAN?$AAO?$AA?$AA@ 0000000180037148     libucrt:lcidtoname_downlevel.obj
 0002:00005158       ??_C@_1M@HFFAHKAD@?$AAp?$AAt?$AA?9?$AAP?$AAT?$AA?$AA@ 0000000180037158     libucrt:lcidtoname_downlevel.obj
 0002:00005168       ??_C@_1BG@LNOAKHIE@?$AAs?$AAr?$AA?9?$AAS?$AAP?$AA?9?$AAL?$AAa?$AAt?$AAn?$AA?$AA@ 0000000180037168     libucrt:lcidtoname_downlevel.obj
 0002:00005180       ??_C@_1M@HBMHBGAK@?$AAs?$AAv?$AA?9?$AAF?$AAI?$AA?$AA@ 0000000180037180     libucrt:lcidtoname_downlevel.obj
 0002:00005190       ??_C@_1BG@DGCJGJBE@?$AAa?$AAz?$AA?9?$AAA?$AAZ?$AA?9?$AAC?$AAy?$AAr?$AAl?$AA?$AA@ 0000000180037190     libucrt:lcidtoname_downlevel.obj
 0002:000051a8       ??_C@_1M@KEJDAAHB@?$AAs?$AAe?$AA?9?$AAS?$AAE?$AA?$AA@ 00000001800371a8     libucrt:lcidtoname_downlevel.obj
 0002:000051b8       ??_C@_1M@HEIBJJAD@?$AAm?$AAs?$AA?9?$AAB?$AAN?$AA?$AA@ 00000001800371b8     libucrt:lcidtoname_downlevel.obj
 0002:000051c8       ??_C@_1BG@PBGJMCEM@?$AAu?$AAz?$AA?9?$AAU?$AAZ?$AA?9?$AAC?$AAy?$AAr?$AAl?$AA?$AA@ 00000001800371c8     libucrt:lcidtoname_downlevel.obj
 0002:000051e0       ??_C@_1O@LAOBCMDF@?$AAq?$AAu?$AAz?$AA?9?$AAE?$AAC?$AA?$AA@ 00000001800371e0     libucrt:lcidtoname_downlevel.obj
 0002:000051f0       ??_C@_1M@POEEMAIO@?$AAa?$AAr?$AA?9?$AAE?$AAG?$AA?$AA@ 00000001800371f0     libucrt:lcidtoname_downlevel.obj
 0002:00005200       ??_C@_1M@EFAKDEDL@?$AAz?$AAh?$AA?9?$AAH?$AAK?$AA?$AA@ 0000000180037200     libucrt:lcidtoname_downlevel.obj
 0002:00005210       ??_C@_1M@HKKIJHGI@?$AAd?$AAe?$AA?9?$AAA?$AAT?$AA?$AA@ 0000000180037210     libucrt:lcidtoname_downlevel.obj
 0002:00005220       ??_C@_1M@KBFBEHJF@?$AAe?$AAn?$AA?9?$AAA?$AAU?$AA?$AA@ 0000000180037220     libucrt:lcidtoname_downlevel.obj
 0002:00005230       ??_C@_1M@MNPLFAAH@?$AAe?$AAs?$AA?9?$AAE?$AAS?$AA?$AA@ 0000000180037230     libucrt:lcidtoname_downlevel.obj
 0002:00005240       ??_C@_1M@HJOOJFMA@?$AAf?$AAr?$AA?9?$AAC?$AAA?$AA?$AA@ 0000000180037240     libucrt:lcidtoname_downlevel.obj
 0002:00005250       ??_C@_1BG@JPOFPNAB@?$AAs?$AAr?$AA?9?$AAS?$AAP?$AA?9?$AAC?$AAy?$AAr?$AAl?$AA?$AA@ 0000000180037250     libucrt:lcidtoname_downlevel.obj
 0002:00005268       ??_C@_1M@LNFOCMOB@?$AAs?$AAe?$AA?9?$AAF?$AAI?$AA?$AA@ 0000000180037268     libucrt:lcidtoname_downlevel.obj
 0002:00005278       ??_C@_1O@MGJBOAMB@?$AAq?$AAu?$AAz?$AA?9?$AAP?$AAE?$AA?$AA@ 0000000180037278     libucrt:lcidtoname_downlevel.obj
 0002:00005288       ??_C@_1M@GJINLBOK@?$AAa?$AAr?$AA?9?$AAL?$AAY?$AA?$AA@ 0000000180037288     libucrt:lcidtoname_downlevel.obj
 0002:00005298       ??_C@_1M@GGMNHJNL@?$AAz?$AAh?$AA?9?$AAS?$AAG?$AA?$AA@ 0000000180037298     libucrt:lcidtoname_downlevel.obj
 0002:000052a8       ??_C@_1M@HOIKODND@?$AAd?$AAe?$AA?9?$AAL?$AAU?$AA?$AA@ 00000001800372a8     libucrt:lcidtoname_downlevel.obj
 0002:000052b8       ??_C@_1M@DDOCCGFG@?$AAe?$AAn?$AA?9?$AAC?$AAA?$AA?$AA@ 00000001800372b8     libucrt:lcidtoname_downlevel.obj
 0002:000052c8       ??_C@_1M@BNOEMJLF@?$AAe?$AAs?$AA?9?$AAG?$AAT?$AA?$AA@ 00000001800372c8     libucrt:lcidtoname_downlevel.obj
 0002:000052d8       ??_C@_1M@EOGNKEK@?$AAf?$AAr?$AA?9?$AAC?$AAH?$AA?$AA@ 00000001800372d8     libucrt:lcidtoname_downlevel.obj
 0002:000052e8       ??_C@_1M@FLIDJFHL@?$AAh?$AAr?$AA?9?$AAB?$AAA?$AA?$AA@ 00000001800372e8     libucrt:lcidtoname_downlevel.obj
 0002:000052f8       ??_C@_1O@FMCELNAJ@?$AAs?$AAm?$AAj?$AA?9?$AAN?$AAO?$AA?$AA@ 00000001800372f8     libucrt:lcidtoname_downlevel.obj
 0002:00005308       ??_C@_1M@JHGLJMGJ@?$AAa?$AAr?$AA?9?$AAD?$AAZ?$AA?$AA@ 0000000180037308     libucrt:lcidtoname_downlevel.obj
 0002:00005318       ??_C@_1M@JKKFDCNP@?$AAz?$AAh?$AA?9?$AAM?$AAO?$AA?$AA@ 0000000180037318     libucrt:lcidtoname_downlevel.obj
 0002:00005328       ??_C@_1M@GEEFALPE@?$AAd?$AAe?$AA?9?$AAL?$AAI?$AA?$AA@ 0000000180037328     libucrt:lcidtoname_downlevel.obj
 0002:00005338       ??_C@_1M@IGEOFBG@?$AAe?$AAn?$AA?9?$AAN?$AAZ?$AA?$AA@ 0000000180037338     libucrt:lcidtoname_downlevel.obj
 0002:00005348       ??_C@_1M@KDBONEHP@?$AAe?$AAs?$AA?9?$AAC?$AAR?$AA?$AA@ 0000000180037348     libucrt:lcidtoname_downlevel.obj
 0002:00005358       ??_C@_1M@FHMDOHNN@?$AAf?$AAr?$AA?9?$AAL?$AAU?$AA?$AA@ 0000000180037358     libucrt:lcidtoname_downlevel.obj
 0002:00005368       ??_C@_1BG@NFKKMAFG@?$AAb?$AAs?$AA?9?$AAB?$AAA?$AA?9?$AAL?$AAa?$AAt?$AAn?$AA?$AA@ 0000000180037368     libucrt:lcidtoname_downlevel.obj
 0002:00005380       ??_C@_1O@IMNBEMCI@?$AAs?$AAm?$AAj?$AA?9?$AAS?$AAE?$AA?$AA@ 0000000180037380     libucrt:lcidtoname_downlevel.obj
 0002:00005390       ??_C@_1M@DHHMBNDP@?$AAa?$AAr?$AA?9?$AAM?$AAA?$AA?$AA@ 0000000180037390     libucrt:lcidtoname_downlevel.obj
 0002:000053a0       ??_C@_1M@BNBLJCGH@?$AAe?$AAn?$AA?9?$AAI?$AAE?$AA?$AA@ 00000001800373a0     libucrt:lcidtoname_downlevel.obj
 0002:000053b0       ??_C@_1M@GEPAFMDL@?$AAe?$AAs?$AA?9?$AAP?$AAA?$AA?$AA@ 00000001800373b0     libucrt:lcidtoname_downlevel.obj
 0002:000053c0       ??_C@_1M@OJONDMDL@?$AAf?$AAr?$AA?9?$AAM?$AAC?$AA?$AA@ 00000001800373c0     libucrt:lcidtoname_downlevel.obj
 0002:000053d0       ??_C@_1BG@OBCNFJB@?$AAs?$AAr?$AA?9?$AAB?$AAA?$AA?9?$AAL?$AAa?$AAt?$AAn?$AA?$AA@ 00000001800373d0     libucrt:lcidtoname_downlevel.obj
 0002:000053e8       ??_C@_1O@KEMEEGPO@?$AAs?$AAm?$AAa?$AA?9?$AAN?$AAO?$AA?$AA@ 00000001800373e8     libucrt:lcidtoname_downlevel.obj
 0002:000053f8       ??_C@_1M@ELMGFODK@?$AAa?$AAr?$AA?9?$AAT?$AAN?$AA?$AA@ 00000001800373f8     libucrt:lcidtoname_downlevel.obj
 0002:00005408       ??_C@_1M@BHDLHFAF@?$AAe?$AAn?$AA?9?$AAZ?$AAA?$AA?$AA@ 0000000180037408     libucrt:lcidtoname_downlevel.obj
 0002:00005418       ??_C@_1M@BMGIGLIF@?$AAe?$AAs?$AA?9?$AAD?$AAO?$AA?$AA@ 0000000180037418     libucrt:lcidtoname_downlevel.obj
 0002:00005428       ??_C@_1BG@CMBHIPBE@?$AAs?$AAr?$AA?9?$AAB?$AAA?$AA?9?$AAC?$AAy?$AAr?$AAl?$AA?$AA@ 0000000180037428     libucrt:lcidtoname_downlevel.obj
 0002:00005440       ??_C@_1O@HEDBLHNP@?$AAs?$AAm?$AAa?$AA?9?$AAS?$AAE?$AA?$AA@ 0000000180037440     libucrt:lcidtoname_downlevel.obj
 0002:00005450       ??_C@_1M@DAGCADIM@?$AAa?$AAr?$AA?9?$AAO?$AAM?$AA?$AA@ 0000000180037450     libucrt:lcidtoname_downlevel.obj
 0002:00005460       ??_C@_1M@FODLMICG@?$AAe?$AAn?$AA?9?$AAJ?$AAM?$AA?$AA@ 0000000180037460     libucrt:lcidtoname_downlevel.obj
 0002:00005470       ??_C@_1M@DNMLCIHB@?$AAe?$AAs?$AA?9?$AAV?$AAE?$AA?$AA@ 0000000180037470     libucrt:lcidtoname_downlevel.obj
 0002:00005480       ??_C@_1O@EOKHMKJK@?$AAs?$AAm?$AAs?$AA?9?$AAF?$AAI?$AA?$AA@ 0000000180037480     libucrt:lcidtoname_downlevel.obj
 0002:00005490       ??_C@_1M@CAFJMKOF@?$AAa?$AAr?$AA?9?$AAY?$AAE?$AA?$AA@ 0000000180037490     libucrt:lcidtoname_downlevel.obj
 0002:000054a0       ??_C@_1M@CBFHIJLI@?$AAe?$AAn?$AA?9?$AAC?$AAB?$AA?$AA@ 00000001800374a0     libucrt:lcidtoname_downlevel.obj
 0002:000054b0       ??_C@_1M@BGNFLDN@?$AAe?$AAs?$AA?9?$AAC?$AAO?$AA?$AA@ 00000001800374b0     libucrt:lcidtoname_downlevel.obj
 0002:000054c0       ??_C@_1O@JMPHMAMC@?$AAs?$AAm?$AAn?$AA?9?$AAF?$AAI?$AA?$AA@ 00000001800374c0     libucrt:lcidtoname_downlevel.obj
 0002:000054d0       ??_C@_1M@JLANABKE@?$AAa?$AAr?$AA?9?$AAS?$AAY?$AA?$AA@ 00000001800374d0     libucrt:lcidtoname_downlevel.obj
 0002:000054e0       ??_C@_1M@HPKGCFGN@?$AAe?$AAn?$AA?9?$AAB?$AAZ?$AA?$AA@ 00000001800374e0     libucrt:lcidtoname_downlevel.obj
 0002:000054f0       ??_C@_1M@OLJCMLGM@?$AAe?$AAs?$AA?9?$AAP?$AAE?$AA?$AA@ 00000001800374f0     libucrt:lcidtoname_downlevel.obj
 0002:00005500       ??_C@_1M@MKKGFKLE@?$AAa?$AAr?$AA?9?$AAJ?$AAO?$AA?$AA@ 0000000180037500     libucrt:lcidtoname_downlevel.obj
 0002:00005510       ??_C@_1M@EKPGLDNI@?$AAe?$AAn?$AA?9?$AAT?$AAT?$AA?$AA@ 0000000180037510     libucrt:lcidtoname_downlevel.obj
 0002:00005520       ??_C@_1M@OONGHFHE@?$AAe?$AAs?$AA?9?$AAA?$AAR?$AA?$AA@ 0000000180037520     libucrt:lcidtoname_downlevel.obj
 0002:00005530       ??_C@_1M@OOJFGBHE@?$AAa?$AAr?$AA?9?$AAL?$AAB?$AA?$AA@ 0000000180037530     libucrt:lcidtoname_downlevel.obj
 0002:00005540       ??_C@_1M@GCEJHNEG@?$AAe?$AAn?$AA?9?$AAZ?$AAW?$AA?$AA@ 0000000180037540     libucrt:lcidtoname_downlevel.obj
 0002:00005550       ??_C@_1M@JNOCAHJI@?$AAe?$AAs?$AA?9?$AAE?$AAC?$AA?$AA@ 0000000180037550     libucrt:lcidtoname_downlevel.obj
 0002:00005560       ??_C@_1M@JEFHPGGB@?$AAa?$AAr?$AA?9?$AAK?$AAW?$AA?$AA@ 0000000180037560     libucrt:lcidtoname_downlevel.obj
 0002:00005570       ??_C@_1M@MLKIBJOJ@?$AAe?$AAn?$AA?9?$AAP?$AAH?$AA?$AA@ 0000000180037570     libucrt:lcidtoname_downlevel.obj
 0002:00005580       ??_C@_1M@BDNIPEND@?$AAe?$AAs?$AA?9?$AAC?$AAL?$AA?$AA@ 0000000180037580     libucrt:lcidtoname_downlevel.obj
 0002:00005590       ??_C@_1M@MPNMEKBD@?$AAa?$AAr?$AA?9?$AAA?$AAE?$AA?$AA@ 0000000180037590     libucrt:lcidtoname_downlevel.obj
 0002:000055a0       ??_C@_1M@KBJALCPI@?$AAe?$AAs?$AA?9?$AAU?$AAY?$AA?$AA@ 00000001800375a0     libucrt:lcidtoname_downlevel.obj
 0002:000055b0       ??_C@_1M@LLCCOAGA@?$AAa?$AAr?$AA?9?$AAB?$AAH?$AA?$AA@ 00000001800375b0     libucrt:lcidtoname_downlevel.obj
 0002:000055c0       ??_C@_1M@PBFNCDEL@?$AAe?$AAs?$AA?9?$AAP?$AAY?$AA?$AA@ 00000001800375c0     libucrt:lcidtoname_downlevel.obj
 0002:000055d0       ??_C@_1M@EDGINPNP@?$AAa?$AAr?$AA?9?$AAQ?$AAA?$AA?$AA@ 00000001800375d0     libucrt:lcidtoname_downlevel.obj
 0002:000055e0       ??_C@_1M@MKDBIIJI@?$AAe?$AAs?$AA?9?$AAB?$AAO?$AA?$AA@ 00000001800375e0     libucrt:lcidtoname_downlevel.obj
 0002:000055f0       ??_C@_1M@CPKKEBLD@?$AAe?$AAs?$AA?9?$AAS?$AAV?$AA?$AA@ 00000001800375f0     libucrt:lcidtoname_downlevel.obj
 0002:00005600       ??_C@_1M@NDBGMMJL@?$AAe?$AAs?$AA?9?$AAH?$AAN?$AA?$AA@ 0000000180037600     libucrt:lcidtoname_downlevel.obj
 0002:00005610       ??_C@_1M@JIJIBHDP@?$AAe?$AAs?$AA?9?$AAN?$AAI?$AA?$AA@ 0000000180037610     libucrt:lcidtoname_downlevel.obj
 0002:00005620       ??_C@_1M@CGFMKEEK@?$AAe?$AAs?$AA?9?$AAP?$AAR?$AA?$AA@ 0000000180037620     libucrt:lcidtoname_downlevel.obj
 0002:00005630       ??_C@_1O@ICJHKIIK@?$AAz?$AAh?$AA?9?$AAC?$AAH?$AAT?$AA?$AA@ 0000000180037630     libucrt:lcidtoname_downlevel.obj
 0002:00005640       ??_C@_15CLNEJCE@?$AAs?$AAr?$AA?$AA@ 0000000180037640     libucrt:lcidtoname_downlevel.obj
 0002:00006490       ??_C@_1M@KAHEKEIG@?$AAa?$AAf?$AA?9?$AAz?$AAa?$AA?$AA@ 0000000180038490     libucrt:lcidtoname_downlevel.obj
 0002:000064a0       ??_C@_1M@GIECOABL@?$AAa?$AAr?$AA?9?$AAa?$AAe?$AA?$AA@ 00000001800384a0     libucrt:lcidtoname_downlevel.obj
 0002:000064b0       ??_C@_1M@BMLMEKGI@?$AAa?$AAr?$AA?9?$AAb?$AAh?$AA?$AA@ 00000001800384b0     libucrt:lcidtoname_downlevel.obj
 0002:000064c0       ??_C@_1M@DAPFDGGB@?$AAa?$AAr?$AA?9?$AAd?$AAz?$AA?$AA@ 00000001800384c0     libucrt:lcidtoname_downlevel.obj
 0002:000064d0       ??_C@_1M@FJNKGKIG@?$AAa?$AAr?$AA?9?$AAe?$AAg?$AA?$AA@ 00000001800384d0     libucrt:lcidtoname_downlevel.obj
 0002:000064e0       ??_C@_1M@FLGKKCLO@?$AAa?$AAr?$AA?9?$AAi?$AAq?$AA?$AA@ 00000001800384e0     libucrt:lcidtoname_downlevel.obj
 0002:000064f0       ??_C@_1M@GNDIPALM@?$AAa?$AAr?$AA?9?$AAj?$AAo?$AA?$AA@ 00000001800384f0     libucrt:lcidtoname_downlevel.obj
 0002:00006500       ??_C@_1M@DDMJFMGJ@?$AAa?$AAr?$AA?9?$AAk?$AAw?$AA?$AA@ 0000000180038500     libucrt:lcidtoname_downlevel.obj
 0002:00006510       ??_C@_1M@EJALMLHM@?$AAa?$AAr?$AA?9?$AAl?$AAb?$AA?$AA@ 0000000180038510     libucrt:lcidtoname_downlevel.obj
 0002:00006520       ??_C@_1M@MOBDBLOC@?$AAa?$AAr?$AA?9?$AAl?$AAy?$AA?$AA@ 0000000180038520     libucrt:lcidtoname_downlevel.obj
 0002:00006530       ??_C@_1M@JAOCLHDH@?$AAa?$AAr?$AA?9?$AAm?$AAa?$AA?$AA@ 0000000180038530     libucrt:lcidtoname_downlevel.obj
 0002:00006540       ??_C@_1M@JHPMKJIE@?$AAa?$AAr?$AA?9?$AAo?$AAm?$AA?$AA@ 0000000180038540     libucrt:lcidtoname_downlevel.obj
 0002:00006550       ??_C@_1M@OEPGHFNH@?$AAa?$AAr?$AA?9?$AAq?$AAa?$AA?$AA@ 0000000180038550     libucrt:lcidtoname_downlevel.obj
 0002:00006560       ??_C@_1M@KJDONENM@?$AAa?$AAr?$AA?9?$AAs?$AAa?$AA?$AA@ 0000000180038560     libucrt:lcidtoname_downlevel.obj
 0002:00006570       ??_C@_1M@DMJDKLKM@?$AAa?$AAr?$AA?9?$AAs?$AAy?$AA?$AA@ 0000000180038570     libucrt:lcidtoname_downlevel.obj
 0002:00006580       ??_C@_1M@OMFIPEDC@?$AAa?$AAr?$AA?9?$AAt?$AAn?$AA?$AA@ 0000000180038580     libucrt:lcidtoname_downlevel.obj
 0002:00006590       ??_C@_1M@IHMHGAON@?$AAa?$AAr?$AA?9?$AAy?$AAe?$AA?$AA@ 0000000180038590     libucrt:lcidtoname_downlevel.obj
 0002:000065a0       ??_C@_1BG@KDCPGJGB@?$AAa?$AAz?$AA?9?$AAa?$AAz?$AA?9?$AAc?$AAy?$AAr?$AAl?$AA?$AA@ 00000001800385a0     libucrt:lcidtoname_downlevel.obj
 0002:000065b8       ??_C@_1BG@IBCKDDOE@?$AAa?$AAz?$AA?9?$AAa?$AAz?$AA?9?$AAl?$AAa?$AAt?$AAn?$AA?$AA@ 00000001800385b8     libucrt:lcidtoname_downlevel.obj
 0002:000065d0       ??_C@_1M@EGPFDCPD@?$AAb?$AAe?$AA?9?$AAb?$AAy?$AA?$AA@ 00000001800385d0     libucrt:lcidtoname_downlevel.obj
 0002:000065e0       ??_C@_1M@PCMGMCGC@?$AAb?$AAg?$AA?9?$AAb?$AAg?$AA?$AA@ 00000001800385e0     libucrt:lcidtoname_downlevel.obj
 0002:000065f0       ??_C@_1M@BJBMFGOB@?$AAb?$AAn?$AA?9?$AAi?$AAn?$AA?$AA@ 00000001800385f0     libucrt:lcidtoname_downlevel.obj
 0002:00006600       ??_C@_1BG@EAKMMACD@?$AAb?$AAs?$AA?9?$AAb?$AAa?$AA?9?$AAl?$AAa?$AAt?$AAn?$AA?$AA@ 0000000180038600     libucrt:lcidtoname_downlevel.obj
 0002:00006618       ??_C@_1M@KGADAODK@?$AAc?$AAa?$AA?9?$AAe?$AAs?$AA?$AA@ 0000000180038618     libucrt:lcidtoname_downlevel.obj
 0002:00006628       ??_C@_1M@COAJPDHI@?$AAc?$AAs?$AA?9?$AAc?$AAz?$AA?$AA@ 0000000180038628     libucrt:lcidtoname_downlevel.obj
 0002:00006638       ??_C@_1M@DHBHFONH@?$AAc?$AAy?$AA?9?$AAg?$AAb?$AA?$AA@ 0000000180038638     libucrt:lcidtoname_downlevel.obj
 0002:00006648       ??_C@_1M@IMGKELGA@?$AAd?$AAa?$AA?9?$AAd?$AAk?$AA?$AA@ 0000000180038648     libucrt:lcidtoname_downlevel.obj
 0002:00006658       ??_C@_1M@NNDGDNGA@?$AAd?$AAe?$AA?9?$AAa?$AAt?$AA?$AA@ 0000000180038658     libucrt:lcidtoname_downlevel.obj
 0002:00006668       ??_C@_1M@IKDBHEEM@?$AAd?$AAe?$AA?9?$AAc?$AAh?$AA?$AA@ 0000000180038668     libucrt:lcidtoname_downlevel.obj
 0002:00006678       ??_C@_1M@GFFOJMCJ@?$AAd?$AAe?$AA?9?$AAd?$AAe?$AA?$AA@ 0000000180038678     libucrt:lcidtoname_downlevel.obj
 0002:00006688       ??_C@_1M@MDNLKBPM@?$AAd?$AAe?$AA?9?$AAl?$AAi?$AA?$AA@ 0000000180038688     libucrt:lcidtoname_downlevel.obj
 0002:00006698       ??_C@_1M@NJBEEJNL@?$AAd?$AAe?$AA?9?$AAl?$AAu?$AA?$AA@ 0000000180038698     libucrt:lcidtoname_downlevel.obj
 0002:000066a8       ??_C@_1O@GNNELBAP@?$AAd?$AAi?$AAv?$AA?9?$AAm?$AAv?$AA?$AA@ 00000001800386a8     libucrt:lcidtoname_downlevel.obj
 0002:000066b8       ??_C@_1M@EJLEOGAE@?$AAe?$AAl?$AA?9?$AAg?$AAr?$AA?$AA@ 00000001800386b8     libucrt:lcidtoname_downlevel.obj
 0002:000066c8       ??_C@_1M@GMPONJN@?$AAe?$AAn?$AA?9?$AAa?$AAu?$AA?$AA@ 00000001800386c8     libucrt:lcidtoname_downlevel.obj
 0002:000066d8       ??_C@_1M@NIDIIPGF@?$AAe?$AAn?$AA?9?$AAb?$AAz?$AA?$AA@ 00000001800386d8     libucrt:lcidtoname_downlevel.obj
 0002:000066e8       ??_C@_1M@JEHMIMFO@?$AAe?$AAn?$AA?9?$AAc?$AAa?$AA?$AA@ 00000001800386e8     libucrt:lcidtoname_downlevel.obj
 0002:000066f8       ??_C@_1M@IGMJCDLA@?$AAe?$AAn?$AA?9?$AAc?$AAb?$AA?$AA@ 00000001800386f8     libucrt:lcidtoname_downlevel.obj
 0002:00006708       ??_C@_1M@BNFIGBKG@?$AAe?$AAn?$AA?9?$AAg?$AAb?$AA?$AA@ 0000000180038708     libucrt:lcidtoname_downlevel.obj
 0002:00006718       ??_C@_1M@LKIFDIGP@?$AAe?$AAn?$AA?9?$AAi?$AAe?$AA?$AA@ 0000000180038718     libucrt:lcidtoname_downlevel.obj
 0002:00006728       ??_C@_1M@PJKFGCCO@?$AAe?$AAn?$AA?9?$AAj?$AAm?$AA?$AA@ 0000000180038728     libucrt:lcidtoname_downlevel.obj
 0002:00006738       ??_C@_1M@KPPKEPBO@?$AAe?$AAn?$AA?9?$AAn?$AAz?$AA?$AA@ 0000000180038738     libucrt:lcidtoname_downlevel.obj
 0002:00006748       ??_C@_1M@GMDGLDOB@?$AAe?$AAn?$AA?9?$AAp?$AAh?$AA?$AA@ 0000000180038748     libucrt:lcidtoname_downlevel.obj
 0002:00006758       ??_C@_1M@ONGIBJNA@?$AAe?$AAn?$AA?9?$AAt?$AAt?$AA?$AA@ 0000000180038758     libucrt:lcidtoname_downlevel.obj
 0002:00006768       ??_C@_1M@LLODPCMM@?$AAe?$AAn?$AA?9?$AAu?$AAs?$AA?$AA@ 0000000180038768     libucrt:lcidtoname_downlevel.obj
 0002:00006778       ??_C@_1M@LAKFNPAN@?$AAe?$AAn?$AA?9?$AAz?$AAa?$AA?$AA@ 0000000180038778     libucrt:lcidtoname_downlevel.obj
 0002:00006788       ??_C@_1M@MFNHNHEO@?$AAe?$AAn?$AA?9?$AAz?$AAw?$AA?$AA@ 0000000180038788     libucrt:lcidtoname_downlevel.obj
 0002:00006798       ??_C@_1M@EJEINPHM@?$AAe?$AAs?$AA?9?$AAa?$AAr?$AA?$AA@ 0000000180038798     libucrt:lcidtoname_downlevel.obj
 0002:000067a8       ??_C@_1M@GNKPCCJA@?$AAe?$AAs?$AA?9?$AAb?$AAo?$AA?$AA@ 00000001800387a8     libucrt:lcidtoname_downlevel.obj
 0002:000067b8       ??_C@_1M@LEEGFONL@?$AAe?$AAs?$AA?9?$AAc?$AAl?$AA?$AA@ 00000001800387b8     libucrt:lcidtoname_downlevel.obj
 0002:000067c8       ??_C@_1M@KGPDPBDF@?$AAe?$AAs?$AA?9?$AAc?$AAo?$AA?$AA@ 00000001800387c8     libucrt:lcidtoname_downlevel.obj
 0002:000067d8       ??_C@_1M@EIAHOHH@?$AAe?$AAs?$AA?9?$AAc?$AAr?$AA?$AA@ 00000001800387d8     libucrt:lcidtoname_downlevel.obj
 0002:000067e8       ??_C@_1M@LLPGMBIN@?$AAe?$AAs?$AA?9?$AAd?$AAo?$AA?$AA@ 00000001800387e8     libucrt:lcidtoname_downlevel.obj
 0002:000067f8       ??_C@_1M@DKHMKNJA@?$AAe?$AAs?$AA?9?$AAe?$AAc?$AA?$AA@ 00000001800387f8     libucrt:lcidtoname_downlevel.obj
 0002:00006808       ??_C@_1M@GKGFPKAP@?$AAe?$AAs?$AA?9?$AAe?$AAs?$AA?$AA@ 0000000180038808     libucrt:lcidtoname_downlevel.obj
 0002:00006818       ??_C@_1M@LKHKGDLN@?$AAe?$AAs?$AA?9?$AAg?$AAt?$AA?$AA@ 0000000180038818     libucrt:lcidtoname_downlevel.obj
 0002:00006828       ??_C@_1M@HEIIGGJD@?$AAe?$AAs?$AA?9?$AAh?$AAn?$AA?$AA@ 0000000180038828     libucrt:lcidtoname_downlevel.obj
 0002:00006838       ??_C@_1M@FBDHPPGD@?$AAe?$AAs?$AA?9?$AAm?$AAx?$AA?$AA@ 0000000180038838     libucrt:lcidtoname_downlevel.obj
 0002:00006848       ??_C@_1M@DPAGLNDH@?$AAe?$AAs?$AA?9?$AAn?$AAi?$AA?$AA@ 0000000180038848     libucrt:lcidtoname_downlevel.obj
 0002:00006858       ??_C@_1M@MDGOPGDD@?$AAe?$AAs?$AA?9?$AAp?$AAa?$AA?$AA@ 0000000180038858     libucrt:lcidtoname_downlevel.obj
 0002:00006868       ??_C@_1M@EMAMGBGE@?$AAe?$AAs?$AA?9?$AAp?$AAe?$AA?$AA@ 0000000180038868     libucrt:lcidtoname_downlevel.obj
 0002:00006878       ??_C@_1M@IBMCAOEC@?$AAe?$AAs?$AA?9?$AAp?$AAr?$AA?$AA@ 0000000180038878     libucrt:lcidtoname_downlevel.obj
 0002:00006888       ??_C@_1M@FGMDIJED@?$AAe?$AAs?$AA?9?$AAp?$AAy?$AA?$AA@ 0000000180038888     libucrt:lcidtoname_downlevel.obj
 0002:00006898       ??_C@_1M@IIDEOLLL@?$AAe?$AAs?$AA?9?$AAs?$AAv?$AA?$AA@ 0000000180038898     libucrt:lcidtoname_downlevel.obj
 0002:000068a8       ??_C@_1M@GAOBIPA@?$AAe?$AAs?$AA?9?$AAu?$AAy?$AA?$AA@ 00000001800388a8     libucrt:lcidtoname_downlevel.obj
 0002:000068b8       ??_C@_1M@JKFFICHJ@?$AAe?$AAs?$AA?9?$AAv?$AAe?$AA?$AA@ 00000001800388b8     libucrt:lcidtoname_downlevel.obj
 0002:000068c8       ??_C@_1M@PNMLOJDF@?$AAe?$AAt?$AA?9?$AAe?$AAe?$AA?$AA@ 00000001800388c8     libucrt:lcidtoname_downlevel.obj
 0002:000068d8       ??_C@_1M@GHHLIKEI@?$AAe?$AAu?$AA?9?$AAe?$AAs?$AA?$AA@ 00000001800388d8     libucrt:lcidtoname_downlevel.obj
 0002:000068e8       ??_C@_1M@PBNONODE@?$AAf?$AAa?$AA?9?$AAi?$AAr?$AA?$AA@ 00000001800388e8     libucrt:lcidtoname_downlevel.obj
 0002:000068f8       ??_C@_1M@JEEHPMIL@?$AAf?$AAi?$AA?9?$AAf?$AAi?$AA?$AA@ 00000001800388f8     libucrt:lcidtoname_downlevel.obj
 0002:00006908       ??_C@_1M@LMDCNDBA@?$AAf?$AAo?$AA?9?$AAf?$AAo?$AA?$AA@ 0000000180038908     libucrt:lcidtoname_downlevel.obj
 0002:00006918       ??_C@_1M@JKEOHLDK@?$AAf?$AAr?$AA?9?$AAb?$AAe?$AA?$AA@ 0000000180038918     libucrt:lcidtoname_downlevel.obj
 0002:00006928       ??_C@_1M@NOHADPMI@?$AAf?$AAr?$AA?9?$AAc?$AAa?$AA?$AA@ 0000000180038928     libucrt:lcidtoname_downlevel.obj
 0002:00006938       ??_C@_1M@KDHIHAEC@?$AAf?$AAr?$AA?9?$AAc?$AAh?$AA?$AA@ 0000000180038938     libucrt:lcidtoname_downlevel.obj
 0002:00006948       ??_C@_1M@MMBBFGAK@?$AAf?$AAr?$AA?9?$AAf?$AAr?$AA?$AA@ 0000000180038948     libucrt:lcidtoname_downlevel.obj
 0002:00006958       ??_C@_1M@PAFNENNF@?$AAf?$AAr?$AA?9?$AAl?$AAu?$AA?$AA@ 0000000180038958     libucrt:lcidtoname_downlevel.obj
 0002:00006968       ??_C@_1M@EOHDJGDD@?$AAf?$AAr?$AA?9?$AAm?$AAc?$AA?$AA@ 0000000180038968     libucrt:lcidtoname_downlevel.obj
 0002:00006978       ??_C@_1M@FAPLLOPF@?$AAg?$AAl?$AA?9?$AAe?$AAs?$AA?$AA@ 0000000180038978     libucrt:lcidtoname_downlevel.obj
 0002:00006988       ??_C@_1M@FOPBFLOO@?$AAg?$AAu?$AA?9?$AAi?$AAn?$AA?$AA@ 0000000180038988     libucrt:lcidtoname_downlevel.obj
 0002:00006998       ??_C@_1M@KBMCINPM@?$AAh?$AAe?$AA?9?$AAi?$AAl?$AA?$AA@ 0000000180038998     libucrt:lcidtoname_downlevel.obj
 0002:000069a8       ??_C@_1M@BBPHKFPJ@?$AAh?$AAi?$AA?9?$AAi?$AAn?$AA?$AA@ 00000001800389a8     libucrt:lcidtoname_downlevel.obj
 0002:000069b8       ??_C@_1M@PMBNDPHD@?$AAh?$AAr?$AA?9?$AAb?$AAa?$AA?$AA@ 00000001800389b8     libucrt:lcidtoname_downlevel.obj
 0002:000069c8       ??_C@_1M@BPCKOEGE@?$AAh?$AAr?$AA?9?$AAh?$AAr?$AA?$AA@ 00000001800389c8     libucrt:lcidtoname_downlevel.obj
 0002:000069d8       ??_C@_1M@GACBMHKE@?$AAh?$AAu?$AA?9?$AAh?$AAu?$AA?$AA@ 00000001800389d8     libucrt:lcidtoname_downlevel.obj
 0002:000069e8       ??_C@_1M@MILPAJJC@?$AAh?$AAy?$AA?9?$AAa?$AAm?$AA?$AA@ 00000001800389e8     libucrt:lcidtoname_downlevel.obj
 0002:000069f8       ??_C@_1M@BABBICEC@?$AAi?$AAd?$AA?9?$AAi?$AAd?$AA?$AA@ 00000001800389f8     libucrt:lcidtoname_downlevel.obj
 0002:00006a08       ??_C@_1M@BIKNHHPF@?$AAi?$AAs?$AA?9?$AAi?$AAs?$AA?$AA@ 0000000180038a08     libucrt:lcidtoname_downlevel.obj
 0002:00006a18       ??_C@_1M@NMPCJPHE@?$AAi?$AAt?$AA?9?$AAc?$AAh?$AA?$AA@ 0000000180038a18     libucrt:lcidtoname_downlevel.obj
 0002:00006a28       ??_C@_1M@GHKGFEDF@?$AAi?$AAt?$AA?9?$AAi?$AAt?$AA?$AA@ 0000000180038a28     libucrt:lcidtoname_downlevel.obj
 0002:00006a38       ??_C@_1M@NIEJCJJA@?$AAj?$AAa?$AA?9?$AAj?$AAp?$AA?$AA@ 0000000180038a38     libucrt:lcidtoname_downlevel.obj
 0002:00006a48       ??_C@_1M@JILFNBIM@?$AAk?$AAa?$AA?9?$AAg?$AAe?$AA?$AA@ 0000000180038a48     libucrt:lcidtoname_downlevel.obj
 0002:00006a58       ??_C@_1M@PACPMGPH@?$AAk?$AAk?$AA?9?$AAk?$AAz?$AA?$AA@ 0000000180038a58     libucrt:lcidtoname_downlevel.obj
 0002:00006a68       ??_C@_1M@IELFGMHA@?$AAk?$AAn?$AA?9?$AAi?$AAn?$AA?$AA@ 0000000180038a68     libucrt:lcidtoname_downlevel.obj
 0002:00006a78       ??_C@_1O@IBBJHCH@?$AAk?$AAo?$AAk?$AA?9?$AAi?$AAn?$AA?$AA@ 0000000180038a78     libucrt:lcidtoname_downlevel.obj
 0002:00006a88       ??_C@_1M@DMHAEOGC@?$AAk?$AAo?$AA?9?$AAk?$AAr?$AA?$AA@ 0000000180038a88     libucrt:lcidtoname_downlevel.obj
 0002:00006a98       ??_C@_1M@HBAHBIGA@?$AAk?$AAy?$AA?9?$AAk?$AAg?$AA?$AA@ 0000000180038a98     libucrt:lcidtoname_downlevel.obj
 0002:00006aa8       ??_C@_1M@KPMILCJG@?$AAl?$AAt?$AA?9?$AAl?$AAt?$AA?$AA@ 0000000180038aa8     libucrt:lcidtoname_downlevel.obj
 0002:00006ab8       ??_C@_1M@BDEKKCA@?$AAl?$AAv?$AA?9?$AAl?$AAv?$AA?$AA@ 0000000180038ab8     libucrt:lcidtoname_downlevel.obj
 0002:00006ac8       ??_C@_1M@ELCKCCJJ@?$AAm?$AAi?$AA?9?$AAn?$AAz?$AA?$AA@ 0000000180038ac8     libucrt:lcidtoname_downlevel.obj
 0002:00006ad8       ??_C@_1M@CBOOLAPA@?$AAm?$AAk?$AA?9?$AAm?$AAk?$AA?$AA@ 0000000180038ad8     libucrt:lcidtoname_downlevel.obj
 0002:00006ae8       ??_C@_1M@GPHNBJKN@?$AAm?$AAl?$AA?9?$AAi?$AAn?$AA?$AA@ 0000000180038ae8     libucrt:lcidtoname_downlevel.obj
 0002:00006af8       ??_C@_1M@PABJILIG@?$AAm?$AAn?$AA?9?$AAm?$AAn?$AA?$AA@ 0000000180038af8     libucrt:lcidtoname_downlevel.obj
 0002:00006b08       ??_C@_1M@FGBKKIPG@?$AAm?$AAr?$AA?9?$AAi?$AAn?$AA?$AA@ 0000000180038b08     libucrt:lcidtoname_downlevel.obj
 0002:00006b18       ??_C@_1M@NDBPDDAL@?$AAm?$AAs?$AA?9?$AAb?$AAn?$AA?$AA@ 0000000180038b18     libucrt:lcidtoname_downlevel.obj
 0002:00006b28       ??_C@_1M@OPIHOOPI@?$AAm?$AAs?$AA?9?$AAm?$AAy?$AA?$AA@ 0000000180038b28     libucrt:lcidtoname_downlevel.obj
 0002:00006b38       ??_C@_1M@PPDBCNFM@?$AAm?$AAt?$AA?9?$AAm?$AAt?$AA?$AA@ 0000000180038b38     libucrt:lcidtoname_downlevel.obj
 0002:00006b48       ??_C@_1M@KDJDKMDD@?$AAn?$AAb?$AA?9?$AAn?$AAo?$AA?$AA@ 0000000180038b48     libucrt:lcidtoname_downlevel.obj
 0002:00006b58       ??_C@_1M@KFCFLMJP@?$AAn?$AAl?$AA?9?$AAb?$AAe?$AA?$AA@ 0000000180038b58     libucrt:lcidtoname_downlevel.obj
 0002:00006b68       ??_C@_1M@KPOPDDGO@?$AAn?$AAl?$AA?9?$AAn?$AAl?$AA?$AA@ 0000000180038b68     libucrt:lcidtoname_downlevel.obj
 0002:00006b78       ??_C@_1M@LJKPEMLN@?$AAn?$AAn?$AA?9?$AAn?$AAo?$AA?$AA@ 0000000180038b78     libucrt:lcidtoname_downlevel.obj
 0002:00006b88       ??_C@_1M@BDGHHBFL@?$AAn?$AAs?$AA?9?$AAz?$AAa?$AA?$AA@ 0000000180038b88     libucrt:lcidtoname_downlevel.obj
 0002:00006b98       ??_C@_1M@IDEHOAP@?$AAp?$AAa?$AA?9?$AAi?$AAn?$AA?$AA@ 0000000180038b98     libucrt:lcidtoname_downlevel.obj
 0002:00006ba8       ??_C@_1M@HDBKGOGH@?$AAp?$AAl?$AA?9?$AAp?$AAl?$AA?$AA@ 0000000180038ba8     libucrt:lcidtoname_downlevel.obj
 0002:00006bb8       ??_C@_1M@LJLLCMEH@?$AAp?$AAt?$AA?9?$AAb?$AAr?$AA?$AA@ 0000000180038bb8     libucrt:lcidtoname_downlevel.obj
 0002:00006bc8       ??_C@_1M@NCMONAAL@?$AAp?$AAt?$AA?9?$AAp?$AAt?$AA?$AA@ 0000000180038bc8     libucrt:lcidtoname_downlevel.obj
 0002:00006bd8       ??_C@_1O@EAKMAJDN@?$AAq?$AAu?$AAz?$AA?9?$AAb?$AAo?$AA?$AA@ 0000000180038bd8     libucrt:lcidtoname_downlevel.obj
 0002:00006be8       ??_C@_1O@BHHPIGDN@?$AAq?$AAu?$AAz?$AA?9?$AAe?$AAc?$AA?$AA@ 0000000180038be8     libucrt:lcidtoname_downlevel.obj
 0002:00006bf8       ??_C@_1O@GBAPEKMJ@?$AAq?$AAu?$AAz?$AA?9?$AAp?$AAe?$AA?$AA@ 0000000180038bf8     libucrt:lcidtoname_downlevel.obj
 0002:00006c08       ??_C@_1M@CLGLEFBO@?$AAr?$AAo?$AA?9?$AAr?$AAo?$AA?$AA@ 0000000180038c08     libucrt:lcidtoname_downlevel.obj
 0002:00006c18       ??_C@_1M@CEEDODME@?$AAr?$AAu?$AA?9?$AAr?$AAu?$AA?$AA@ 0000000180038c18     libucrt:lcidtoname_downlevel.obj
 0002:00006c28       ??_C@_1M@HPKKKMPP@?$AAs?$AAa?$AA?9?$AAi?$AAn?$AA?$AA@ 0000000180038c28     libucrt:lcidtoname_downlevel.obj
 0002:00006c38       ??_C@_1M@BKMAIGOJ@?$AAs?$AAe?$AA?9?$AAf?$AAi?$AA?$AA@ 0000000180038c38     libucrt:lcidtoname_downlevel.obj
 0002:00006c48       ??_C@_1M@NDPIFLFI@?$AAs?$AAe?$AA?9?$AAn?$AAo?$AA?$AA@ 0000000180038c48     libucrt:lcidtoname_downlevel.obj
 0002:00006c58       ??_C@_1M@DANKKHJ@?$AAs?$AAe?$AA?9?$AAs?$AAe?$AA?$AA@ 0000000180038c58     libucrt:lcidtoname_downlevel.obj
 0002:00006c68       ??_C@_1M@PNBLONPJ@?$AAs?$AAk?$AA?9?$AAs?$AAk?$AA?$AA@ 0000000180038c68     libucrt:lcidtoname_downlevel.obj
 0002:00006c78       ??_C@_1M@LFMODOAL@?$AAs?$AAl?$AA?9?$AAs?$AAi?$AA?$AA@ 0000000180038c78     libucrt:lcidtoname_downlevel.obj
 0002:00006c88       ??_C@_1O@DFKOMPG@?$AAs?$AAm?$AAa?$AA?9?$AAn?$AAo?$AA?$AA@ 0000000180038c88     libucrt:lcidtoname_downlevel.obj
 0002:00006c98       ??_C@_1O@NDKPBNNH@?$AAs?$AAm?$AAa?$AA?9?$AAs?$AAe?$AA?$AA@ 0000000180038c98     libucrt:lcidtoname_downlevel.obj
 0002:00006ca8       ??_C@_1O@PLLKBHAB@?$AAs?$AAm?$AAj?$AA?9?$AAn?$AAo?$AA?$AA@ 0000000180038ca8     libucrt:lcidtoname_downlevel.obj
 0002:00006cb8       ??_C@_1O@CLEPOGCA@?$AAs?$AAm?$AAj?$AA?9?$AAs?$AAe?$AA?$AA@ 0000000180038cb8     libucrt:lcidtoname_downlevel.obj
 0002:00006cc8       ??_C@_1O@DLGJGKMK@?$AAs?$AAm?$AAn?$AA?9?$AAf?$AAi?$AA?$AA@ 0000000180038cc8     libucrt:lcidtoname_downlevel.obj
 0002:00006cd8       ??_C@_1O@OJDJGAJC@?$AAs?$AAm?$AAs?$AA?9?$AAf?$AAi?$AA?$AA@ 0000000180038cd8     libucrt:lcidtoname_downlevel.obj
 0002:00006ce8       ??_C@_1M@BOFOGHPB@?$AAs?$AAq?$AA?9?$AAa?$AAl?$AA?$AA@ 0000000180038ce8     libucrt:lcidtoname_downlevel.obj
 0002:00006cf8       ??_C@_1BG@LJBBIPGB@?$AAs?$AAr?$AA?9?$AAb?$AAa?$AA?9?$AAc?$AAy?$AAr?$AAl?$AA?$AA@ 0000000180038cf8     libucrt:lcidtoname_downlevel.obj
 0002:00006d10       ??_C@_1BG@JLBENFOE@?$AAs?$AAr?$AA?9?$AAb?$AAa?$AA?9?$AAl?$AAa?$AAt?$AAn?$AA?$AA@ 0000000180038d10     libucrt:lcidtoname_downlevel.obj
 0002:00006d28       ??_C@_1BG@KODPNHE@?$AAs?$AAr?$AA?9?$AAs?$AAp?$AA?9?$AAc?$AAy?$AAr?$AAl?$AA?$AA@ 0000000180038d28     libucrt:lcidtoname_downlevel.obj
 0002:00006d40       ??_C@_1BG@CIOGKHPB@?$AAs?$AAr?$AA?9?$AAs?$AAp?$AA?9?$AAl?$AAa?$AAt?$AAn?$AA?$AA@ 0000000180038d40     libucrt:lcidtoname_downlevel.obj
 0002:00006d58       ??_C@_1M@NGFJLMAC@?$AAs?$AAv?$AA?9?$AAf?$AAi?$AA?$AA@ 0000000180038d58     libucrt:lcidtoname_downlevel.obj
 0002:00006d68       ??_C@_1M@MPJEJAJC@?$AAs?$AAv?$AA?9?$AAs?$AAe?$AA?$AA@ 0000000180038d68     libucrt:lcidtoname_downlevel.obj
 0002:00006d78       ??_C@_1M@MPNDHLFK@?$AAs?$AAw?$AA?9?$AAk?$AAe?$AA?$AA@ 0000000180038d78     libucrt:lcidtoname_downlevel.obj
 0002:00006d88       ??_C@_1O@KOHBJJI@?$AAs?$AAy?$AAr?$AA?9?$AAs?$AAy?$AA?$AA@ 0000000180038d88     libucrt:lcidtoname_downlevel.obj
 0002:00006d98       ??_C@_1M@LDCEFHA@?$AAt?$AAa?$AA?9?$AAi?$AAn?$AA?$AA@ 0000000180038d98     libucrt:lcidtoname_downlevel.obj
 0002:00006da8       ??_C@_1M@CNJOFAK@?$AAt?$AAe?$AA?9?$AAi?$AAn?$AA?$AA@ 0000000180038da8     libucrt:lcidtoname_downlevel.obj
 0002:00006db8       ??_C@_1M@GNAECACD@?$AAt?$AAh?$AA?9?$AAt?$AAh?$AA?$AA@ 0000000180038db8     libucrt:lcidtoname_downlevel.obj
 0002:00006dc8       ??_C@_1M@CHBIHOJO@?$AAt?$AAn?$AA?9?$AAz?$AAa?$AA?$AA@ 0000000180038dc8     libucrt:lcidtoname_downlevel.obj
 0002:00006dd8       ??_C@_1M@GCCMIGPJ@?$AAt?$AAr?$AA?9?$AAt?$AAr?$AA?$AA@ 0000000180038dd8     libucrt:lcidtoname_downlevel.obj
 0002:00006de8       ??_C@_1M@CELMCNBK@?$AAt?$AAt?$AA?9?$AAr?$AAu?$AA?$AA@ 0000000180038de8     libucrt:lcidtoname_downlevel.obj
 0002:00006df8       ??_C@_1M@KLMCELGA@?$AAu?$AAk?$AA?9?$AAu?$AAa?$AA?$AA@ 0000000180038df8     libucrt:lcidtoname_downlevel.obj
 0002:00006e08       ??_C@_1M@EPAJJAJF@?$AAu?$AAr?$AA?9?$AAp?$AAk?$AA?$AA@ 0000000180038e08     libucrt:lcidtoname_downlevel.obj
 0002:00006e18       ??_C@_1BG@GEGPMCDJ@?$AAu?$AAz?$AA?9?$AAu?$AAz?$AA?9?$AAc?$AAy?$AAr?$AAl?$AA?$AA@ 0000000180038e18     libucrt:lcidtoname_downlevel.obj
 0002:00006e30       ??_C@_1BG@EGGKJILM@?$AAu?$AAz?$AA?9?$AAu?$AAz?$AA?9?$AAl?$AAa?$AAt?$AAn?$AA?$AA@ 0000000180038e30     libucrt:lcidtoname_downlevel.obj
 0002:00006e48       ??_C@_1M@GFOCLFF@?$AAv?$AAi?$AA?9?$AAv?$AAn?$AA?$AA@ 0000000180038e48     libucrt:lcidtoname_downlevel.obj
 0002:00006e58       ??_C@_1M@CPAMEDFI@?$AAx?$AAh?$AA?9?$AAz?$AAa?$AA?$AA@ 0000000180038e58     libucrt:lcidtoname_downlevel.obj
 0002:00006e68       ??_C@_1O@EBKIFIGN@?$AAz?$AAh?$AA?9?$AAc?$AAh?$AAs?$AA?$AA@ 0000000180038e68     libucrt:lcidtoname_downlevel.obj
 0002:00006e78       ??_C@_1O@NMHPGANE@?$AAz?$AAh?$AA?9?$AAc?$AAh?$AAt?$AA?$AA@ 0000000180038e78     libucrt:lcidtoname_downlevel.obj
 0002:00006e88       ??_C@_1M@LPINJOMC@?$AAz?$AAh?$AA?9?$AAc?$AAn?$AA?$AA@ 0000000180038e88     libucrt:lcidtoname_downlevel.obj
 0002:00006e98       ??_C@_1M@OCJEJODD@?$AAz?$AAh?$AA?9?$AAh?$AAk?$AA?$AA@ 0000000180038e98     libucrt:lcidtoname_downlevel.obj
 0002:00006ea8       ??_C@_1M@DNDLJINH@?$AAz?$AAh?$AA?9?$AAm?$AAo?$AA?$AA@ 0000000180038ea8     libucrt:lcidtoname_downlevel.obj
 0002:00006eb8       ??_C@_1M@MBFDNDND@?$AAz?$AAh?$AA?9?$AAs?$AAg?$AA?$AA@ 0000000180038eb8     libucrt:lcidtoname_downlevel.obj
 0002:00006ec8       ??_C@_1M@IMEPLEPE@?$AAz?$AAh?$AA?9?$AAt?$AAw?$AA?$AA@ 0000000180038ec8     libucrt:lcidtoname_downlevel.obj
 0002:00006ed8       ??_C@_1M@BBGHNHJP@?$AAz?$AAu?$AA?9?$AAz?$AAa?$AA?$AA@ 0000000180038ed8     libucrt:lcidtoname_downlevel.obj
 0002:00006ee4       ??_C@_00CNPNBAHC@?$AA@     0000000180038ee4     libucrt:mbrtowc.obj
 0002:00007140       ??_C@_1BA@BALFACEM@?$AAC?$AAO?$AAN?$AAO?$AAU?$AAT?$AA$?$AA?$AA@ 0000000180039140     libucrt:initcon.obj
 0002:00007150       __log10_256_lead           0000000180039150     libucrt:log10_256_lead_tail_table.obj
 0002:00007960       __log10_256_tail           0000000180039960     libucrt:log10_256_lead_tail_table.obj
 0002:00008170       __log_F_inv_qword          000000018003a170     libucrt:log_f_inv_qword_table.obj
 0002:00008980       ??_C@_05HGHHAHAP@log10?$AA@ 000000018003a980     libucrt:log_special.obj
 0002:000089a0       ??_C@_0BC@BDKFLDHL@unknown?5exception@ 000000018003a9a0     VError.obj
 0002:000089b8       ??_C@_07CIFAGBMG@unknown@  000000018003a9b8     VError.obj
 0002:000089c0       ??_C@_02LMMGGCAJ@?3?5@     000000018003a9c0     VError.obj
 0002:000089c8       ??_C@_08LLGCOLLL@iostream@ 000000018003a9c8     VError.obj
 0002:000089d8       ??_C@_0BG@PADBLCHM@iostream?5stream?5error@ 000000018003a9d8     VError.obj
 0002:000089f0       ??_C@_0BF@PHHKMMFD@ios_base?3?3badbit?5set@ 000000018003a9f0     VError.obj
 0002:00008a08       ??_C@_0BG@FMKFHCIL@ios_base?3?3failbit?5set@ 000000018003aa08     VError.obj
 0002:00008a20       ??_C@_0BF@OOHOMBOF@ios_base?3?3eofbit?5set@ 000000018003aa20     VError.obj
 0002:00008a38       ??_C@_0CO@MDKMFKKK@?$CBnew_vobject?5?$HM?$HM?5VIPS_IS_OBJECT?$CI@ 000000018003aa38     VError.obj
 0002:00008a68       ??_C@_0BH@GOCJPHDF@vips?3?3VObject?3?3VObject@ 000000018003aa68     VError.obj
 0002:00008a80       ??_C@_0GN@GAJANLBI@c?3?2users?2dasan?2desktop?2prueba?5t@ 000000018003aa80     VError.obj
 0002:00008af0       ??_C@_0BM@LENMHEAB@VIPS_IS_OBJECT?$CI?5a?4vobject?5?$CJ@ 000000018003aaf0     VError.obj
 0002:00008b10       ??_C@_0CG@IJKKON@?$CBvobject?5?$HM?$HM?5VIPS_IS_OBJECT?$CI?5vob@ 000000018003ab10     VError.obj
 0002:00008b38       ??_C@_0BK@FEDAPFJC@vips?3?3VObject?3?3operator?5?$DN@ 000000018003ab38     VError.obj
 0002:00008b58       ??_C@_0CJ@JCMMCJOH@a?4vobject?5?$CG?$CG?5VIPS_IS_OBJECT?$CI?5a?4@ 000000018003ab58     VError.obj
 0002:00008b88       ??_C@_0BI@LLDIPMFE@vips?3?3VObject?3?3?$HOVObject@ 000000018003ab88     VError.obj
 0002:00008ba0       ??_C@_0BK@CFEFMCJG@vips?3?3VObject?3?3get_object@ 000000018003aba0     VError.obj
 0002:00008bc0       ??_C@_0BD@OLBABOEK@vector?$DMT?$DO?5too?5long@ 000000018003abc0     VError.obj
 0002:00008bd8       ??_C@_0BA@JFNIOLAK@string?5too?5long@ 000000018003abd8     VError.obj
 0002:00008be8       ??_C@_0BB@MOGOBHAF@list?$DMT?$DO?5too?5long@ 000000018003abe8     VError.obj
 0002:00008c00       ??_7_Iostream_error_category@std@@6B@ 000000018003ac00     VError.obj
 0002:00008c30       ??_7VError@vips@@6B@       000000018003ac30     VError.obj
 0002:00008c48       ??_7exception@stdext@@6B@  000000018003ac48     VError.obj
 0002:00008c60       ??_7VOption@vips@@6B@      000000018003ac60     VError.obj
 0002:00008c68       ??_7failure@ios_base@std@@6B@ 000000018003ac68     VError.obj
 0002:00008c80       ??_C@_06FHFOAHML@system@   000000018003ac80     VImage.obj
 0002:00008c88       ??_C@_02DKCKIIND@?$CFs@    000000018003ac88     VImage.obj
 0002:00008c90       ??_C@_08BABJIOEM@filename@ 000000018003ac90     VImage.obj
 0002:00008c9c       ??_C@_03KEJHNBPP@out@      000000018003ac9c     VImage.obj
 0002:00008ca0       ??_C@_06HOHPNJLC@buffer@   000000018003aca0     VImage.obj
 0002:00008ca8       ??_C@_06OEKOLKIL@source@   000000018003aca8     VImage.obj
 0002:00008cb0       ??_C@_02LMMGJAGL@in@       000000018003acb0     VImage.obj
 0002:00008cb4       ??_C@_06JJLAMBGK@target@   000000018003acb4     VImage.obj
 0002:00008cc0       ??_C@_07EEAEFHLG@CMC2LCh@  000000018003acc0     VImage.obj
 0002:00008cc8       ??_C@_08GJMCDJCO@CMYK2XYZ@ 000000018003acc8     VImage.obj
 0002:00008cd8       ??_C@_08MGEOCPLE@HSV2sRGB@ 000000018003acd8     VImage.obj
 0002:00008ce8       ??_C@_07IEPNALIH@LCh2CMC@  000000018003ace8     VImage.obj
 0002:00008cf0       ??_C@_07GBFGLBLG@LCh2Lab@  000000018003acf0     VImage.obj
 0002:00008cf8       ??_C@_07FJMJMAGB@Lab2LCh@  000000018003acf8     VImage.obj
 0002:00008d00       ??_C@_08JOOABGHI@Lab2LabQ@ 000000018003ad00     VImage.obj
 0002:00008d10       ??_C@_08KMNGHEPK@Lab2LabS@ 000000018003ad10     VImage.obj
 0002:00008d20       ??_C@_07HKHDHCHO@Lab2XYZ@  000000018003ad20     VImage.obj
 0002:00008d28       ??_C@_08PCBHJJKI@LabQ2Lab@ 000000018003ad28     VImage.obj
 0002:00008d38       ??_C@_09EJGJDCNE@LabQ2LabS@ 000000018003ad38     VImage.obj
 0002:00008d48       ??_C@_09OFNJONNH@LabQ2sRGB@ 000000018003ad48     VImage.obj
 0002:00008d58       ??_C@_08LPNPDIKD@LabS2Lab@ 000000018003ad58     VImage.obj
 0002:00008d68       ??_C@_09OMMAEBHP@LabS2LabQ@ 000000018003ad68     VImage.obj
 0002:00008d78       ??_C@_08FCMPNBAF@XYZ2CMYK@ 000000018003ad78     VImage.obj
 0002:00008d88       ??_C@_07BDLLOLEB@XYZ2Lab@  000000018003ad88     VImage.obj
 0002:00008d90       ??_C@_07MOLNBPIJ@XYZ2Yxy@  000000018003ad90     VImage.obj
 0002:00008d98       ??_C@_09BGOHPOHE@XYZ2scRGB@ 000000018003ad98     VImage.obj
 0002:00008da8       ??_C@_07NFHPGGHE@Yxy2XYZ@  000000018003ada8     VImage.obj
 0002:00008db0       ??_C@_03BCGAIFPO@abs@      000000018003adb0     VImage.obj
 0002:00008db4       ??_C@_04GOOOJOPP@left@     000000018003adb4     VImage.obj
 0002:00008dbc       ??_C@_05DHJDAOHK@right@    000000018003adbc     VImage.obj
 0002:00008dc4       ??_C@_03BDGOHNNK@add@      000000018003adc4     VImage.obj
 0002:00008dc8       ??_C@_06CGNOPMBC@matrix@   000000018003adc8     VImage.obj
 0002:00008dd0       ??_C@_06JLGAMIDL@affine@   000000018003add0     VImage.obj
 0002:00008dd8       ??_C@_0M@GFDAFAKN@analyzeload@ 000000018003add8     VImage.obj
 0002:00008de8       ??_C@_09BPCDKABO@arrayjoin@ 000000018003ade8     VImage.obj
 0002:00008df8       ??_C@_07HKPDIIIM@autorot@  000000018003adf8     VImage.obj
 0002:00008e00       ??_C@_03CHOBFJAH@avg@      000000018003ae00     VImage.obj
 0002:00008e08       ??_C@_07GOBOHMJA@boolean@  000000018003ae08     VImage.obj
 0002:00008e10       ??_C@_08DFLKPDGM@bandbool@ 000000018003ae10     VImage.obj
 0002:00008e20       ??_C@_08KKFGBPN@bandfold@  000000018003ae20     VImage.obj
 0002:00008e30       ??_C@_08DDHBKGJN@bandjoin@ 000000018003ae30     VImage.obj
 0002:00008e3c       ??_C@_01PAPGNFGE@c@        000000018003ae3c     VImage.obj
 0002:00008e40       ??_C@_0P@CNLDBNGG@bandjoin_const@ 000000018003ae40     VImage.obj
 0002:00008e50       ??_C@_08OAPPMLFB@bandmean@ 000000018003ae50     VImage.obj
 0002:00008e60       ??_C@_08PLAGOPCN@bandrank@ 000000018003ae60     VImage.obj
 0002:00008e70       ??_C@_0L@NLCAJCCK@bandunfold@ 000000018003ae70     VImage.obj
 0002:00008e7c       ??_C@_05IGKADHGO@width@    000000018003ae7c     VImage.obj
 0002:00008e84       ??_C@_06LNLHEAAG@height@   000000018003ae84     VImage.obj
 0002:00008e8c       ??_C@_05BIMBDNDC@black@    000000018003ae8c     VImage.obj
 0002:00008e98       ??_C@_0O@FFEJDDPG@boolean_const@ 000000018003ae98     VImage.obj
 0002:00008ea8       ??_C@_08OKOAJEOP@buildlut@ 000000018003aea8     VImage.obj
 0002:00008eb8       ??_C@_08LGNCHIMC@byteswap@ 000000018003aeb8     VImage.obj
 0002:00008ec4       ??_C@_05BDNCCAMC@cache@    000000018003aec4     VImage.obj
 0002:00008ecc       ??_C@_05DECNJPA@canny@     000000018003aecc     VImage.obj
 0002:00008ed4       ??_C@_05FKHKFDID@index@    000000018003aed4     VImage.obj
 0002:00008edc       ??_C@_05FHILFBNJ@cases@    000000018003aedc     VImage.obj
 0002:00008ee4       ??_C@_04CKOINMPC@case@     000000018003aee4     VImage.obj
 0002:00008eec       ??_C@_06DLEPGFEF@format@   000000018003aeec     VImage.obj
 0002:00008ef4       ??_C@_04HJDBPPOC@cast@     000000018003aef4     VImage.obj
 0002:00008efc       ??_C@_05OLNILLAB@space@    000000018003aefc     VImage.obj
 0002:00008f08       ??_C@_0M@GKGJPELG@colourspace@ 000000018003af08     VImage.obj
 0002:00008f14       ??_C@_04LFLEPBN@mask@      000000018003af14     VImage.obj
 0002:00008f20       ??_C@_07CFMACLND@compass@  000000018003af20     VImage.obj
 0002:00008f28       ??_C@_05GMOLPBHC@cmplx@    000000018003af28     VImage.obj
 0002:00008f30       ??_C@_07CMPFPFAH@complex@  000000018003af30     VImage.obj
 0002:00008f38       ??_C@_08HDDIDECH@complex2@ 000000018003af38     VImage.obj
 0002:00008f48       ??_C@_0M@IHNKDMPF@complexform@ 000000018003af48     VImage.obj
 0002:00008f54       ??_C@_03HNAFFKGA@get@      000000018003af54     VImage.obj
 0002:00008f58       ??_C@_0L@CONHPEB@complexget@ 000000018003af58     VImage.obj
 0002:00008f64       ??_C@_04GMGOKAFF@mode@     000000018003af64     VImage.obj
 0002:00008f70       ??_C@_09EIHFMDLJ@composite@ 000000018003af70     VImage.obj
 0002:00008f7c       ??_C@_04BHIIPFEC@base@     000000018003af7c     VImage.obj
 0002:00008f88       ??_C@_07BJNHBMF@overlay@   000000018003af88     VImage.obj
 0002:00008f90       ??_C@_0L@FPIFCKJK@composite2@ 000000018003af90     VImage.obj
 0002:00008f9c       ??_C@_04LPCGNKHA@conv@     000000018003af9c     VImage.obj
 0002:00008fa4       ??_C@_05CMFMANAA@conva@    000000018003afa4     VImage.obj
 0002:00008fb0       ??_C@_08MPNKBMPB@convasep@ 000000018003afb0     VImage.obj
 0002:00008fbc       ??_C@_05GDBNJLMH@convf@    000000018003afbc     VImage.obj
 0002:00008fc4       ??_C@_05OEIFIHAI@convi@    000000018003afc4     VImage.obj
 0002:00008fd0       ??_C@_07OFICLPMI@convsep@  000000018003afd0     VImage.obj
 0002:00008fd8       ??_C@_04COAGEIMF@copy@     000000018003afd8     VImage.obj
 0002:00008fe0       ??_C@_07FIKBNHMA@nolines@  000000018003afe0     VImage.obj
 0002:00008fe8       ??_C@_09HPKLLIJF@direction@ 000000018003afe8     VImage.obj
 0002:00008ff8       ??_C@_0L@GADDFICP@countlines@ 000000018003aff8     VImage.obj
 0002:00009004       ??_C@_05DFJCHPDH@input@    000000018003b004     VImage.obj
 0002:0000900c       ??_C@_03FGFCOCMD@top@      000000018003b00c     VImage.obj
 0002:00009010       ??_C@_04EKMNJIID@crop@     000000018003b010     VImage.obj
 0002:00009018       ??_C@_07LDEBNBAJ@csvload@  000000018003b018     VImage.obj
 0002:00009020       ??_C@_07LBFMCCNN@csvsave@  000000018003b020     VImage.obj
 0002:00009028       ??_C@_04CIIKCAD@dE00@      000000018003b028     VImage.obj
 0002:00009030       ??_C@_04FBJNBDAA@dE76@     000000018003b030     VImage.obj
 0002:00009038       ??_C@_05GHPMDBKP@dECMC@    000000018003b038     VImage.obj
 0002:00009040       ??_C@_07JGEDNJHN@deviate@  000000018003b040     VImage.obj
 0002:00009048       ??_C@_06FFHJEHBN@divide@   000000018003b048     VImage.obj
 0002:00009050       ??_C@_05NGOMGBBD@image@    000000018003b050     VImage.obj
 0002:00009058       ??_C@_03FMNFMMCM@ink@      000000018003b058     VImage.obj
 0002:0000905c       ??_C@_02KNMJKAGK@cx@       000000018003b05c     VImage.obj
 0002:00009060       ??_C@_02LENCJBCL@cy@       000000018003b060     VImage.obj
 0002:00009064       ??_C@_06KGHINEPG@radius@   000000018003b064     VImage.obj
 0002:00009070       ??_C@_0M@EJLCOLOD@draw_circle@ 000000018003b070     VImage.obj
 0002:0000907c       ??_C@_01FJMABOPO@x@        000000018003b07c     VImage.obj
 0002:00009080       ??_C@_01EANLCPLP@y@        000000018003b080     VImage.obj
 0002:00009088       ??_C@_0L@BNOJNJNM@draw_flood@ 000000018003b088     VImage.obj
 0002:00009094       ??_C@_03KCMAIMAP@sub@      000000018003b094     VImage.obj
 0002:00009098       ??_C@_0L@CGAIFFHD@draw_image@ 000000018003b098     VImage.obj
 0002:000090a4       ??_C@_02JMABBILH@x1@       000000018003b0a4     VImage.obj
 0002:000090a8       ??_C@_02JNMDHCIA@y1@       000000018003b0a8     VImage.obj
 0002:000090ac       ??_C@_02LHCMELHE@x2@       000000018003b0ac     VImage.obj
 0002:000090b0       ??_C@_02LGOOCBED@y2@       000000018003b0b0     VImage.obj
 0002:000090b8       ??_C@_09JCFFHHHP@draw_line@ 000000018003b0b8     VImage.obj
 0002:000090c8       ??_C@_09OAPMGLIN@draw_mask@ 000000018003b0c8     VImage.obj
 0002:000090d8       ??_C@_09FMFCFBGH@draw_rect@ 000000018003b0d8     VImage.obj
 0002:000090e8       ??_C@_0M@JGFPDOHD@draw_smudge@ 000000018003b0e8     VImage.obj
 0002:000090f4       ??_C@_06MCMNOHKJ@dzsave@   000000018003b0f4     VImage.obj
 0002:00009100       ??_C@_0O@IEFJKPDJ@dzsave_buffer@ 000000018003b100     VImage.obj
 0002:00009110       ??_C@_05KJAEOLKJ@embed@    000000018003b110     VImage.obj
 0002:00009118       ??_C@_0N@NKELEKIM@extract_area@ 000000018003b118     VImage.obj
 0002:00009128       ??_C@_04BKGNPECA@band@     000000018003b128     VImage.obj
 0002:00009130       ??_C@_0N@KOGFNDIJ@extract_band@ 000000018003b130     VImage.obj
 0002:00009140       ??_C@_03JBOJOLOP@eye@      000000018003b140     VImage.obj
 0002:00009148       ??_C@_0M@HLKJCLJA@falsecolour@ 000000018003b148     VImage.obj
 0002:00009154       ??_C@_03GCDGINBO@ref@      000000018003b154     VImage.obj
 0002:00009158       ??_C@_07FHGNDIBP@fastcor@  000000018003b158     VImage.obj
 0002:00009160       ??_C@_0N@JKNBFHJA@fill_nearest@ 000000018003b160     VImage.obj
 0002:00009170       ??_C@_09CNDNHPEB@find_trim@ 000000018003b170     VImage.obj
 0002:00009180       ??_C@_08BLLJFBBF@fitsload@ 000000018003b180     VImage.obj
 0002:00009190       ??_C@_08BJKEKCMB@fitssave@ 000000018003b190     VImage.obj
 0002:000091a0       ??_C@_07FOIKENOC@flatten@  000000018003b1a0     VImage.obj
 0002:000091a8       ??_C@_04DGGGELON@flip@     000000018003b1a8     VImage.obj
 0002:000091b0       ??_C@_09JMDBKHNK@float2rad@ 000000018003b1b0     VImage.obj
 0002:000091c0       ??_C@_0BC@CLPCNNOE@fractal_dimension@ 000000018003b1c0     VImage.obj
 0002:000091d8       ??_C@_09KODEALMJ@fractsurf@ 000000018003b1d8     VImage.obj
 0002:000091e8       ??_C@_08PGNHFFFA@freqmult@ 000000018003b1e8     VImage.obj
 0002:000091f4       ??_C@_05MCCGCNHL@fwfft@    000000018003b1f4     VImage.obj
 0002:000091fc       ??_C@_05KDLBCAI@gamma@     000000018003b1fc     VImage.obj
 0002:00009204       ??_C@_05MNLBPJCA@sigma@    000000018003b204     VImage.obj
 0002:00009210       ??_C@_09NOBOKBD@gaussblur@ 000000018003b210     VImage.obj
 0002:00009220       ??_C@_08KNIIIGHA@min_ampl@ 000000018003b220     VImage.obj
 0002:00009230       ??_C@_08HLCLIPNO@gaussmat@ 000000018003b230     VImage.obj
 0002:00009240       ??_C@_0L@LHFGAHGN@gaussnoise@ 000000018003b240     VImage.obj
 0002:00009250       ??_C@_09ENEOCMDF@out_array@ 000000018003b250     VImage.obj
 0002:00009260       ??_C@_08POKMFCNH@getpoint@ 000000018003b260     VImage.obj
 0002:00009270       ??_C@_07PHHDBOOI@gifload@  000000018003b270     VImage.obj
 0002:00009278       ??_C@_0P@DMLKCHMD@gifload_buffer@ 000000018003b278     VImage.obj
 0002:00009288       ??_C@_0O@GIJIBKOK@globalbalance@ 000000018003b288     VImage.obj
 0002:00009298       ??_C@_07GFBFDLBM@gravity@  000000018003b298     VImage.obj
 0002:000092a0       ??_C@_04GDBIAANM@grey@     000000018003b2a0     VImage.obj
 0002:000092a8       ??_C@_0M@GPCIKFO@tile_height@ 000000018003b2a8     VImage.obj
 0002:000092b4       ??_C@_06HDMALCOC@across@   000000018003b2b4     VImage.obj
 0002:000092bc       ??_C@_04JMOKAGMG@down@     000000018003b2bc     VImage.obj
 0002:000092c4       ??_C@_04JFGOJFKE@grid@     000000018003b2c4     VImage.obj
 0002:000092d0       ??_C@_08NBMGPBOO@heifload@ 000000018003b2d0     VImage.obj
 0002:000092e0       ??_C@_0BA@OFAGMMCI@heifload_buffer@ 000000018003b2e0     VImage.obj
 0002:000092f0       ??_C@_08NDNLACDK@heifsave@ 000000018003b2f0     VImage.obj
 0002:00009300       ??_C@_0BA@BLPFBLHB@heifsave_buffer@ 000000018003b300     VImage.obj
 0002:00009310       ??_C@_08GNGDEJLK@hist_cum@ 000000018003b310     VImage.obj
 0002:00009320       ??_C@_0N@LNGDFBMF@hist_entropy@ 000000018003b320     VImage.obj
 0002:00009330       ??_C@_0L@CHADGNHE@hist_equal@ 000000018003b330     VImage.obj
 0002:00009340       ??_C@_09PKCBEOHG@hist_find@ 000000018003b340     VImage.obj
 0002:00009350       ??_C@_0BC@CKAIJALJ@hist_find_indexed@ 000000018003b350     VImage.obj
 0002:00009368       ??_C@_0P@CCEOOJJO@hist_find_ndim@ 000000018003b368     VImage.obj
 0002:00009378       ??_C@_09FKNHDPAJ@monotonic@ 000000018003b378     VImage.obj
 0002:00009388       ??_C@_0BB@BJFODBKP@hist_ismonotonic@ 000000018003b388     VImage.obj
 0002:000093a0       ??_C@_0L@KKKOBNBM@hist_local@ 000000018003b3a0     VImage.obj
 0002:000093b0       ??_C@_0L@HEOEAOJE@hist_match@ 000000018003b3b0     VImage.obj
 0002:000093c0       ??_C@_09CLMELLDG@hist_norm@ 000000018003b3c0     VImage.obj
 0002:000093d0       ??_C@_09GJFPKEAA@hist_plot@ 000000018003b3d0     VImage.obj
 0002:000093e0       ??_C@_0N@EPCNCOFH@hough_circle@ 000000018003b3e0     VImage.obj
 0002:000093f0       ??_C@_0L@DLDHKKAG@hough_line@ 000000018003b3f0     VImage.obj
 0002:00009400       ??_C@_0L@NEJHOOGO@icc_export@ 000000018003b400     VImage.obj
 0002:00009410       ??_C@_0L@EACMBHDC@icc_import@ 000000018003b410     VImage.obj
 0002:00009420       ??_C@_0P@PEHDBPID@output_profile@ 000000018003b420     VImage.obj
 0002:00009430       ??_C@_0O@JCOEDNPE@icc_transform@ 000000018003b430     VImage.obj
 0002:00009440       ??_C@_08LBJOIDDC@identity@ 000000018003b440     VImage.obj
 0002:0000944c       ??_C@_04MHNCKKKD@cond@     000000018003b44c     VImage.obj
 0002:00009454       ??_C@_03BMIBHJPC@in1@      000000018003b454     VImage.obj
 0002:00009458       ??_C@_03DHKMCKDB@in2@      000000018003b458     VImage.obj
 0002:00009460       ??_C@_0L@EIDGEPEL@ifthenelse@ 000000018003b460     VImage.obj
 0002:0000946c       ??_C@_04GHJNJNPO@main@     000000018003b46c     VImage.obj
 0002:00009474       ??_C@_06OAOPNKHP@insert@   000000018003b474     VImage.obj
 0002:0000947c       ??_C@_06CIAPFFAP@invert@   000000018003b47c     VImage.obj
 0002:00009488       ??_C@_09DELGKNGH@invertlut@ 000000018003b488     VImage.obj
 0002:00009494       ??_C@_06CBJFPBEN@invfft@   000000018003b494     VImage.obj
 0002:0000949c       ??_C@_04DFGCDGNN@join@     000000018003b49c     VImage.obj
 0002:000094a8       ??_C@_08MHJHFPPG@jpegload@ 000000018003b4a8     VImage.obj
 0002:000094b8       ??_C@_0BA@OCCAIACH@jpegload_buffer@ 000000018003b4b8     VImage.obj
 0002:000094c8       ??_C@_0BA@HIPBODBO@jpegload_source@ 000000018003b4c8     VImage.obj
 0002:000094d8       ??_C@_08MFIKKMCC@jpegsave@ 000000018003b4d8     VImage.obj
 0002:000094e8       ??_C@_0BA@BMNDFHHO@jpegsave_buffer@ 000000018003b4e8     VImage.obj
 0002:000094f8       ??_C@_0O@GEECBBEC@jpegsave_mime@ 000000018003b4f8     VImage.obj
 0002:00009508       ??_C@_0BA@PLBMEPKG@jpegsave_target@ 000000018003b508     VImage.obj
 0002:00009518       ??_C@_0N@MBCCJMPJ@labelregions@ 000000018003b518     VImage.obj
 0002:00009528       ??_C@_01MCMALHOG@a@        000000018003b528     VImage.obj
 0002:0000952c       ??_C@_01OJONOECF@b@        000000018003b52c     VImage.obj
 0002:00009530       ??_C@_06HPJICMPM@linear@   000000018003b530     VImage.obj
 0002:00009538       ??_C@_09GGGOOLNN@linecache@ 000000018003b538     VImage.obj
 0002:00009544       ??_C@_06DHDPCCPJ@logmat@   000000018003b544     VImage.obj
 0002:00009550       ??_C@_0L@GJNFHGND@magickload@ 000000018003b550     VImage.obj
 0002:00009560       ??_C@_0BC@NAIBKHPN@magickload_buffer@ 000000018003b560     VImage.obj
 0002:00009578       ??_C@_0L@GLMIIFAH@magicksave@ 000000018003b578     VImage.obj
 0002:00009588       ??_C@_0BC@COHCHAKE@magicksave_buffer@ 000000018003b588     VImage.obj
 0002:0000959c       ??_C@_05KCGPFJPM@mapim@    000000018003b59c     VImage.obj
 0002:000095a4       ??_C@_03LGCCHOBB@lut@      000000018003b5a4     VImage.obj
 0002:000095a8       ??_C@_06NKBBGPGG@maplut@   000000018003b5a8     VImage.obj
 0002:000095b0       ??_C@_05NDNMCCJH@order@    000000018003b5b0     VImage.obj
 0002:000095b8       ??_C@_0BB@LCNLIDKA@frequency_cutoff@ 000000018003b5b8     VImage.obj
 0002:000095d0       ??_C@_0BB@MANGJMJN@amplitude_cutoff@ 000000018003b5d0     VImage.obj
 0002:000095e8       ??_C@_0BB@PCPOEAAM@mask_butterworth@ 000000018003b5e8     VImage.obj
 0002:00009600       ??_C@_0BD@FKLAEGNL@frequency_cutoff_x@ 000000018003b600     VImage.obj
 0002:00009618       ??_C@_0BD@EDKLHHJK@frequency_cutoff_y@ 000000018003b618     VImage.obj
 0002:00009630       ??_C@_0BG@BJFMCODJ@mask_butterworth_band@ 000000018003b630     VImage.obj
 0002:00009648       ??_C@_09FNOEFMAD@ringwidth@ 000000018003b648     VImage.obj
 0002:00009658       ??_C@_0BG@JHCFMCJH@mask_butterworth_ring@ 000000018003b658     VImage.obj
 0002:00009670       ??_C@_0N@PNMGGNMD@mask_fractal@ 000000018003b670     VImage.obj
 0002:00009680       ??_C@_0O@PDKKOMCP@mask_gaussian@ 000000018003b680     VImage.obj
 0002:00009690       ??_C@_0BD@OKCOGKHN@mask_gaussian_band@ 000000018003b690     VImage.obj
 0002:000096a8       ??_C@_0BD@GEFHIGND@mask_gaussian_ring@ 000000018003b6a8     VImage.obj
 0002:000096c0       ??_C@_0L@GPMDCNFD@mask_ideal@ 000000018003b6c0     VImage.obj
 0002:000096d0       ??_C@_0BA@ICAPNLGJ@mask_ideal_band@ 000000018003b6d0     VImage.obj
 0002:000096e0       ??_C@_0BA@MHGDHMH@mask_ideal_ring@ 000000018003b6e0     VImage.obj
 0002:000096f0       ??_C@_03KHPNBODO@sec@      000000018003b6f0     VImage.obj
 0002:000096f4       ??_C@_03OBBIBDBM@xr1@      000000018003b6f4     VImage.obj
 0002:000096f8       ??_C@_03FJKEHEHJ@yr1@      000000018003b6f8     VImage.obj
 0002:000096fc       ??_C@_03OANKHJCL@xs1@      000000018003b6fc     VImage.obj
 0002:00009700       ??_C@_03FIGGBOEO@ys1@      000000018003b700     VImage.obj
 0002:00009704       ??_C@_03MKDFEANP@xr2@      000000018003b704     VImage.obj
 0002:00009708       ??_C@_03HCIJCHLK@yr2@      000000018003b708     VImage.obj
 0002:0000970c       ??_C@_03MLPHCKOI@xs2@      000000018003b70c     VImage.obj
 0002:00009710       ??_C@_03HDELENIN@ys2@      000000018003b710     VImage.obj
 0002:00009714       ??_C@_05FNONLPDI@match@    000000018003b714     VImage.obj
 0002:0000971c       ??_C@_04CFDJAKFL@math@     000000018003b71c     VImage.obj
 0002:00009724       ??_C@_05BBOMOFAH@math2@    000000018003b724     VImage.obj
 0002:00009730       ??_C@_0M@PKPOKBCN@math2_const@ 000000018003b730     VImage.obj
 0002:00009740       ??_C@_07BLECOPNH@matload@  000000018003b740     VImage.obj
 0002:00009748       ??_C@_0L@PMHLAKGB@matrixload@ 000000018003b748     VImage.obj
 0002:00009758       ??_C@_0M@FFFNKKNM@matrixprint@ 000000018003b758     VImage.obj
 0002:00009768       ??_C@_0L@POGGPJLF@matrixsave@ 000000018003b768     VImage.obj
 0002:00009774       ??_C@_03LJAEFNNE@max@      000000018003b774     VImage.obj
 0002:00009778       ??_C@_01BDACAMKP@h@        000000018003b778     VImage.obj
 0002:0000977c       ??_C@_01MHEDDDHA@v@        000000018003b77c     VImage.obj
 0002:00009780       ??_C@_07GGHJMDCM@measure@  000000018003b780     VImage.obj
 0002:00009788       ??_C@_02KIIGLGOP@dx@       000000018003b788     VImage.obj
 0002:0000978c       ??_C@_02LBJNIHKO@dy@       000000018003b78c     VImage.obj
 0002:00009790       ??_C@_05DPKBJALF@merge@    000000018003b790     VImage.obj
 0002:00009798       ??_C@_03KLIPLJLL@min@      000000018003b798     VImage.obj
 0002:0000979c       ??_C@_05NJNGEDKM@morph@    000000018003b79c     VImage.obj
 0002:000097a4       ??_C@_04EMPCAOBB@xref@     000000018003b7a4     VImage.obj
 0002:000097ac       ??_C@_04HBJCCHKB@yref@     000000018003b7ac     VImage.obj
 0002:000097b4       ??_C@_04IJDJJNDB@xsec@     000000018003b7b4     VImage.obj
 0002:000097bc       ??_C@_04LEFJLEIB@ysec@     000000018003b7bc     VImage.obj
 0002:000097c4       ??_C@_06EFGOHCJJ@mosaic@   000000018003b7c4     VImage.obj
 0002:000097d0       ??_C@_07EPMLECCA@mosaic1@  000000018003b7d0     VImage.obj
 0002:000097d8       ??_C@_03BGILNABB@msb@      000000018003b7d8     VImage.obj
 0002:000097e0       ??_C@_08MMOCDOEL@multiply@ 000000018003b7e0     VImage.obj
 0002:000097f0       ??_C@_09HFMAOFIO@niftiload@ 000000018003b7f0     VImage.obj
 0002:00009800       ??_C@_09HHNNBGFK@niftisave@ 000000018003b800     VImage.obj
 0002:00009810       ??_C@_0M@PFMEODOM@openexrload@ 000000018003b810     VImage.obj
 0002:00009820       ??_C@_0O@MEOEBEEM@openslideload@ 000000018003b820     VImage.obj
 0002:00009830       ??_C@_07OANKEHBK@pdfload@  000000018003b830     VImage.obj
 0002:00009838       ??_C@_0P@FECDMHMN@pdfload_buffer@ 000000018003b838     VImage.obj
 0002:00009848       ??_C@_09DEHKFMCJ@threshold@ 000000018003b848     VImage.obj
 0002:00009858       ??_C@_07HCJJCOPK@percent@  000000018003b858     VImage.obj
 0002:00009860       ??_C@_06JIFICDNB@perlin@   000000018003b860     VImage.obj
 0002:00009868       ??_C@_08GMOPJMAN@phasecor@ 000000018003b868     VImage.obj
 0002:00009878       ??_C@_07IPPGMLPB@pngload@  000000018003b878     VImage.obj
 0002:00009880       ??_C@_0P@FLICMEND@pngload_buffer@ 000000018003b880     VImage.obj
 0002:00009890       ??_C@_0P@MBFDKHOK@pngload_source@ 000000018003b890     VImage.obj
 0002:000098a0       ??_C@_07INOLDICF@pngsave@  000000018003b8a0     VImage.obj
 0002:000098a8       ??_C@_0P@KFHBBDIK@pngsave_buffer@ 000000018003b8a8     VImage.obj
 0002:000098b8       ??_C@_0P@ECLOALFC@pngsave_target@ 000000018003b8b8     VImage.obj
 0002:000098c8       ??_C@_07BJIMAPAE@ppmload@  000000018003b8c8     VImage.obj
 0002:000098d0       ??_C@_07BLJBPMNA@ppmsave@  000000018003b8d0     VImage.obj
 0002:000098d8       ??_C@_0M@OEPEEJHI@premultiply@ 000000018003b8d8     VImage.obj
 0002:000098e8       ??_C@_07HIFEPIJN@columns@  000000018003b8e8     VImage.obj
 0002:000098f0       ??_C@_04IMCGAIPI@rows@     000000018003b8f0     VImage.obj
 0002:000098f8       ??_C@_07LNMDFKEJ@profile@  000000018003b8f8     VImage.obj
 0002:00009900       ??_C@_04MEMAJGDJ@name@     000000018003b900     VImage.obj
 0002:00009908       ??_C@_0N@LJAKOFJN@profile_load@ 000000018003b908     VImage.obj
 0002:00009918       ??_C@_07GKGAGMNN@project@  000000018003b918     VImage.obj
 0002:00009920       ??_C@_05KIDKLPLG@coeff@    000000018003b920     VImage.obj
 0002:00009928       ??_C@_09NDEBDKFB@quadratic@ 000000018003b928     VImage.obj
 0002:00009938       ??_C@_09CNOAMBEK@rad2float@ 000000018003b938     VImage.obj
 0002:00009948       ??_C@_07LNAPMOML@radload@  000000018003b948     VImage.obj
 0002:00009950       ??_C@_0P@BIFKKNHK@radload_buffer@ 000000018003b950     VImage.obj
 0002:00009960       ??_C@_0P@ICILMOED@radload_source@ 000000018003b960     VImage.obj
 0002:00009970       ??_C@_07LPBCDNBP@radsave@  000000018003b970     VImage.obj
 0002:00009978       ??_C@_0P@OGKJHKCD@radsave_buffer@ 000000018003b978     VImage.obj
 0002:00009988       ??_C@_0P@BGGGCPL@radsave_target@ 000000018003b988     VImage.obj
 0002:00009998       ??_C@_04PNBFHPGN@rank@     000000018003b998     VImage.obj
 0002:000099a0       ??_C@_05DPGGGHAJ@bands@    000000018003b9a0     VImage.obj
 0002:000099a8       ??_C@_07DIENLOPO@rawload@  000000018003b9a8     VImage.obj
 0002:000099b0       ??_C@_07DKFAENCK@rawsave@  000000018003b9b0     VImage.obj
 0002:000099b8       ??_C@_02ENHFDPNM@fd@       000000018003b9b8     VImage.obj
 0002:000099c0       ??_C@_0L@MFMDKFHF@rawsave_fd@ 000000018003b9c0     VImage.obj
 0002:000099cc       ??_C@_01GOHFPIOK@m@        000000018003b9cc     VImage.obj
 0002:000099d0       ??_C@_06OLEOMEPE@recomb@   000000018003b9d0     VImage.obj
 0002:000099d8       ??_C@_07KBIIIDHJ@hshrink@  000000018003b9d8     VImage.obj
 0002:000099e0       ??_C@_07MILJKAGA@vshrink@  000000018003b9e0     VImage.obj
 0002:000099e8       ??_C@_06CDBFBENC@reduce@   000000018003b9e8     VImage.obj
 0002:000099f0       ??_C@_07MFNKEHED@reduceh@  000000018003b9f0     VImage.obj
 0002:000099f8       ??_C@_07BBJLHIJM@reducev@  000000018003b9f8     VImage.obj
 0002:00009a00       ??_C@_0L@NEPEPHDK@relational@ 000000018003ba00     VImage.obj
 0002:00009a10       ??_C@_0BB@FKPDFKGH@relational_const@ 000000018003ba10     VImage.obj
 0002:00009a28       ??_C@_09HALKBBKJ@remainder@ 000000018003ba28     VImage.obj
 0002:00009a38       ??_C@_0BA@MDCPNGEH@remainder_const@ 000000018003ba38     VImage.obj
 0002:00009a48       ??_C@_09CBPKCNMB@replicate@ 000000018003ba48     VImage.obj
 0002:00009a54       ??_C@_05MHMEBBGO@scale@    000000018003ba54     VImage.obj
 0002:00009a5c       ??_C@_06PIONCPJI@resize@   000000018003ba5c     VImage.obj
 0002:00009a64       ??_C@_05FECBCJJD@angle@    000000018003ba64     VImage.obj
 0002:00009a6c       ??_C@_03BHFFHIBL@rot@      000000018003ba6c     VImage.obj
 0002:00009a70       ??_C@_05HGLLKKDL@rot45@    000000018003ba70     VImage.obj
 0002:00009a78       ??_C@_06CEHMNFAL@rotate@   000000018003ba78     VImage.obj
 0002:00009a80       ??_C@_05MIMAKCN@round@     000000018003ba80     VImage.obj
 0002:00009a88       ??_C@_08DLNPBGF@sRGB2HSV@  000000018003ba88     VImage.obj
 0002:00009a98       ??_C@_0L@CFFEDAKI@sRGB2scRGB@ 000000018003ba98     VImage.obj
 0002:00009aa8       ??_C@_08NGFONIGN@scRGB2BW@ 000000018003baa8     VImage.obj
 0002:00009ab8       ??_C@_09EGLLGMBC@scRGB2XYZ@ 000000018003bab8     VImage.obj
 0002:00009ac8       ??_C@_0L@EEFOEOJE@scRGB2sRGB@ 000000018003bac8     VImage.obj
 0002:00009ad8       ??_C@_0L@OGEPILOF@sequential@ 000000018003bad8     VImage.obj
 0002:00009ae8       ??_C@_07JOLMDEEJ@sharpen@  000000018003bae8     VImage.obj
 0002:00009af0       ??_C@_06FKMIDIGA@shrink@   000000018003baf0     VImage.obj
 0002:00009af8       ??_C@_07OAMMEIMP@shrinkh@  000000018003baf8     VImage.obj
 0002:00009b00       ??_C@_07DEINHHBA@shrinkv@  000000018003bb00     VImage.obj
 0002:00009b08       ??_C@_04HHGHLBPI@sign@     000000018003bb08     VImage.obj
 0002:00009b10       ??_C@_0L@FLEFHLED@similarity@ 000000018003bb10     VImage.obj
 0002:00009b1c       ??_C@_05MGFOJHMB@sines@    000000018003bb1c     VImage.obj
 0002:00009b28       ??_C@_09CIDCHBHA@smartcrop@ 000000018003bb28     VImage.obj
 0002:00009b34       ??_C@_05MOJCNDEH@sobel@    000000018003bb34     VImage.obj
 0002:00009b3c       ??_C@_05ENEIAOHI@spcor@    000000018003bb3c     VImage.obj
 0002:00009b48       ??_C@_08GEGLAKCO@spectrum@ 000000018003bb48     VImage.obj
 0002:00009b54       ??_C@_05BLKJBNOD@stats@    000000018003bb54     VImage.obj
 0002:00009b5c       ??_C@_05PDMDLOG@stdif@     000000018003bb5c     VImage.obj
 0002:00009b64       ??_C@_04OJPHJCEA@xfac@     000000018003bb64     VImage.obj
 0002:00009b6c       ??_C@_04NEJHLLPA@yfac@     000000018003bb6c     VImage.obj
 0002:00009b78       ??_C@_09GEADCAMB@subsample@ 000000018003bb78     VImage.obj
 0002:00009b88       ??_C@_08LJLIHDOM@subtract@ 000000018003bb88     VImage.obj
 0002:00009b94       ??_C@_03CFFIJAMA@sum@      000000018003bb94     VImage.obj
 0002:00009b98       ??_C@_07FFEIBOLL@svgload@  000000018003bb98     VImage.obj
 0002:00009ba0       ??_C@_0P@BPBEIMPA@svgload_buffer@ 000000018003bba0     VImage.obj
 0002:00009bb0       ??_C@_0P@IFMFOPMJ@svgload_source@ 000000018003bbb0     VImage.obj
 0002:00009bc0       ??_C@_05KBDMAMHN@tests@    000000018003bbc0     VImage.obj
 0002:00009bc8       ??_C@_06DOPOGBGP@switch@   000000018003bbc8     VImage.obj
 0002:00009bd0       ??_C@_0L@KNACEFOM@cmd_format@ 000000018003bbd0     VImage.obj
 0002:00009bdc       ??_C@_04CIMGMMMG@text@     000000018003bbdc     VImage.obj
 0002:00009be8       ??_C@_09GEFHAABJ@thumbnail@ 000000018003bbe8     VImage.obj
 0002:00009bf8       ??_C@_0BB@FMNLLCML@thumbnail_buffer@ 000000018003bbf8     VImage.obj
 0002:00009c10       ??_C@_0BA@HAJBKBKF@thumbnail_image@ 000000018003bc10     VImage.obj
 0002:00009c20       ??_C@_0BB@MGAKNBPC@thumbnail_source@ 000000018003bc20     VImage.obj
 0002:00009c38       ??_C@_08DKNFCFCN@tiffload@ 000000018003bc38     VImage.obj
 0002:00009c48       ??_C@_0BA@LHGCDMGM@tiffload_buffer@ 000000018003bc48     VImage.obj
 0002:00009c58       ??_C@_0BA@CNLDFPFF@tiffload_source@ 000000018003bc58     VImage.obj
 0002:00009c68       ??_C@_08DIMINGPJ@tiffsave@ 000000018003bc68     VImage.obj
 0002:00009c78       ??_C@_0BA@EJJBOLDF@tiffsave_buffer@ 000000018003bc78     VImage.obj
 0002:00009c88       ??_C@_09BADCCNLM@tilecache@ 000000018003bc88     VImage.obj
 0002:00009c98       ??_C@_07MEIMELBF@tonelut@  000000018003bc98     VImage.obj
 0002:00009ca0       ??_C@_0M@NIPMOMC@transpose3d@ 000000018003bca0     VImage.obj
 0002:00009cb0       ??_C@_0O@NEEDPNBG@unpremultiply@ 000000018003bcb0     VImage.obj
 0002:00009cc0       ??_C@_08EDDGDHHH@vipsload@ 000000018003bcc0     VImage.obj
 0002:00009cd0       ??_C@_08EBCLMEKD@vipssave@ 000000018003bcd0     VImage.obj
 0002:00009ce0       ??_C@_08HFDHMJDC@webpload@ 000000018003bce0     VImage.obj
 0002:00009cf0       ??_C@_0BA@NGBBNHGG@webpload_buffer@ 000000018003bcf0     VImage.obj
 0002:00009d00       ??_C@_0BA@EMMALEFP@webpload_source@ 000000018003bd00     VImage.obj
 0002:00009d10       ??_C@_08HHCKDKOG@webpsave@ 000000018003bd10     VImage.obj
 0002:00009d20       ??_C@_0BA@CIOCAADP@webpsave_buffer@ 000000018003bd20     VImage.obj
 0002:00009d30       ??_C@_0BA@MPCNBIOH@webpsave_target@ 000000018003bd30     VImage.obj
 0002:00009d40       ??_C@_06PAPNEDML@worley@   000000018003bd40     VImage.obj
 0002:00009d48       ??_C@_04NFDDIEML@wrap@     000000018003bd48     VImage.obj
 0002:00009d50       ??_C@_03POMAGKDD@xyz@      000000018003bd50     VImage.obj
 0002:00009d54       ??_C@_04LDDJGOBB@zone@     000000018003bd54     VImage.obj
 0002:00009d5c       ??_C@_04HKCCIOCO@zoom@     000000018003bd5c     VImage.obj
 0002:0000a218       __real@3ff0000000000000    000000018003c218     VImage.obj
 0002:0000a220       __real@bff0000000000000    000000018003c220     VImage.obj
 0002:0000a230       __xmm@000000000000000f0000000000000000 000000018003c230     VError.obj
 0002:0000a240       __xmm@80000000000000008000000000000000 000000018003c240     VImage.obj
 0002:0000da50       _load_config_used          000000018003fa50     LIBCMT:loadcfg.obj
 0002:0000db50       ??_R4exception@std@@6B@    000000018003fb50     libcpmt:xonce.obj
 0002:0000db78       ??_R3exception@std@@8      000000018003fb78     libcpmt:xonce.obj
 0002:0000db90       ??_R2exception@std@@8      000000018003fb90     libcpmt:xonce.obj
 0002:0000dba0       ??_R1A@?0A@EA@exception@std@@8 000000018003fba0     libcpmt:xonce.obj
 0002:0000dbc8       ??_R4runtime_error@std@@6B@ 000000018003fbc8     libcpmt:xonce.obj
 0002:0000dbf0       ??_R3runtime_error@std@@8  000000018003fbf0     libcpmt:xonce.obj
 0002:0000dc08       ??_R2runtime_error@std@@8  000000018003fc08     libcpmt:xonce.obj
 0002:0000dc20       ??_R1A@?0A@EA@runtime_error@std@@8 000000018003fc20     libcpmt:xonce.obj
 0002:0000dc48       ??_R4_System_error@std@@6B@ 000000018003fc48     libcpmt:xonce.obj
 0002:0000dc70       ??_R3_System_error@std@@8  000000018003fc70     libcpmt:xonce.obj
 0002:0000dc88       ??_R2_System_error@std@@8  000000018003fc88     libcpmt:xonce.obj
 0002:0000dca8       ??_R1A@?0A@EA@_System_error@std@@8 000000018003fca8     libcpmt:xonce.obj
 0002:0000dcd0       ??_R4bad_alloc@std@@6B@    000000018003fcd0     libcpmt:xthrow.obj
 0002:0000dcf8       ??_R3bad_alloc@std@@8      000000018003fcf8     libcpmt:xthrow.obj
 0002:0000dd10       ??_R2bad_alloc@std@@8      000000018003fd10     libcpmt:xthrow.obj
 0002:0000dd28       ??_R1A@?0A@EA@bad_alloc@std@@8 000000018003fd28     libcpmt:xthrow.obj
 0002:0000dd50       ??_R4logic_error@std@@6B@  000000018003fd50     libcpmt:xthrow.obj
 0002:0000dd78       ??_R3logic_error@std@@8    000000018003fd78     libcpmt:xthrow.obj
 0002:0000dd90       ??_R2logic_error@std@@8    000000018003fd90     libcpmt:xthrow.obj
 0002:0000dda8       ??_R1A@?0A@EA@logic_error@std@@8 000000018003fda8     libcpmt:xthrow.obj
 0002:0000ddd0       ??_R4length_error@std@@6B@ 000000018003fdd0     libcpmt:xthrow.obj
 0002:0000ddf8       ??_R3length_error@std@@8   000000018003fdf8     libcpmt:xthrow.obj
 0002:0000de10       ??_R2length_error@std@@8   000000018003fe10     libcpmt:xthrow.obj
 0002:0000de30       ??_R1A@?0A@EA@length_error@std@@8 000000018003fe30     libcpmt:xthrow.obj
 0002:0000de58       ??_R4type_info@@6B@        000000018003fe58     LIBCMT:std_type_info_static.obj
 0002:0000de80       ??_R3type_info@@8          000000018003fe80     LIBCMT:std_type_info_static.obj
 0002:0000de98       ??_R2type_info@@8          000000018003fe98     LIBCMT:std_type_info_static.obj
 0002:0000dea8       ??_R1A@?0A@EA@type_info@@8 000000018003fea8     LIBCMT:std_type_info_static.obj
 0002:0000ded0       ??_R4bad_array_new_length@std@@6B@ 000000018003fed0     LIBCMT:throw_bad_alloc.obj
 0002:0000def8       ??_R3bad_array_new_length@std@@8 000000018003fef8     LIBCMT:throw_bad_alloc.obj
 0002:0000df10       ??_R2bad_array_new_length@std@@8 000000018003ff10     LIBCMT:throw_bad_alloc.obj
 0002:0000df30       ??_R1A@?0A@EA@bad_array_new_length@std@@8 000000018003ff30     LIBCMT:throw_bad_alloc.obj
 0002:0000df58       ??_R4bad_exception@std@@6B@ 000000018003ff58     libvcruntime:frame.obj
 0002:0000df80       ??_R3bad_exception@std@@8  000000018003ff80     libvcruntime:frame.obj
 0002:0000df98       ??_R2bad_exception@std@@8  000000018003ff98     libvcruntime:frame.obj
 0002:0000dfb0       ??_R1A@?0A@EA@bad_exception@std@@8 000000018003ffb0     libvcruntime:frame.obj
 0002:0000e348       __rtc_iaa                  0000000180040348     LIBCMT:initsect.obj
 0002:0000e350       __rtc_izz                  0000000180040350     LIBCMT:initsect.obj
 0002:0000e358       __rtc_taa                  0000000180040358     LIBCMT:initsect.obj
 0002:0000e360       __rtc_tzz                  0000000180040360     LIBCMT:initsect.obj
 0002:00013b00       _CT??_R0?AVexception@std@@@8??0exception@std@@QEAA@AEBV01@@Z24 0000000180045b00     libcpmt:xonce.obj
 0002:00013b28       _TI2?AVbad_alloc@std@@     0000000180045b28     libcpmt:xthrow.obj
 0002:00013b48       _CTA2?AVbad_alloc@std@@    0000000180045b48     libcpmt:xthrow.obj
 0002:00013b60       _CT??_R0?AVbad_alloc@std@@@8??0bad_alloc@std@@QEAA@AEBV01@@Z24 0000000180045b60     libcpmt:xthrow.obj
 0002:00013b88       _CT??_R0?AVlogic_error@std@@@8??0logic_error@std@@QEAA@AEBV01@@Z24 0000000180045b88     libcpmt:xthrow.obj
 0002:00013bb0       _TI3?AVlength_error@std@@  0000000180045bb0     libcpmt:xthrow.obj
 0002:00013bd0       _CTA3?AVlength_error@std@@ 0000000180045bd0     libcpmt:xthrow.obj
 0002:00013bf0       _CT??_R0?AVlength_error@std@@@8??0length_error@std@@QEAA@AEBV01@@Z24 0000000180045bf0     libcpmt:xthrow.obj
 0002:00013c18       _TI3?AVbad_array_new_length@std@@ 0000000180045c18     LIBCMT:throw_bad_alloc.obj
 0002:00013c38       _CTA3?AVbad_array_new_length@std@@ 0000000180045c38     LIBCMT:throw_bad_alloc.obj
 0002:00013c58       _CT??_R0?AVbad_array_new_length@std@@@8??0bad_array_new_length@std@@QEAA@AEBV01@@Z24 0000000180045c58     LIBCMT:throw_bad_alloc.obj
 0002:00013c80       _TI2?AVbad_exception@std@@ 0000000180045c80     libvcruntime:frame.obj
 0002:00013ca0       _CTA2?AVbad_exception@std@@ 0000000180045ca0     libvcruntime:frame.obj
 0002:00013cb8       _CT??_R0?AVbad_exception@std@@@8??0bad_exception@std@@QEAA@AEBV01@@Z24 0000000180045cb8     libvcruntime:frame.obj
 0002:00013ce0       _CT??_R0?AVVError@vips@@@8??0VError@vips@@QEAA@AEBV01@@Z48 0000000180045ce0     VError.obj
 0002:00013d08       _CTA2?AVVError@vips@@      0000000180045d08     VError.obj
 0002:00013d20       _CT??_R0?AVexception@stdext@@@8??0exception@stdext@@QEAA@AEBV01@@Z16 0000000180045d20     VError.obj
 0002:00013d48       _TI2?AVVError@vips@@       0000000180045d48     VError.obj
 0002:0001c6d0       __IMPORT_DESCRIPTOR_KERNEL32 000000018004e6d0     kernel32:KERNEL32.dll
 0002:0001c6e4       _head_lib_libvips_lib      000000018004e6e4     libvips:desubh.o
 0002:0001c6f8       _head_lib_libglib_2_0_lib  000000018004e6f8     libglib-2.0:dnoubh.o
 0002:0001c70c       _head_lib_libgobject_2_0_lib 000000018004e70c     libgobject-2.0:dxoubh.o
 0002:0001c720       __NULL_IMPORT_DESCRIPTOR   000000018004e720     kernel32:KERNEL32.dll
 0002:0001dccc       __lib_libvips_lib_iname    000000018004fccc     libvips:desubt.o
 0002:0001dce4       __lib_libglib_2_0_lib_iname 000000018004fce4     libglib-2.0:dnoubt.o
 0002:0001dd50       __lib_libgobject_2_0_lib_iname 000000018004fd50     libgobject-2.0:dxoubt.o
 0003:00000000       __security_cookie_complement 0000000180050000     LIBCMT:gs_cookie.obj
 0003:00000008       __security_cookie          0000000180050008     LIBCMT:gs_cookie.obj
 0003:00000010       __scrt_native_dllmain_reason 0000000180050010     LIBCMT:utility.obj
 0003:00000020       __isa_available            0000000180050020     LIBCMT:cpu_disp.obj
 0003:00000024       __isa_enabled              0000000180050024     LIBCMT:cpu_disp.obj
 0003:00000028       __memcpy_nt_iters          0000000180050028     LIBCMT:cpu_disp.obj
 0003:00000040       __abort_behavior           0000000180050040     libucrt:abort.obj
 0003:00000060       __acrt_initial_locale_data 0000000180050060     libucrt:nlsdata.obj
 0003:000001b8       __acrt_initial_locale_pointers 00000001800501b8     libucrt:nlsdata.obj
 0003:000001c8       __acrt_wide_c_locale_string 00000001800501c8     libucrt:nlsdata.obj
 0003:000004e0       __acrt_initial_multibyte_data 00000001800504e0     libucrt:mbctype.obj
 0003:00000710       _iob                       0000000180050710     libucrt:_file.obj
 0003:00000818       __globallocalestatus       0000000180050818     libucrt:glstatus.obj
 0003:00000820       __acrt_lconv_c             0000000180050820     libucrt:localeconv.obj
 0003:000008b8       __acrt_lconv_static_decimal 00000001800508b8     libucrt:localeconv.obj
 0003:000008bc       __acrt_lconv_static_W_decimal 00000001800508bc     libucrt:localeconv.obj
 0003:000008c0       _lookuptrailbytes          00000001800508c0     libucrt:read.obj
 0003:000009e0       _fltused                   00000001800509e0     LIBCMT:fltused.obj
 0003:000009f0       ??_R0?AV_System_error@std@@@8 00000001800509f0     libcpmt:xonce.obj
 0003:00000a18       ??_R0?AVruntime_error@std@@@8 0000000180050a18     libcpmt:xonce.obj
 0003:00000a40       ??_R0?AVexception@std@@@8  0000000180050a40     libcpmt:xonce.obj
 0003:00000a68       ??_R0?AVbad_alloc@std@@@8  0000000180050a68     libcpmt:xthrow.obj
 0003:00000a90       ??_R0?AVlogic_error@std@@@8 0000000180050a90     libcpmt:xthrow.obj
 0003:00000ab8       ??_R0?AVlength_error@std@@@8 0000000180050ab8     libcpmt:xthrow.obj
 0003:00000ae0       ??_R0?AVtype_info@@@8      0000000180050ae0     LIBCMT:std_type_info_static.obj
 0003:00000b00       ??_R0?AVbad_array_new_length@std@@@8 0000000180050b00     LIBCMT:throw_bad_alloc.obj
 0003:00000b30       ??_R0?AVbad_exception@std@@@8 0000000180050b30     libvcruntime:frame.obj
 0003:00000b58       ??_R0?AVexception@stdext@@@8 0000000180050b58     VError.obj
 0003:00000b80       ??_R0?AVVError@vips@@@8    0000000180050b80     VError.obj
 0003:00000bb0       ?_Raise_handler@std@@3P6AXAEBVexception@stdext@@@ZEA 0000000180050bb0     libcpmt:raisehan.obj
 0003:00000bc0       __encodedKERNEL32Functions 0000000180050bc0     libcpmt:winapisupp.obj
 0003:00001280       ?__type_info_root_node@@3U__type_info_node@@A 0000000180051280     LIBCMT:tncleanup.obj
 0003:00001290       ?_OptionsStorage@?1??__local_stdio_printf_options@@9@4_KA 0000000180051290     LIBCMT:default_local_stdio_options.obj
 0003:00001298       ?_OptionsStorage@?1??__local_stdio_scanf_options@@9@4_KA 0000000180051298     LIBCMT:default_local_stdio_options.obj
 0003:000012a0       __scrt_current_native_startup_state 00000001800512a0     LIBCMT:utility.obj
 0003:000012a8       __scrt_native_startup_lock 00000001800512a8     LIBCMT:utility.obj
 0003:000012e8       __scrt_debugger_hook_flag  00000001800512e8     LIBCMT:utility_desktop.obj
 0003:000012ec       __favor                    00000001800512ec     LIBCMT:cpu_disp.obj
 0003:000012f0       ?__WinRTOutOfMemoryExceptionCallback@@3P6APEAXXZEA 00000001800512f0     libvcruntime:ehhelpers.obj
 0003:00001390       ?pArgList@UnDecorator@@0PEAVReplicator@@EA 0000000180051390     libvcruntime:undname.obj
 0003:00001398       ?pZNameList@UnDecorator@@0PEAVReplicator@@EA 0000000180051398     libvcruntime:undname.obj
 0003:000013a0       ?pTemplateArgList@UnDecorator@@0PEAVReplicator@@EA 00000001800513a0     libvcruntime:undname.obj
 0003:000013a8       ?gName@UnDecorator@@0PEBDEB 00000001800513a8     libvcruntime:undname.obj
 0003:000013b0       ?name@UnDecorator@@0PEBDEB 00000001800513b0     libvcruntime:undname.obj
 0003:000013b8       ?disableFlags@UnDecorator@@0KA 00000001800513b8     libvcruntime:undname.obj
 0003:000013bc       ?fExplicitTemplateParams@UnDecorator@@0_NA 00000001800513bc     libvcruntime:undname.obj
 0003:000013bd       ?fGetTemplateArgumentList@UnDecorator@@0_NA 00000001800513bd     libvcruntime:undname.obj
 0003:000013c0       ?m_pGetParameter@UnDecorator@@0P6APEADJ@ZEA 00000001800513c0     libvcruntime:undname.obj
 0003:000013c8       ?m_CHPENameOffset@UnDecorator@@0KA 00000001800513c8     libvcruntime:undname.obj
 0003:000013cc       ?m_recursionLevel@UnDecorator@@0KA 00000001800513cc     libvcruntime:undname.obj
 0003:00001468       __pPurecall                0000000180051468     libvcruntime:purevirt_data.obj
 0003:00001490       ?c_exit_complete@?1???R<lambda_6e4b09c48022b2350581041d5f6b0c4c>@@QEBA@XZ@4_NA 0000000180051490     libucrt:exit.obj
 0003:000015a8       _environ_table             00000001800515a8     libucrt:environment_initialization.obj
 0003:000015b0       _wenviron_table            00000001800515b0     libucrt:environment_initialization.obj
 0003:000015b8       __dcrt_initial_wide_environment 00000001800515b8     libucrt:environment_initialization.obj
 0003:000015c0       __dcrt_initial_narrow_environment 00000001800515c0     libucrt:environment_initialization.obj
 0003:000015c8       __acrt_atexit_table        00000001800515c8     libucrt:onexit.obj
 0003:000015e0       __acrt_at_quick_exit_table 00000001800515e0     libucrt:onexit.obj
 0003:000015f8       __acrt_locale_changed_data 00000001800515f8     libucrt:wsetlocale.obj
 0003:00001600       __acrt_current_locale_data 0000000180051600     libucrt:nlsdata.obj
 0003:00001848       _mbctype                   0000000180051848     libucrt:mbctype.obj
 0003:00001850       _mbcasemap                 0000000180051850     libucrt:mbctype.obj
 0003:00001858       __acrt_current_multibyte_data 0000000180051858     libucrt:mbctype.obj
 0003:00001868       _pgmptr                    0000000180051868     libucrt:argv_data.obj
 0003:00001870       __argc                     0000000180051870     libucrt:argv_data.obj
 0003:00001878       __argv                     0000000180051878     libucrt:argv_data.obj
 0003:00001880       __wargv                    0000000180051880     libucrt:argv_data.obj
 0003:00001888       _acmdln                    0000000180051888     libucrt:argv_data.obj
 0003:00001890       _wcmdln                    0000000180051890     libucrt:argv_data.obj
 0003:00001a50       __acrt_heap                0000000180051a50     libucrt:heap_handle.obj
 0003:00001a60       __pioinfo                  0000000180051a60     libucrt:ioinit.obj
 0003:00001e60       _nhandle                   0000000180051e60     libucrt:ioinit.obj
 0003:00001e90       _nstream                   0000000180051e90     libucrt:_file.obj
 0003:00001e98       __piob                     0000000180051e98     libucrt:_file.obj
 0003:00001ea0       __acrt_stdout_buffer       0000000180051ea0     libucrt:_sftbuf.obj
 0003:00001ea8       __acrt_stderr_buffer       0000000180051ea8     libucrt:_sftbuf.obj
 0003:00001eb8       __acrt_lconv_static_null   0000000180051eb8     libucrt:localeconv.obj
 0003:00001ebc       __acrt_lconv_static_W_null 0000000180051ebc     libucrt:localeconv.obj
 0003:00001ed0       __fma3_is_available        0000000180051ed0     libucrt:fma3_available.obj
 0003:00001ed4       __use_fma3_lib             0000000180051ed4     libucrt:fma3_available.obj
 0003:00001ed8       ?_Storage@?1???$_Immortalize@V_Iostream_error_category@std@@@std@@YAAEAV_Iostream_error_category@1@XZ@4T?$_Align_type@N$0BA@@1@A 0000000180051ed8     VError.obj
 0003:00001ee8       ?_Flag@?1???$_Immortalize@V_Iostream_error_category@std@@@std@@YAAEAV_Iostream_error_category@1@XZ@4PEAXEA 0000000180051ee8     VError.obj
 0003:00001ef0       __scrt_ucrt_dll_is_in_use  0000000180051ef0     <common>
 0003:00001ef8       __dyn_tls_init_callback    0000000180051ef8     <common>

 entry point at        0001:000236bc

 Static symbols

 0000:fffa9000       .debug$S                   0000000180000000     kernel32:KERNEL32.dll
 0000:fffa9000       .debug$S                   0000000180000000     libvips-cpp.exp
 0000:fffa9000       .debug$S                   0000000180000000     kernel32:KERNEL32.dll
 0000:fffa9000       .debug$S                   0000000180000000     kernel32:KERNEL32.dll
 0000:fffa9000       .debug$S                   0000000180000000     kernel32:KERNEL32.dll
 0000:fffa9000       .debug$S                   0000000180000000     kernel32:KERNEL32.dll
 0000:fffa9000       .debug$S                   0000000180000000     kernel32:KERNEL32.dll
 0000:fffa9000       .debug$S                   0000000180000000     kernel32:KERNEL32.dll
 0000:fffa9000       .debug$S                   0000000180000000     kernel32:KERNEL32.dll
 0000:fffa9000       .debug$S                   0000000180000000     kernel32:KERNEL32.dll
 0000:fffa9000       .debug$S                   0000000180000000     kernel32:KERNEL32.dll
 0000:fffa9000       .debug$S                   0000000180000000     kernel32:KERNEL32.dll
 0000:fffa9000       .debug$S                   0000000180000000     kernel32:KERNEL32.dll
 0000:fffa9000       .debug$S                   0000000180000000     kernel32:KERNEL32.dll
 0000:fffa9000       .debug$S                   0000000180000000     kernel32:KERNEL32.dll
 0000:fffa9000       .debug$S                   0000000180000000     kernel32:KERNEL32.dll
 0000:fffa9000       .debug$S                   0000000180000000     kernel32:KERNEL32.dll
 0000:fffa9000       .debug$S                   0000000180000000     kernel32:KERNEL32.dll
 0000:fffa9000       .debug$S                   0000000180000000     kernel32:KERNEL32.dll
 0000:fffa9000       .debug$S                   0000000180000000     kernel32:KERNEL32.dll
 0000:fffa9000       .debug$S                   0000000180000000     kernel32:KERNEL32.dll
 0000:fffa9000       .debug$S                   0000000180000000     kernel32:KERNEL32.dll
 0000:fffa9000       .debug$S                   0000000180000000     kernel32:KERNEL32.dll
 0000:fffa9000       .debug$S                   0000000180000000     kernel32:KERNEL32.dll
 0000:fffa9000       .debug$S                   0000000180000000     kernel32:KERNEL32.dll
 0000:fffa9000       .debug$S                   0000000180000000     kernel32:KERNEL32.dll
 0000:fffa9000       .debug$S                   0000000180000000     kernel32:KERNEL32.dll
 0000:fffa9000       .debug$S                   0000000180000000     kernel32:KERNEL32.dll
 0000:fffa9000       .debug$S                   0000000180000000     kernel32:KERNEL32.dll
 0000:fffa9000       .debug$S                   0000000180000000     kernel32:KERNEL32.dll
 0000:fffa9000       .debug$S                   0000000180000000     kernel32:KERNEL32.dll
 0000:fffa9000       .debug$S                   0000000180000000     kernel32:KERNEL32.dll
 0000:fffa9000       .debug$S                   0000000180000000     kernel32:KERNEL32.dll
 0000:fffa9000       .debug$S                   0000000180000000     kernel32:KERNEL32.dll
 0000:fffa9000       .debug$S                   0000000180000000     kernel32:KERNEL32.dll
 0000:fffa9000       .debug$S                   0000000180000000     kernel32:KERNEL32.dll
 0000:fffa9000       .debug$S                   0000000180000000     kernel32:KERNEL32.dll
 0000:fffa9000       .debug$S                   0000000180000000     kernel32:KERNEL32.dll
 0000:fffa9000       .debug$S                   0000000180000000     kernel32:KERNEL32.dll
 0000:fffa9000       .debug$S                   0000000180000000     kernel32:KERNEL32.dll
 0000:fffa9000       .debug$S                   0000000180000000     kernel32:KERNEL32.dll
 0000:fffa9000       .debug$S                   0000000180000000     kernel32:KERNEL32.dll
 0000:fffa9000       .debug$S                   0000000180000000     kernel32:KERNEL32.dll
 0000:fffa9000       .debug$S                   0000000180000000     kernel32:KERNEL32.dll
 0000:fffa9000       .debug$S                   0000000180000000     kernel32:KERNEL32.dll
 0000:fffa9000       .debug$S                   0000000180000000     kernel32:KERNEL32.dll
 0000:fffa9000       .debug$S                   0000000180000000     kernel32:KERNEL32.dll
 0000:fffa9000       .debug$S                   0000000180000000     kernel32:KERNEL32.dll
 0000:fffa9000       .debug$S                   0000000180000000     kernel32:KERNEL32.dll
 0000:fffa9000       .debug$S                   0000000180000000     kernel32:KERNEL32.dll
 0000:fffa9000       .debug$S                   0000000180000000     kernel32:KERNEL32.dll
 0000:fffa9000       .debug$S                   0000000180000000     kernel32:KERNEL32.dll
 0000:fffa9000       .debug$S                   0000000180000000     kernel32:KERNEL32.dll
 0000:fffa9000       .debug$S                   0000000180000000     kernel32:KERNEL32.dll
 0000:fffa9000       .debug$S                   0000000180000000     kernel32:KERNEL32.dll
 0000:fffa9000       .debug$S                   0000000180000000     kernel32:KERNEL32.dll
 0000:fffa9000       .debug$S                   0000000180000000     kernel32:KERNEL32.dll
 0000:fffa9000       .debug$S                   0000000180000000     kernel32:KERNEL32.dll
 0000:fffa9000       .debug$S                   0000000180000000     kernel32:KERNEL32.dll
 0000:fffa9000       .debug$S                   0000000180000000     kernel32:KERNEL32.dll
 0000:fffa9000       .debug$S                   0000000180000000     kernel32:KERNEL32.dll
 0000:fffa9000       .debug$S                   0000000180000000     kernel32:KERNEL32.dll
 0000:fffa9000       .debug$S                   0000000180000000     kernel32:KERNEL32.dll
 0000:fffa9000       .debug$S                   0000000180000000     kernel32:KERNEL32.dll
 0000:fffa9000       .debug$S                   0000000180000000     kernel32:KERNEL32.dll
 0000:fffa9000       .debug$S                   0000000180000000     kernel32:KERNEL32.dll
 0000:fffa9000       .debug$S                   0000000180000000     kernel32:KERNEL32.dll
 0000:fffa9000       .debug$S                   0000000180000000     kernel32:KERNEL32.dll
 0000:fffa9000       .debug$S                   0000000180000000     kernel32:KERNEL32.dll
 0000:fffa9000       .debug$S                   0000000180000000     kernel32:KERNEL32.dll
 0000:fffa9000       .debug$S                   0000000180000000     kernel32:KERNEL32.dll
 0000:fffa9000       .debug$S                   0000000180000000     kernel32:KERNEL32.dll
 0000:fffa9000       .debug$S                   0000000180000000     kernel32:KERNEL32.dll
 0000:fffa9000       .debug$S                   0000000180000000     kernel32:KERNEL32.dll
 0000:fffa9000       .debug$S                   0000000180000000     kernel32:KERNEL32.dll
 0000:fffa9000       .debug$S                   0000000180000000     kernel32:KERNEL32.dll
 0000:fffa9000       .debug$S                   0000000180000000     kernel32:KERNEL32.dll
 0000:fffa9000       .debug$S                   0000000180000000     kernel32:KERNEL32.dll
 0000:fffa9000       .debug$S                   0000000180000000     kernel32:KERNEL32.dll
 0000:fffa9000       .debug$S                   0000000180000000     kernel32:KERNEL32.dll
 0000:fffa9000       .debug$S                   0000000180000000     kernel32:KERNEL32.dll
 0000:fffa9000       .debug$S                   0000000180000000     kernel32:KERNEL32.dll
 0000:fffa9000       .debug$S                   0000000180000000     kernel32:KERNEL32.dll
 0000:fffa9000       .debug$S                   0000000180000000     kernel32:KERNEL32.dll
 0000:fffa9000       .debug$S                   0000000180000000     kernel32:KERNEL32.dll
 0000:fffa9000       .debug$S                   0000000180000000     kernel32:KERNEL32.dll
 0000:fffa9000       .debug$S                   0000000180000000     kernel32:KERNEL32.dll
 0000:fffa9000       .debug$S                   0000000180000000     kernel32:KERNEL32.dll
 0000:fffa9000       .debug$S                   0000000180000000     kernel32:KERNEL32.dll
 0000:fffa9000       .debug$S                   0000000180000000     kernel32:KERNEL32.dll
 0001:00000000       .text                      0000000180001000     libvips:desubs01576.o
 0001:00000008       .text                      0000000180001008     libvips:desubs01567.o
 0001:00000010       .text                      0000000180001010     libvips:desubs01549.o
 0001:00000018       .text                      0000000180001018     libvips:desubs01579.o
 0001:00000020       .text                      0000000180001020     libvips:desubs01571.o
 0001:00000028       .text                      0000000180001028     libvips:desubs01748.o
 0001:00000030       .text                      0000000180001030     libvips:desubs01519.o
 0001:00000038       .text                      0000000180001038     libvips:desubs01518.o
 0001:00000040       .text                      0000000180001040     libvips:desubs01522.o
 0001:00000048       .text                      0000000180001048     libvips:desubs01505.o
 0001:00000050       .text                      0000000180001050     libvips:desubs01555.o
 0001:00000058       .text                      0000000180001058     libvips:desubs01503.o
 0001:00000060       .text                      0000000180001060     libvips:desubs01515.o
 0001:00000068       .text                      0000000180001068     libvips:desubs01500.o
 0001:00000070       .text                      0000000180001070     libvips:desubs01524.o
 0001:00000078       .text                      0000000180001078     libvips:desubs01504.o
 0001:00000080       .text                      0000000180001080     libvips:desubs01520.o
 0001:00000088       .text                      0000000180001088     libvips:desubs01547.o
 0001:00000090       .text                      0000000180001090     libvips:desubs01487.o
 0001:00000098       .text                      0000000180001098     libvips:desubs01509.o
 0001:000000a0       .text                      00000001800010a0     libvips:desubs01588.o
 0001:000000a8       .text                      00000001800010a8     libvips:desubs01497.o
 0001:000000b0       .text                      00000001800010b0     libvips:desubs01570.o
 0001:000000b8       .text                      00000001800010b8     libvips:desubs01517.o
 0001:000000c0       .text                      00000001800010c0     libvips:desubs01553.o
 0001:000000c8       .text                      00000001800010c8     libvips:desubs01499.o
 0001:000000d0       .text                      00000001800010d0     libvips:desubs01240.o
 0001:000000d8       .text                      00000001800010d8     libvips:desubs01557.o
 0001:000000e0       .text                      00000001800010e0     libvips:desubs01498.o
 0001:000000e8       .text                      00000001800010e8     libvips:desubs01495.o
 0001:000000f0       .text                      00000001800010f0     libvips:desubs01501.o
 0001:000000f8       .text                      00000001800010f8     libvips:desubs01574.o
 0001:00000100       .text                      0000000180001100     libvips:desubs01525.o
 0001:00000108       .text                      0000000180001108     libvips:desubs01508.o
 0001:00000110       .text                      0000000180001110     libvips:desubs01521.o
 0001:00000118       .text                      0000000180001118     libvips:desubs02016.o
 0001:00000120       .text                      0000000180001120     libvips:desubs02017.o
 0001:00000128       .text                      0000000180001128     libvips:desubs02013.o
 0001:00000130       .text                      0000000180001130     libvips:desubs02060.o
 0001:00000138       .text                      0000000180001138     libvips:desubs02007.o
 0001:00000140       .text                      0000000180001140     libvips:desubs02014.o
 0001:00000148       .text                      0000000180001148     libvips:desubs02015.o
 0001:00000150       .text                      0000000180001150     libvips:desubs02059.o
 0001:00000158       .text                      0000000180001158     libvips:desubs02058.o
 0001:00000160       .text                      0000000180001160     libvips:desubs02057.o
 0001:00000168       .text                      0000000180001168     libvips:desubs01611.o
 0001:00000170       .text                      0000000180001170     libvips:desubs01604.o
 0001:00000178       .text                      0000000180001178     libvips:desubs01294.o
 0001:00000180       .text                      0000000180001180     libvips:desubs02131.o
 0001:00000188       .text                      0000000180001188     libvips:desubs02130.o
 0001:00000190       .text                      0000000180001190     libvips:desubs01290.o
 0001:00000198       .text                      0000000180001198     libvips:desubs02122.o
 0001:000001a0       .text                      00000001800011a0     libvips:desubs01787.o
 0001:000001a8       .text                      00000001800011a8     libvips:desubs00910.o
 0001:000001b0       .text                      00000001800011b0     libvips:desubs00711.o
 0001:000001b8       .text                      00000001800011b8     libvips:desubs00962.o
 0001:000001c0       .text                      00000001800011c0     libvips:desubs01015.o
 0001:000001c8       .text                      00000001800011c8     libvips:desubs01291.o
 0001:000001d0       .text                      00000001800011d0     libvips:desubs02132.o
 0001:000001d8       .text                      00000001800011d8     libvips:desubs00961.o
 0001:000001e0       .text                      00000001800011e0     libvips:desubs01230.o
 0001:000001e8       .text                      00000001800011e8     libvips:desubs00904.o
 0001:000001f0       .text                      00000001800011f0     libvips:desubs01390.o
 0001:000001f8       .text                      00000001800011f8     libvips:desubs02120.o
 0001:00000200       .text                      0000000180001200     libvips:desubs01552.o
 0001:00000208       .text                      0000000180001208     libvips:desubs01516.o
 0001:00000210       .text                      0000000180001210     libvips:desubs01772.o
 0001:00000218       .text                      0000000180001218     libvips:desubs01292.o
 0001:00000220       .text                      0000000180001220     libvips:desubs01242.o
 0001:00000228       .text                      0000000180001228     libvips:desubs01765.o
 0001:00000230       .text                      0000000180001230     libvips:desubs02121.o
 0001:00000238       .text                      0000000180001238     libvips:desubs01583.o
 0001:00000240       .text                      0000000180001240     libvips:desubs00890.o
 0001:00000248       .text                      0000000180001248     libvips:desubs01293.o
 0001:00000250       .text                      0000000180001250     libvips:desubs00915.o
 0001:00000258       .text                      0000000180001258     libvips:desubs01742.o
 0001:00000260       .text                      0000000180001260     libvips:desubs01289.o
 0001:00000270       .text                      0000000180001270     libglib-2.0:dnoubs00046.o
 0001:00000278       .text                      0000000180001278     libglib-2.0:dnoubs00662.o
 0001:00000280       .text                      0000000180001280     libgobject-2.0:dxoubs00144.o
 0001:00000288       .text                      0000000180001288     libgobject-2.0:dxoubs00162.o
 0001:00000290       .text                      0000000180001290     libgobject-2.0:dxoubs00279.o
 0001:00000298       .text                      0000000180001298     libgobject-2.0:dxoubs00391.o
 0001:000002a0       .text                      00000001800012a0     libgobject-2.0:dxoubs00409.o
 0001:000002a8       .text                      00000001800012a8     libgobject-2.0:dxoubs00396.o
 0001:000002b0       .text                      00000001800012b0     libgobject-2.0:dxoubs00384.o
 0001:000002b8       .text                      00000001800012b8     libgobject-2.0:dxoubs00400.o
 0001:000002c0       .text                      00000001800012c0     libgobject-2.0:dxoubs00417.o
 0001:000002c8       .text                      00000001800012c8     libgobject-2.0:dxoubs00278.o
 0001:000002d0       .text                      00000001800012d0     libgobject-2.0:dxoubs00369.o
 0001:000002d8       .text                      00000001800012d8     libgobject-2.0:dxoubs00397.o
 0001:000002e0       .text                      00000001800012e0     libgobject-2.0:dxoubs00380.o
 0001:000002e8       .text                      00000001800012e8     libgobject-2.0:dxoubs00406.o
 0001:000002f0       .text                      00000001800012f0     libgobject-2.0:dxoubs00363.o
 0001:000002f8       .text                      00000001800012f8     libgobject-2.0:dxoubs00377.o
 0001:00000300       .text                      0000000180001300     libgobject-2.0:dxoubs00401.o
 0001:00000308       .text                      0000000180001308     libgobject-2.0:dxoubs00372.o
 0001:00000310       .text                      0000000180001310     libgobject-2.0:dxoubs00129.o
 0001:00000318       .text                      0000000180001318     libgobject-2.0:dxoubs00432.o
 0001:00000320       .text                      0000000180001320     libgobject-2.0:dxoubs00154.o
 0001:00022c74       ?initialize_pointers@@YAHXZ 0000000180023c74 f   libcpmt:winapisupp.obj
 0001:00023210       $$000000                   0000000180024210     LIBCMT:amdsecgs.obj
 0001:0002338c       ?dllmain_crt_dispatch@@YAHQEAUHINSTANCE__@@KQEAX@Z 000000018002438c f   LIBCMT:dll_dllmain.obj
 0001:000233dc       ?dllmain_crt_process_attach@@YAHQEAUHINSTANCE__@@QEAX@Z 00000001800243dc f   LIBCMT:dll_dllmain.obj
 0001:000234f8       ?dllmain_crt_process_detach@@YAH_N@Z 00000001800244f8 f   LIBCMT:dll_dllmain.obj
 0001:00023588       ?dllmain_dispatch@@YAHQEAUHINSTANCE__@@KQEAX@Z 0000000180024588 f   LIBCMT:dll_dllmain.obj
 0001:000239b0       capture_current_context    00000001800249b0 f   LIBCMT:gs_report.obj
 0001:00023a20       capture_previous_context   0000000180024a20 f   LIBCMT:gs_report.obj
 0001:00024bb0       $$000000                   0000000180025bb0     libvcruntime:memcpy.obj
 0001:00024c67       MoveSmall                  0000000180025c67     libvcruntime:memcpy.obj
 0001:00025010       $$000000                   0000000180026010     libvcruntime:memset.obj
 0001:0002510c       MsetTab                    000000018002610c     libvcruntime:memset.obj
 0001:00025798       ??$BuildCatchObjectHelperInternal@V__FrameHandler3@@@@YAHPEAUEHExceptionRecord@@PEAXPEBU_s_HandlerType@@PEBU_s_CatchableType@@@Z 0000000180026798 f   libvcruntime:frame.obj
 0001:00025998       ??$BuildCatchObjectInternal@V__FrameHandler3@@@@YAXPEAUEHExceptionRecord@@PEAXPEBU_s_HandlerType@@PEBU_s_CatchableType@@@Z 0000000180026998 f   libvcruntime:frame.obj
 0001:00025a58       ??$CatchIt@V__FrameHandler3@@@@YAXPEAUEHExceptionRecord@@PEA_KPEAU_CONTEXT@@PEAU_xDISPATCHER_CONTEXT@@PEBU_s_FuncInfo@@PEBU_s_HandlerType@@PEBU_s_CatchableType@@PEBU_s_TryBlockMapEntry@@H1EE@Z 0000000180026a58 f   libvcruntime:frame.obj
 0001:00025b28       ??$FindHandler@V__FrameHandler3@@@@YAXPEAUEHExceptionRecord@@PEA_KPEAU_CONTEXT@@PEAU_xDISPATCHER_CONTEXT@@PEBU_s_FuncInfo@@EH1@Z 0000000180026b28 f   libvcruntime:frame.obj
 0001:00025f8c       ??$FindHandlerForForeignException@V__FrameHandler3@@@@YAXPEAUEHExceptionRecord@@PEA_KPEAU_CONTEXT@@PEAU_xDISPATCHER_CONTEXT@@PEBU_s_FuncInfo@@HH1@Z 0000000180026f8c f   libvcruntime:frame.obj
 0001:00026794       ?ExFilterRethrow@@YAHPEAU_EXCEPTION_POINTERS@@PEAUEHExceptionRecord@@PEAH@Z 0000000180027794 f   libvcruntime:frame.obj
 0001:00026a48       ?IsInExceptionSpec@@YAEPEAUEHExceptionRecord@@PEBU_s_ESTypeList@@@Z 0000000180027a48 f   libvcruntime:frame.obj
 0001:00026b20       ?Is_bad_exception_allowed@@YAEPEBU_s_ESTypeList@@@Z 0000000180027b20 f   libvcruntime:frame.obj
 0001:00026bd0       $$000000                   0000000180027bd0     libvcruntime:notify.obj
 0001:00026ccc       ?try_get_function@@YAPEAXW4function_id@?A0x14c33c87@@QEBDQEBW4module_id@2@2@Z 0000000180027ccc f   libvcruntime:winapi_downlevel.obj
 0001:000270c0       $$000000                   00000001800280c0     libvcruntime:handlers.obj
 0001:00027794       ??$?RV<lambda_d80eeec6fff315bfe5c115232f3240e3>@@AEAV<lambda_6e4b09c48022b2350581041d5f6b0c4c>@@V<lambda_2358e3775559c9db80273638284d5e45>@@@?$__crt_seh_guarded_call@X@@QEAAX$$QEAV<lambda_d80eeec6fff315bfe5c115232f3240e3>@@AEAV<lambda_6e4b09c48022b2350581041d5f6b0c4c>@@$$QEAV<lambda_2358e3775559c9db80273638284d5e45>@@@Z 0000000180028794 f   libucrt:exit.obj
 0001:000277cc       ??R<lambda_6e4b09c48022b2350581041d5f6b0c4c>@@QEBA@XZ 00000001800287cc f   libucrt:exit.obj
 0001:00027890       ?atexit_exception_filter@@YAHK@Z 0000000180028890 f   libucrt:exit.obj
 0001:0002789c       ?common_exit@@YAXHW4_crt_exit_cleanup_mode@@W4_crt_exit_return_mode@@@Z 000000018002889c f   libucrt:exit.obj
 0001:00027958       ?exit_or_terminate_process@@YAXI@Z 0000000180028958 f   libucrt:exit.obj
 0001:000279a4       ?try_cor_exit_process@@YAXI@Z 00000001800289a4 f   libucrt:exit.obj
 0001:00027a2c       ??$parse_command_line@D@@YAXPEADPEAPEAD0PEA_K2@Z 0000000180028a2c f   libucrt:argv_parsing.obj
 0001:00027dd8       ??$common_initialize_environment_nolock@D@@YAHXZ 0000000180028dd8 f   libucrt:environment_initialization.obj
 0001:00027e44       ??$create_environment@D@@YAQEAPEADQEAD@Z 0000000180028e44 f   libucrt:environment_initialization.obj
 0001:00027f4c       ??$free_environment@D@@YAXQEAPEAD@Z 0000000180028f4c f   libucrt:environment_initialization.obj
 0001:00027f4c       ??$free_environment@_W@@YAXQEAPEA_W@Z 0000000180028f4c f   libucrt:environment_initialization.obj
 0001:00027f90       ??$uninitialize_environment_internal@D@@YAXAEAPEAPEAD@Z 0000000180028f90 f   libucrt:environment_initialization.obj
 0001:00027fac       ??$uninitialize_environment_internal@_W@@YAXAEAPEAPEA_W@Z 0000000180028fac f   libucrt:environment_initialization.obj
 0001:00028008       ??$?RV<lambda_7777bce6b2f8c936911f934f8298dc43>@@AEAV<lambda_f03950bc5685219e0bcd2087efbe011e>@@V<lambda_3883c3dff614d5e0c5f61bb1ac94921c>@@@?$__crt_seh_guarded_call@H@@QEAAH$$QEAV<lambda_7777bce6b2f8c936911f934f8298dc43>@@AEAV<lambda_f03950bc5685219e0bcd2087efbe011e>@@$$QEAV<lambda_3883c3dff614d5e0c5f61bb1ac94921c>@@@Z 0000000180029008 f   libucrt:onexit.obj
 0001:00028044       ??R<lambda_f03950bc5685219e0bcd2087efbe011e>@@QEBAHXZ 0000000180029044 f   libucrt:onexit.obj
 0001:000281c0       initialize_global_variables 00000001800291c0 f   libucrt:initialization.obj
 0001:000281d4       initialize_c               00000001800291d4 f   libucrt:initialization.obj
 0001:000281f8       uninitialize_global_state_isolation 00000001800291f8 f   libucrt:initialization.obj
 0001:000281f8       uninitialize_c             00000001800291f8 f   libucrt:initialization.obj
 0001:000281f8       initialize_environment     00000001800291f8 f   libucrt:initialization.obj
 0001:000281f8       report_memory_leaks        00000001800291f8 f   libucrt:initialization.obj
 0001:000281f8       initialize_global_state_isolation 00000001800291f8 f   libucrt:initialization.obj
 0001:000281fc       uninitialize_environment   00000001800291fc f   libucrt:initialization.obj
 0001:0002820c       initialize_pointers        000000018002920c f   libucrt:initialization.obj
 0001:0002824c       uninitialize_vcruntime     000000018002924c f   libucrt:initialization.obj
 0001:00028254       uninitialize_allocated_memory 0000000180029254 f   libucrt:initialization.obj
 0001:00028294       uninitialize_allocated_io_buffers 0000000180029294 f   libucrt:initialization.obj
 0001:00028430       $$000000                   0000000180029430     libucrt:strncmp.obj
 0001:000284ec       ??$?RV<lambda_0ae27a3a962d80f24befdcbee591983d>@@AEAV<lambda_8d0ee55de4b1038c4002e0adecdf1839>@@V<lambda_dc504788e8f1664fe9b84e20bfb512f2>@@@?$__crt_seh_guarded_call@X@@QEAAX$$QEAV<lambda_0ae27a3a962d80f24befdcbee591983d>@@AEAV<lambda_8d0ee55de4b1038c4002e0adecdf1839>@@$$QEAV<lambda_dc504788e8f1664fe9b84e20bfb512f2>@@@Z 00000001800294ec f   libucrt:per_thread_data.obj
 0001:0002852c       ??$?RV<lambda_2d41944a1d46af3157314b8a01080d33>@@AEAV<lambda_8f455de75cd7d7f24b4096f044d8b9e6>@@V<lambda_aa500f224e6afead328df44964fe2772>@@@?$__crt_seh_guarded_call@X@@QEAAX$$QEAV<lambda_2d41944a1d46af3157314b8a01080d33>@@AEAV<lambda_8f455de75cd7d7f24b4096f044d8b9e6>@@$$QEAV<lambda_aa500f224e6afead328df44964fe2772>@@@Z 000000018002952c f   libucrt:per_thread_data.obj
 0001:0002856c       ??$?RV<lambda_aa87e3671a710a21b5dc78c0bdf72e11>@@AEAV<lambda_92619d2358a28f41a33ba319515a20b9>@@V<lambda_6992ecaafeb10aed2b74cb1fae11a551>@@@?$__crt_seh_guarded_call@X@@QEAAX$$QEAV<lambda_aa87e3671a710a21b5dc78c0bdf72e11>@@AEAV<lambda_92619d2358a28f41a33ba319515a20b9>@@$$QEAV<lambda_6992ecaafeb10aed2b74cb1fae11a551>@@@Z 000000018002956c f   libucrt:per_thread_data.obj
 0001:000285b4       ??$?RV<lambda_f2e299630e499de9f9a165e60fcd3db5>@@AEAV<lambda_2ae9d31cdba2644fcbeaf08da7c24588>@@V<lambda_40d01ff24d0e7b3814fdbdcee8eab3c7>@@@?$__crt_seh_guarded_call@X@@QEAAX$$QEAV<lambda_f2e299630e499de9f9a165e60fcd3db5>@@AEAV<lambda_2ae9d31cdba2644fcbeaf08da7c24588>@@$$QEAV<lambda_40d01ff24d0e7b3814fdbdcee8eab3c7>@@@Z 00000001800295b4 f   libucrt:per_thread_data.obj
 0001:00028614       ?construct_ptd_array@@YAXQEAU__acrt_ptd@@@Z 0000000180029614 f   libucrt:per_thread_data.obj
 0001:000286e4       ?destroy_fls@@YAXPEAX@Z    00000001800296e4 f   libucrt:per_thread_data.obj
 0001:00028704       ?destroy_ptd_array@@YAXQEAU__acrt_ptd@@@Z 0000000180029704 f   libucrt:per_thread_data.obj
 0001:000287fc       ?replace_current_thread_locale_nolock@@YAXQEAU__acrt_ptd@@QEAU__crt_locale_data@@@Z 00000001800297fc f   libucrt:per_thread_data.obj
 0001:00028c90       ??$?RV<lambda_410d79af7f07d98d83a3f525b3859a53>@@AEAV<lambda_3e16ef9562a7dcce91392c22ab16ea36>@@V<lambda_38119f0e861e05405d8a144b9b982f0a>@@@?$__crt_seh_guarded_call@X@@QEAAX$$QEAV<lambda_410d79af7f07d98d83a3f525b3859a53>@@AEAV<lambda_3e16ef9562a7dcce91392c22ab16ea36>@@$$QEAV<lambda_38119f0e861e05405d8a144b9b982f0a>@@@Z 0000000180029c90 f   libucrt:wsetlocale.obj
 0001:00028f48       ?<lambda_invoker_cdecl>@<lambda_c2303d2482d7c3675ea2e24c4cfb6115>@@CAHPEBX0@Z 0000000180029f48 f   libucrt:argv_wildcards.obj
 0001:00029260       ??$common_expand_argv_wildcards@D@@YAHQEAPEADQEAPEAPEAD@Z 000000018002a260 f   libucrt:argv_wildcards.obj
 0001:0002946c       ??$copy_and_add_argument_to_buffer@D@@YAHQEBD0_KAEAV?$argument_list@D@?A0x5f5c8891@@@Z 000000018002a46c f   libucrt:argv_wildcards.obj
 0001:000295f4       ??$expand_argument_wildcards@D@@YAHQEAD0AEAV?$argument_list@D@?A0x5f5c8891@@@Z 000000018002a5f4 f   libucrt:argv_wildcards.obj
 0001:00029b40       ??$?RV<lambda_efdfa57d1f175319df784efa44bb7b81>@@AEAV<lambda_5f0a4c1567f8adc6734073e5d1e1b35c>@@V<lambda_2e8a7d3640ea6ccb4c2413664c2db6fd>@@@?$__crt_seh_guarded_call@X@@QEAAX$$QEAV<lambda_efdfa57d1f175319df784efa44bb7b81>@@AEAV<lambda_5f0a4c1567f8adc6734073e5d1e1b35c>@@$$QEAV<lambda_2e8a7d3640ea6ccb4c2413664c2db6fd>@@@Z 000000018002ab40 f   libucrt:mbctype.obj
 0001:00029cfc       ?getSystemCP@@YAHH@Z       000000018002acfc f   libucrt:mbctype.obj
 0001:00029d7c       ?setSBCS@@YAXPEAU__crt_multibyte_data@@@Z 000000018002ad7c f   libucrt:mbctype.obj
 0001:00029e0c       ?setSBUpLow@@YAXPEAU__crt_multibyte_data@@@Z 000000018002ae0c f   libucrt:mbctype.obj
 0001:00029ff0       ?setmbcp_internal@@YAHH_NQEAU__acrt_ptd@@QEAPEAU__crt_multibyte_data@@@Z 000000018002aff0 f   libucrt:mbctype.obj
 0001:0002a1b4       ?update_thread_multibyte_data_internal@@YAPEAU__crt_multibyte_data@@QEAU__acrt_ptd@@QEAPEAU1@@Z 000000018002b1b4 f   libucrt:mbctype.obj
 0001:0002a5a4       ?x_ismbbtype_l@@YAHPEAU__crt_locale_pointers@@IHH@Z 000000018002b5a4 f   libucrt:ismbbyte.obj
 0001:0002a8e8       ?try_get_function@@YAPEAXW4function_id@?A0x391cf84c@@QEBDQEBW4module_id@2@2@Z 000000018002b8e8 f   libucrt:winapi_thunks.obj
 0001:0002aea8       ?initialize_inherited_file_handles_nolock@@YAXXZ 000000018002bea8 f   libucrt:ioinit.obj
 0001:0002af98       ?initialize_stdio_handles_nolock@@YAXXZ 000000018002bf98 f   libucrt:ioinit.obj
 0001:0002b1dc       ??$?RV<lambda_450d765d439847d4c735a33c368b5fc0>@@AEAV<lambda_44731a7d0e6d81c3e6aa82d741081786>@@V<lambda_601a2a7da3b7a96e9554ac7215c4b07c>@@@?$__crt_seh_guarded_call@P6AXH@Z@@QEAAP6AXH@Z$$QEAV<lambda_450d765d439847d4c735a33c368b5fc0>@@AEAV<lambda_44731a7d0e6d81c3e6aa82d741081786>@@$$QEAV<lambda_601a2a7da3b7a96e9554ac7215c4b07c>@@@Z 000000018002c1dc f   libucrt:signal.obj
 0001:0002b538       ??$?RV<lambda_842d9ff0dc9ef11c61343bbaebe7f885>@@AEAV<lambda_c5860995281e5c4ce005b3de8f5874ee>@@V<lambda_d90129c13df834fdcbf8d2b88dafcf2d>@@@?$__crt_seh_guarded_call@X@@QEAAX$$QEAV<lambda_842d9ff0dc9ef11c61343bbaebe7f885>@@AEAV<lambda_c5860995281e5c4ce005b3de8f5874ee>@@$$QEAV<lambda_d90129c13df834fdcbf8d2b88dafcf2d>@@@Z 000000018002c538 f   libucrt:fflush.obj
 0001:0002b5d4       ??$?RV<lambda_886d6c58226a84441f68b9f2b8217b83>@@AEAV<lambda_ab61a845afdef5b7c387490eaf3616ee>@@V<lambda_f7f22ab5edc0698d5f6905b0d3f44752>@@@?$__crt_seh_guarded_call@X@@QEAAX$$QEAV<lambda_886d6c58226a84441f68b9f2b8217b83>@@AEAV<lambda_ab61a845afdef5b7c387490eaf3616ee>@@$$QEAV<lambda_f7f22ab5edc0698d5f6905b0d3f44752>@@@Z 000000018002c5d4 f   libucrt:fflush.obj
 0001:0002b6b4       ?common_flush_all@@YAH_N@Z 000000018002c6b4 f   libucrt:fflush.obj
 0001:0002bfac       ?__acrt_LCMapStringA_stat@@YAHPEAU__crt_locale_pointers@@PEB_WKPEBDHPEADHHH@Z 000000018002cfac f   libucrt:lcmapstringa.obj
 0001:0002c4d4       ?free_crt_array_internal@@YAXQEAPEBX_K@Z 000000018002d4d4 f   libucrt:inittime.obj
 0001:0002cc64       fallbackMethod             000000018002dc64 f   libucrt:strpbrk.obj
 0001:0002d034       $LN78                      000000018002e034     libucrt:strpbrk.obj
 0001:0002d070       $LN77                      000000018002e070     libucrt:strpbrk.obj
 0001:0002d0b0       $LN76                      000000018002e0b0     libucrt:strpbrk.obj
 0001:0002d18c       ?initialize_multibyte@@YAHXZ 000000018002e18c f   libucrt:multibyte_initializer.obj
 0001:0002d25c       ?GetTableIndexFromLocaleName@@YAHPEB_W@Z 000000018002e25c f   libucrt:lcidtoname_downlevel.obj
 0001:0002d69c       ??$?RV<lambda_a37b2b86f63e897a80ea819b0eb08c01>@@AEAV<lambda_38ce7e780aa69e748d6df282ebc68efe>@@V<lambda_99fb1378e971ab6e7edea83e3a7a83a2>@@@?$__crt_seh_guarded_call@H@@QEAAH$$QEAV<lambda_a37b2b86f63e897a80ea819b0eb08c01>@@AEAV<lambda_38ce7e780aa69e748d6df282ebc68efe>@@$$QEAV<lambda_99fb1378e971ab6e7edea83e3a7a83a2>@@@Z 000000018002e69c f   libucrt:commit.obj
 0001:0002d7bc       ?write_double_translated_ansi_nolock@@YA?AUwrite_result@?A0x17268360@@HQEBDI@Z 000000018002e7bc f   libucrt:write.obj
 0001:0002dc98       ?write_text_ansi_nolock@@YA?AUwrite_result@?A0x17268360@@HQEBDI@Z 000000018002ec98 f   libucrt:write.obj
 0001:0002dd9c       ?write_text_utf16le_nolock@@YA?AUwrite_result@?A0x17268360@@HQEBDI@Z 000000018002ed9c f   libucrt:write.obj
 0001:0002deb8       ?write_text_utf8_nolock@@YA?AUwrite_result@?A0x17268360@@HQEBDI@Z 000000018002eeb8 f   libucrt:write.obj
 0001:0002e718       ??$common_lseek_nolock@_J@@YA_JH_JH@Z 000000018002f718 f   libucrt:lseek.obj
 0001:0002eac0       $$000000                   000000018002fac0     libucrt:log10.obj
 0001:0002f19c       ??$?RV<lambda_751a882b2c74d4b022dec766aa51a29a>@@AEAV<lambda_628dfdc04ba53c8bfc02c9951375f3f5>@@V<lambda_f6c7be5f7998530c34de24c7437d6b54>@@@?$__crt_seh_guarded_call@H@@QEAAH$$QEAV<lambda_751a882b2c74d4b022dec766aa51a29a>@@AEAV<lambda_628dfdc04ba53c8bfc02c9951375f3f5>@@$$QEAV<lambda_f6c7be5f7998530c34de24c7437d6b54>@@@Z 000000018003019c f   libucrt:close.obj
 0001:0002f390       _call_matherr              0000000180030390 f   libucrt:libm_error.obj
 0001:0002f3f8       _exception_enabled         00000001800303f8 f   libucrt:libm_error.obj
 0001:0002f670       _log_special_common        0000000180030670 f   libucrt:log_special.obj
 0001:0002f710       $$000000                   0000000180030710     libucrt:fpsr.obj
 0001:0002fc80       $$000000                   0000000180030c80     LIBCMT:chkstk.obj
 0001:0002fcf0       $$000000                   0000000180030cf0     libvcruntime:memcmp.obj
 0001:0002fdd0       $$000000                   0000000180030dd0     LIBCMT:guard_dispatch.obj
 0001:0002fdf0       ?dtor$0@?0??_Makestr@_System_error@std@@CA?AV?$basic_string@DU?$char_traits@D@std@@V?$allocator@D@2@@2@Verror_code@2@V32@@Z@4HA 0000000180030df0 f   VError.obj
 0001:0002fe00       ?dtor$1@?0??_Makestr@_System_error@std@@CA?AV?$basic_string@DU?$char_traits@D@std@@V?$allocator@D@2@@2@Verror_code@2@V32@@Z@4HA 0000000180030e00 f   VError.obj
 0001:0002fe10       ?dtor$1@?0???0failure@ios_base@std@@QEAA@PEBDAEBVerror_code@2@@Z@4HA 0000000180030e10 f   VError.obj
 0001:0002fe20       ?dtor$0@?0???0VError@vips@@QEAA@XZ@4HA 0000000180030e20 f   VError.obj
 0001:0002fe20       ?dtor$0@?0???0VError@vips@@QEAA@AEBV01@@Z@4HA 0000000180030e20 f   VError.obj
 0001:0002fe20       ?dtor$0@?0???0VError@vips@@QEAA@AEBV?$basic_string@DU?$char_traits@D@std@@V?$allocator@D@2@@std@@@Z@4HA 0000000180030e20 f   VError.obj
 0001:0002fe30       ?dtor$1@?0???0VOption@vips@@QEAA@AEBV01@@Z@4HA 0000000180030e30 f   VError.obj
 0001:0002fe40       ?dtor$4@?0??bandsplit@VImage@vips@@QEBA?AV?$vector@VVImage@vips@@V?$allocator@VVImage@vips@@@std@@@std@@PEAVVOption@2@@Z@4HA 0000000180030e40 f   VImage.obj
 0001:0002fe40       ?dtor$0@?0??option@VImage@vips@@SAPEAVVOption@2@XZ@4HA 0000000180030e40 f   VError.obj
 0001:0002fe60       ?dtor$0@?0??new_from_image@VImage@vips@@QEBA?AV12@V?$vector@NV?$allocator@N@std@@@std@@@Z@4HA 0000000180030e60 f   VError.obj
 0001:0002fe70       ?dtor$0@?0??linear@VImage@vips@@QEBA?AV12@NNPEAVVOption@2@@Z@4HA 0000000180030e70 f   VError.obj
 0001:0002fe70       ?dtor$0@?0??ifthenelse@VImage@vips@@QEBA?AV12@NNPEAVVOption@2@@Z@4HA 0000000180030e70 f   VError.obj
 0001:0002fe80       ?dtor$0@?0??bandjoin_const@VImage@vips@@QEBA?AV12@V?$vector@NV?$allocator@N@std@@@std@@PEAVVOption@2@@Z@4HA 0000000180030e80 f   VImage.obj
 0001:0002fe80       ?dtor$1@?0??ifthenelse@VImage@vips@@QEBA?AV12@V?$vector@NV?$allocator@N@std@@@std@@V12@PEAVVOption@2@@Z@4HA 0000000180030e80 f   VError.obj
 0001:0002fe80       ?dtor$0@?0???Gvips@@YA?AVVImage@0@V10@V?$vector@NV?$allocator@N@std@@@std@@@Z@4HA 0000000180030e80 f   VImage.obj
 0001:0002fe80       ?dtor$0@?0??remainder_const@VImage@vips@@QEBA?AV12@V?$vector@NV?$allocator@N@std@@@std@@PEAVVOption@2@@Z@4HA 0000000180030e80 f   VImage.obj
 0001:0002fe80       ?dtor$0@?0??linear@VImage@vips@@QEBA?AV12@V?$vector@NV?$allocator@N@std@@@std@@NPEAVVOption@2@@Z@4HA 0000000180030e80 f   VError.obj
 0001:0002fe80       ?dtor$0@?0??affine@VImage@vips@@QEBA?AV12@V?$vector@NV?$allocator@N@std@@@std@@PEAVVOption@2@@Z@4HA 0000000180030e80 f   VImage.obj
 0001:0002fe80       ?dtor$0@?0???Kvips@@YA?AVVImage@0@V10@V?$vector@NV?$allocator@N@std@@@std@@@Z@4HA 0000000180030e80 f   VImage.obj
 0001:0002fe90       ?dtor$1@?0??draw_line@VImage@vips@@QEBAXV?$vector@NV?$allocator@N@std@@@std@@HHHHPEAVVOption@2@@Z@4HA 0000000180030e90 f   VImage.obj
 0001:0002fe90       ?dtor$4@?0???Yvips@@YAAEAVVImage@0@AEAV10@N@Z@4HA 0000000180030e90 f   VImage.obj
 0001:0002fe90       ?dtor$1@?0??draw_circle@VImage@vips@@QEBAXV?$vector@NV?$allocator@N@std@@@std@@HHHPEAVVOption@2@@Z@4HA 0000000180030e90 f   VImage.obj
 0001:0002fe90       ?dtor$2@?0???Kvips@@YA?AVVImage@0@V?$vector@NV?$allocator@N@std@@@std@@V10@@Z@4HA 0000000180030e90 f   VImage.obj
 0001:0002fe90       ?dtor$4@?0???Xvips@@YAAEAVVImage@0@AEAV10@N@Z@4HA 0000000180030e90 f   VImage.obj
 0001:0002fe90       ?dtor$1@?0??linear@VImage@vips@@QEBA?AV12@V?$vector@NV?$allocator@N@std@@@std@@NPEAVVOption@2@@Z@4HA 0000000180030e90 f   VError.obj
 0001:0002fe90       ?dtor$1@?0??linear@VImage@vips@@QEBA?AV12@NV?$vector@NV?$allocator@N@std@@@std@@PEAVVOption@2@@Z@4HA 0000000180030e90 f   VError.obj
 0001:0002fe90       ?dtor$1@?0??draw_rect@VImage@vips@@QEBAXV?$vector@NV?$allocator@N@std@@@std@@HHHHPEAVVOption@2@@Z@4HA 0000000180030e90 f   VImage.obj
 0001:0002fe90       ?dtor$1@?0??draw_flood@VImage@vips@@QEBAXV?$vector@NV?$allocator@N@std@@@std@@HHPEAVVOption@2@@Z@4HA 0000000180030e90 f   VImage.obj
 0001:0002fea0       ?dtor$0@?0??linear@VImage@vips@@QEBA?AV12@NV?$vector@NV?$allocator@N@std@@@std@@PEAVVOption@2@@Z@4HA 0000000180030ea0 f   VError.obj
 0001:0002fea0       ?dtor$4@?0???_0vips@@YAAEAVVImage@0@AEAV10@N@Z@4HA 0000000180030ea0 f   VImage.obj
 0001:0002feb0       ?dtor$0@?0???Ivips@@YA?AVVImage@0@V10@V?$vector@NV?$allocator@N@std@@@std@@@Z@4HA 0000000180030eb0 f   VImage.obj
 0001:0002feb0       ?dtor$0@?0???Hvips@@YA?AVVImage@0@V10@V?$vector@NV?$allocator@N@std@@@std@@@Z@4HA 0000000180030eb0 f   VImage.obj
 0001:0002feb0       ?dtor$0@?0???Mvips@@YA?AVVImage@0@V10@V?$vector@NV?$allocator@N@std@@@std@@@Z@4HA 0000000180030eb0 f   VImage.obj
 0001:0002feb0       ?dtor$0@?0??bandjoin@VImage@vips@@QEBA?AV12@V?$vector@NV?$allocator@N@std@@@std@@PEAVVOption@2@@Z@4HA 0000000180030eb0 f   VError.obj
 0001:0002feb0       ?dtor$0@?0???Nvips@@YA?AVVImage@0@V10@V?$vector@NV?$allocator@N@std@@@std@@@Z@4HA 0000000180030eb0 f   VImage.obj
 0001:0002feb0       ?dtor$0@?0???Ovips@@YA?AVVImage@0@V10@V?$vector@NV?$allocator@N@std@@@std@@@Z@4HA 0000000180030eb0 f   VImage.obj
 0001:0002feb0       ?dtor$0@?0???Tvips@@YA?AVVImage@0@V10@V?$vector@NV?$allocator@N@std@@@std@@@Z@4HA 0000000180030eb0 f   VImage.obj
 0001:0002feb0       ?dtor$0@?0???Uvips@@YA?AVVImage@0@V10@V?$vector@NV?$allocator@N@std@@@std@@@Z@4HA 0000000180030eb0 f   VImage.obj
 0001:0002feb0       ?dtor$0@?0???Dvips@@YA?AVVImage@0@V10@V?$vector@NV?$allocator@N@std@@@std@@@Z@4HA 0000000180030eb0 f   VImage.obj
 0001:0002feb0       ?dtor$0@?0???Lvips@@YA?AVVImage@0@V10@V?$vector@NV?$allocator@N@std@@@std@@@Z@4HA 0000000180030eb0 f   VImage.obj
 0001:0002feb0       ?dtor$0@?0???9vips@@YA?AVVImage@0@V10@V?$vector@NV?$allocator@N@std@@@std@@@Z@4HA 0000000180030eb0 f   VImage.obj
 0001:0002feb0       ?dtor$0@?0???5vips@@YA?AVVImage@0@V10@V?$vector@NV?$allocator@N@std@@@std@@@Z@4HA 0000000180030eb0 f   VImage.obj
 0001:0002feb0       ?dtor$0@?0???Pvips@@YA?AVVImage@0@V10@V?$vector@NV?$allocator@N@std@@@std@@@Z@4HA 0000000180030eb0 f   VImage.obj
 0001:0002feb0       ?dtor$0@?0???6vips@@YA?AVVImage@0@V10@V?$vector@NV?$allocator@N@std@@@std@@@Z@4HA 0000000180030eb0 f   VImage.obj
 0001:0002feb0       ?dtor$0@?0???8vips@@YA?AVVImage@0@V10@V?$vector@NV?$allocator@N@std@@@std@@@Z@4HA 0000000180030eb0 f   VImage.obj
 0001:0002fec0       ?dtor$0@?0???8vips@@YA?AVVImage@0@V10@0@Z@4HA 0000000180030ec0 f   VImage.obj
 0001:0002fec0       ?dtor$0@?0???8vips@@YA?AVVImage@0@NV10@@Z@4HA 0000000180030ec0 f   VImage.obj
 0001:0002fec0       ?dtor$0@?0???6vips@@YA?AVVImage@0@V10@0@Z@4HA 0000000180030ec0 f   VImage.obj
 0001:0002fec0       ?dtor$0@?0???9vips@@YA?AVVImage@0@NV10@@Z@4HA 0000000180030ec0 f   VImage.obj
 0001:0002fec0       ?dtor$0@?0???9vips@@YA?AVVImage@0@V10@0@Z@4HA 0000000180030ec0 f   VImage.obj
 0001:0002fec0       ?dtor$0@?0???5vips@@YA?AVVImage@0@V10@0@Z@4HA 0000000180030ec0 f   VImage.obj
 0001:0002fec0       ?dtor$0@?0???Ovips@@YA?AVVImage@0@V10@0@Z@4HA 0000000180030ec0 f   VImage.obj
 0001:0002fec0       ?dtor$0@?0???Dvips@@YA?AVVImage@0@V10@0@Z@4HA 0000000180030ec0 f   VImage.obj
 0001:0002fec0       ?dtor$0@?0??pow@VImage@vips@@QEBA?AV12@V12@PEAVVOption@2@@Z@4HA 0000000180030ec0 f   VError.obj
 0001:0002fec0       ?dtor$0@?0???Uvips@@YA?AVVImage@0@V10@0@Z@4HA 0000000180030ec0 f   VImage.obj
 0001:0002fec0       ?dtor$0@?0???Gvips@@YA?AVVImage@0@V10@0@Z@4HA 0000000180030ec0 f   VImage.obj
 0001:0002fec0       ?dtor$0@?0???Uvips@@YA?AVVImage@0@NV10@@Z@4HA 0000000180030ec0 f   VImage.obj
 0001:0002fec0       ?dtor$0@?0???Ovips@@YA?AVVImage@0@NV10@@Z@4HA 0000000180030ec0 f   VImage.obj
 0001:0002fec0       ?dtor$0@?0???Hvips@@YA?AVVImage@0@V10@0@Z@4HA 0000000180030ec0 f   VImage.obj
 0001:0002fec0       ?dtor$0@?0???Pvips@@YA?AVVImage@0@NV10@@Z@4HA 0000000180030ec0 f   VImage.obj
 0001:0002fec0       ?dtor$0@?0??dilate@VImage@vips@@QEBA?AV12@V12@PEAVVOption@2@@Z@4HA 0000000180030ec0 f   VError.obj
 0001:0002fec0       ?dtor$0@?0???Ivips@@YA?AVVImage@0@NV10@@Z@4HA 0000000180030ec0 f   VImage.obj
 0001:0002fec0       ?dtor$0@?0???Ivips@@YA?AVVImage@0@V10@0@Z@4HA 0000000180030ec0 f   VImage.obj
 0001:0002fec0       ?dtor$0@?0??erode@VImage@vips@@QEBA?AV12@V12@PEAVVOption@2@@Z@4HA 0000000180030ec0 f   VError.obj
 0001:0002fec0       ?dtor$0@?0???Tvips@@YA?AVVImage@0@V10@0@Z@4HA 0000000180030ec0 f   VImage.obj
 0001:0002fec0       ?dtor$0@?0???Tvips@@YA?AVVImage@0@NV10@@Z@4HA 0000000180030ec0 f   VImage.obj
 0001:0002fec0       ?dtor$0@?0???Kvips@@YA?AVVImage@0@V10@0@Z@4HA 0000000180030ec0 f   VImage.obj
 0001:0002fec0       ?dtor$0@?0??ifthenelse@VImage@vips@@QEBA?AV12@V12@NPEAVVOption@2@@Z@4HA 0000000180030ec0 f   VError.obj
 0001:0002fec0       ?dtor$0@?0???Lvips@@YA?AVVImage@0@V10@0@Z@4HA 0000000180030ec0 f   VImage.obj
 0001:0002fec0       ?dtor$0@?0???Pvips@@YA?AVVImage@0@V10@0@Z@4HA 0000000180030ec0 f   VImage.obj
 0001:0002fec0       ?dtor$0@?0???Mvips@@YA?AVVImage@0@NV10@@Z@4HA 0000000180030ec0 f   VImage.obj
 0001:0002fec0       ?dtor$0@?0???Mvips@@YA?AVVImage@0@V10@0@Z@4HA 0000000180030ec0 f   VImage.obj
 0001:0002fec0       ?dtor$0@?0???Nvips@@YA?AVVImage@0@V10@0@Z@4HA 0000000180030ec0 f   VImage.obj
 0001:0002fec0       ?dtor$0@?0???Nvips@@YA?AVVImage@0@NV10@@Z@4HA 0000000180030ec0 f   VImage.obj
 0001:0002fec0       ?dtor$0@?0??wop@VImage@vips@@QEBA?AV12@V12@PEAVVOption@2@@Z@4HA 0000000180030ec0 f   VError.obj
 0001:0002fed0       ?dtor$0@?0??wop@VImage@vips@@QEBA?AV12@V?$vector@NV?$allocator@N@std@@@std@@PEAVVOption@2@@Z@4HA 0000000180030ed0 f   VError.obj
 0001:0002fed0       ?dtor$0@?0??pow@VImage@vips@@QEBA?AV12@V?$vector@NV?$allocator@N@std@@@std@@PEAVVOption@2@@Z@4HA 0000000180030ed0 f   VError.obj
 0001:0002fee0       ?dtor$0@?0??ifthenelse@VImage@vips@@QEBA?AV12@V12@0PEAVVOption@2@@Z@4HA 0000000180030ee0 f   VImage.obj
 0001:0002fee0       ?dtor$2@?0???Xvips@@YAAEAVVImage@0@AEAV10@N@Z@4HA 0000000180030ee0 f   VImage.obj
 0001:0002fee0       ?dtor$0@?0??ifthenelse@VImage@vips@@QEBA?AV12@V?$vector@NV?$allocator@N@std@@@std@@V12@PEAVVOption@2@@Z@4HA 0000000180030ee0 f   VError.obj
 0001:0002fee0       ?dtor$2@?0???Yvips@@YAAEAVVImage@0@AEAV10@N@Z@4HA 0000000180030ee0 f   VImage.obj
 0001:0002fef0       ?dtor$2@?0??morph@VImage@vips@@QEBA?AV12@V12@W4VipsOperationMorphology@@PEAVVOption@2@@Z@4HA 0000000180030ef0 f   VImage.obj
 0001:0002fef0       ?dtor$2@?0??mosaic1@VImage@vips@@QEBA?AV12@V12@W4VipsDirection@@HHHHHHHHPEAVVOption@2@@Z@4HA 0000000180030ef0 f   VImage.obj
 0001:0002fef0       ?dtor$2@?0??boolean@VImage@vips@@QEBA?AV12@V12@W4VipsOperationBoolean@@PEAVVOption@2@@Z@4HA 0000000180030ef0 f   VImage.obj
 0001:0002fef0       ?dtor$2@?0??complex2@VImage@vips@@QEBA?AV12@V12@W4VipsOperationComplex2@@PEAVVOption@2@@Z@4HA 0000000180030ef0 f   VImage.obj
 0001:0002fef0       ?dtor$2@?0??merge@VImage@vips@@QEBA?AV12@V12@W4VipsDirection@@HHPEAVVOption@2@@Z@4HA 0000000180030ef0 f   VImage.obj
 0001:0002fef0       ?dtor$0@?0??write_to_target@VImage@vips@@QEBAXPEBDVVTarget@2@PEAVVOption@2@@Z@4HA 0000000180030ef0 f   VImage.obj
 0001:0002fef0       ?dtor$2@?0??relational@VImage@vips@@QEBA?AV12@V12@W4VipsOperationRelational@@PEAVVOption@2@@Z@4HA 0000000180030ef0 f   VImage.obj
 0001:0002fef0       ?dtor$2@?0??ifthenelse@VImage@vips@@QEBA?AV12@V?$vector@NV?$allocator@N@std@@@std@@V12@PEAVVOption@2@@Z@4HA 0000000180030ef0 f   VError.obj
 0001:0002fef0       ?dtor$2@?0??math2@VImage@vips@@QEBA?AV12@V12@W4VipsOperationMath2@@PEAVVOption@2@@Z@4HA 0000000180030ef0 f   VImage.obj
 0001:0002fef0       ?dtor$3@?0??ifthenelse@VImage@vips@@QEBA?AV12@V?$vector@NV?$allocator@N@std@@@std@@0PEAVVOption@2@@Z@4HA 0000000180030ef0 f   VError.obj
 0001:0002fef0       ?dtor$2@?0??mosaic@VImage@vips@@QEBA?AV12@V12@W4VipsDirection@@HHHHPEAVVOption@2@@Z@4HA 0000000180030ef0 f   VImage.obj
 0001:0002fef0       ?dtor$2@?0??composite2@VImage@vips@@QEBA?AV12@V12@W4VipsBlendMode@@PEAVVOption@2@@Z@4HA 0000000180030ef0 f   VImage.obj
 0001:0002fef0       ?dtor$2@?0??match@VImage@vips@@QEBA?AV12@V12@HHHHHHHHPEAVVOption@2@@Z@4HA 0000000180030ef0 f   VImage.obj
 0001:0002fef0       ?dtor$2@?0??join@VImage@vips@@QEBA?AV12@V12@W4VipsDirection@@PEAVVOption@2@@Z@4HA 0000000180030ef0 f   VImage.obj
 0001:0002fef0       ?dtor$2@?0??insert@VImage@vips@@QEBA?AV12@V12@HHPEAVVOption@2@@Z@4HA 0000000180030ef0 f   VImage.obj
 0001:0002ff00       ?dtor$0@?0??draw_circle@VImage@vips@@QEBAXV?$vector@NV?$allocator@N@std@@@std@@HHHPEAVVOption@2@@Z@4HA 0000000180030f00 f   VImage.obj
 0001:0002ff00       ?dtor$0@?0??ifthenelse@VImage@vips@@QEBA?AV12@V12@V?$vector@NV?$allocator@N@std@@@std@@PEAVVOption@2@@Z@4HA 0000000180030f00 f   VError.obj
 0001:0002ff00       ?dtor$0@?0??draw_flood@VImage@vips@@QEBAXV?$vector@NV?$allocator@N@std@@@std@@HHPEAVVOption@2@@Z@4HA 0000000180030f00 f   VImage.obj
 0001:0002ff00       ?dtor$0@?0??draw_rect@VImage@vips@@QEBAXV?$vector@NV?$allocator@N@std@@@std@@HHHHPEAVVOption@2@@Z@4HA 0000000180030f00 f   VImage.obj
 0001:0002ff00       ?dtor$0@?0??draw_line@VImage@vips@@QEBAXV?$vector@NV?$allocator@N@std@@@std@@HHHHPEAVVOption@2@@Z@4HA 0000000180030f00 f   VImage.obj
 0001:0002ff10       ?dtor$1@?0??ifthenelse@VImage@vips@@QEBA?AV12@V12@V?$vector@NV?$allocator@N@std@@@std@@PEAVVOption@2@@Z@4HA 0000000180030f10 f   VError.obj
 0001:0002ff20       ?dtor$0@?0??ifthenelse@VImage@vips@@QEBA?AV12@V?$vector@NV?$allocator@N@std@@@std@@0PEAVVOption@2@@Z@4HA 0000000180030f20 f   VError.obj
 0001:0002ff30       ?dtor$1@?0??ifthenelse@VImage@vips@@QEBA?AV12@V?$vector@NV?$allocator@N@std@@@std@@0PEAVVOption@2@@Z@4HA 0000000180030f30 f   VError.obj
 0001:0002ff40       ?dtor$2@?0???_2vips@@YAAEAVVImage@0@AEAV10@N@Z@4HA 0000000180030f40 f   VImage.obj
 0001:0002ff40       ?dtor$2@?0???_6vips@@YAAEAVVImage@0@AEAV10@N@Z@4HA 0000000180030f40 f   VImage.obj
 0001:0002ff40       ?dtor$2@?0???_3vips@@YAAEAVVImage@0@AEAV10@N@Z@4HA 0000000180030f40 f   VImage.obj
 0001:0002ff40       ?dtor$2@?0???_4vips@@YAAEAVVImage@0@AEAV10@N@Z@4HA 0000000180030f40 f   VImage.obj
 0001:0002ff40       ?dtor$2@?0???_5vips@@YAAEAVVImage@0@AEAV10@N@Z@4HA 0000000180030f40 f   VImage.obj
 0001:0002ff40       ?dtor$2@?0???_1vips@@YAAEAVVImage@0@AEAV10@N@Z@4HA 0000000180030f40 f   VImage.obj
 0001:0002ff40       ?dtor$0@?0??ifthenelse@VImage@vips@@QEBA?AV12@NV12@PEAVVOption@2@@Z@4HA 0000000180030f40 f   VError.obj
 0001:0002ff50       ?dtor$1@?0??ifthenelse@VImage@vips@@QEBA?AV12@NV12@PEAVVOption@2@@Z@4HA 0000000180030f50 f   VError.obj
 0001:0002ff60       ?dtor$0@?0???$_Insert_string@DU?$char_traits@D@std@@_K@std@@YAAEAV?$basic_ostream@DU?$char_traits@D@std@@@0@AEAV10@QEBD_K@Z@4HA 0000000180030f60 f   VError.obj
 0001:0002ff60       ?dtor$1@?0???0sentry@?$basic_ostream@DU?$char_traits@D@std@@@std@@QEAA@AEAV12@@Z@4HA 0000000180030f60 f   VError.obj
 0001:0002ff70       ?dtor$0@?0???0sentry@?$basic_ostream@DU?$char_traits@D@std@@@std@@QEAA@AEAV12@@Z@4HA 0000000180030f70 f   VError.obj
 0001:0002ff80       ?dtor$0@?0??setstate@?$basic_ios@DU?$char_traits@D@std@@@std@@QEAAXH_N@Z@4HA 0000000180030f80 f   VError.obj
 0001:0002ff90       ?dtor$0@?0??set@VOption@vips@@QEAAPEAV12@PEBDVVInterpolate@2@@Z@4HA 0000000180030f90 f   VInterpolate.obj
 0001:0002ff90       ?dtor$0@?0??set@VOption@vips@@QEAAPEAV12@PEBDVVTarget@2@@Z@4HA 0000000180030f90 f   VConnection.obj
 0001:0002ff90       ?dtor$0@?0??set@VOption@vips@@QEAAPEAV12@PEBDVVImage@2@@Z@4HA 0000000180030f90 f   VImage.obj
 0001:0002ff90       ?dtor$0@?0??set@VOption@vips@@QEAAPEAV12@PEBDVVSource@2@@Z@4HA 0000000180030f90 f   VConnection.obj
 0001:0002ff90       ?dtor$0@?0???Kvips@@YA?AVVImage@0@NV10@@Z@4HA 0000000180030f90 f   VImage.obj
 0001:0002ffa0       ?dtor$3@?0??draw_mask@VImage@vips@@QEBAXV?$vector@NV?$allocator@N@std@@@std@@V12@HHPEAVVOption@2@@Z@4HA 0000000180030fa0 f   VImage.obj
 0001:0002ffa0       ?dtor$0@?0??invert@vips@@YA?AV?$vector@NV?$allocator@N@std@@@std@@V23@@Z@4HA 0000000180030fa0 f   VImage.obj
 0001:0002ffa0       ?dtor$0@?0??negate@vips@@YA?AV?$vector@NV?$allocator@N@std@@@std@@V23@@Z@4HA 0000000180030fa0 f   VImage.obj
 0001:0002ffa0       ?dtor$4@?0??linear@VImage@vips@@QEBA?AV12@V?$vector@NV?$allocator@N@std@@@std@@0PEAVVOption@2@@Z@4HA 0000000180030fa0 f   VImage.obj
 0001:0002ffb0       ?dtor$0@?0??set@VOption@vips@@QEAAPEAV12@PEBDV?$vector@NV?$allocator@N@std@@@std@@@Z@4HA 0000000180030fb0 f   VImage.obj
 0001:0002ffc0       ?dtor$0@?0??set@VOption@vips@@QEAAPEAV12@PEBDV?$vector@HV?$allocator@H@std@@@std@@@Z@4HA 0000000180030fc0 f   VImage.obj
 0001:0002ffd0       ?dtor$0@?0??set@VOption@vips@@QEAAPEAV12@PEBDV?$vector@VVImage@vips@@V?$allocator@VVImage@vips@@@std@@@std@@@Z@4HA 0000000180030fd0 f   VImage.obj
 0001:0002ffe0       ?dtor$0@?0??new_from_file@VImage@vips@@SA?AV12@PEBDPEAVVOption@2@@Z@4HA 0000000180030fe0 f   VImage.obj
 0001:0002ffe0       ?dtor$0@?0??new_from_buffer@VImage@vips@@SA?AV12@PEBX_KPEBDPEAVVOption@2@@Z@4HA 0000000180030fe0 f   VImage.obj
 0001:00030010       ?dtor$3@?0??ifthenelse@VImage@vips@@QEBA?AV12@V12@0PEAVVOption@2@@Z@4HA 0000000180031010 f   VImage.obj
 0001:00030010       ?dtor$1@?0??write_to_target@VImage@vips@@QEBAXPEBDVVTarget@2@PEAVVOption@2@@Z@4HA 0000000180031010 f   VImage.obj
 0001:00030010       ?dtor$0@?0??new_from_source@VImage@vips@@SA?AV12@VVSource@2@PEBDPEAVVOption@2@@Z@4HA 0000000180031010 f   VImage.obj
 0001:00030020       ?dtor$1@?0??new_from_source@VImage@vips@@SA?AV12@VVSource@2@PEBDPEAVVOption@2@@Z@4HA 0000000180031020 f   VImage.obj
 0001:00030050       ?dtor$0@?0??write@VImage@vips@@QEBA?AV12@V12@@Z@4HA 0000000180031050 f   VImage.obj
 0001:00030060       ?dtor$0@?0??CMYK2XYZ@VImage@vips@@QEBA?AV12@PEAVVOption@2@@Z@4HA 0000000180031060 f   VImage.obj
 0001:00030060       ?dtor$0@?0??copy@VImage@vips@@QEBA?AV12@PEAVVOption@2@@Z@4HA 0000000180031060 f   VImage.obj
 0001:00030060       ?dtor$0@?0??HSV2sRGB@VImage@vips@@QEBA?AV12@PEAVVOption@2@@Z@4HA 0000000180031060 f   VImage.obj
 0001:00030060       ?dtor$0@?0??LCh2CMC@VImage@vips@@QEBA?AV12@PEAVVOption@2@@Z@4HA 0000000180031060 f   VImage.obj
 0001:00030060       ?dtor$0@?0??LCh2Lab@VImage@vips@@QEBA?AV12@PEAVVOption@2@@Z@4HA 0000000180031060 f   VImage.obj
 0001:00030060       ?dtor$0@?0??Lab2LCh@VImage@vips@@QEBA?AV12@PEAVVOption@2@@Z@4HA 0000000180031060 f   VImage.obj
 0001:00030060       ?dtor$0@?0??byteswap@VImage@vips@@QEBA?AV12@PEAVVOption@2@@Z@4HA 0000000180031060 f   VImage.obj
 0001:00030060       ?dtor$0@?0??buildlut@VImage@vips@@QEBA?AV12@PEAVVOption@2@@Z@4HA 0000000180031060 f   VImage.obj
 0001:00030060       ?dtor$0@?0??Lab2LabQ@VImage@vips@@QEBA?AV12@PEAVVOption@2@@Z@4HA 0000000180031060 f   VImage.obj
 0001:00030060       ?dtor$0@?0??bandunfold@VImage@vips@@QEBA?AV12@PEAVVOption@2@@Z@4HA 0000000180031060 f   VImage.obj
 0001:00030060       ?dtor$0@?0??falsecolour@VImage@vips@@QEBA?AV12@PEAVVOption@2@@Z@4HA 0000000180031060 f   VImage.obj
 0001:00030060       ?dtor$0@?0??Lab2LabS@VImage@vips@@QEBA?AV12@PEAVVOption@2@@Z@4HA 0000000180031060 f   VImage.obj
 0001:00030060       ?dtor$0@?0??fill_nearest@VImage@vips@@QEBA?AV12@PEAVVOption@2@@Z@4HA 0000000180031060 f   VImage.obj
 0001:00030060       ?dtor$0@?0??flatten@VImage@vips@@QEBA?AV12@PEAVVOption@2@@Z@4HA 0000000180031060 f   VImage.obj
 0001:00030060       ?dtor$0@?0??float2rad@VImage@vips@@QEBA?AV12@PEAVVOption@2@@Z@4HA 0000000180031060 f   VImage.obj
 0001:00030060       ?dtor$0@?0??Lab2XYZ@VImage@vips@@QEBA?AV12@PEAVVOption@2@@Z@4HA 0000000180031060 f   VImage.obj
 0001:00030060       ?dtor$0@?0??fwfft@VImage@vips@@QEBA?AV12@PEAVVOption@2@@Z@4HA 0000000180031060 f   VImage.obj
 0001:00030060       ?dtor$0@?0??gamma@VImage@vips@@QEBA?AV12@PEAVVOption@2@@Z@4HA 0000000180031060 f   VImage.obj
 0001:00030060       ?dtor$0@?0??globalbalance@VImage@vips@@QEBA?AV12@PEAVVOption@2@@Z@4HA 0000000180031060 f   VImage.obj
 0001:00030060       ?dtor$0@?0??hist_cum@VImage@vips@@QEBA?AV12@PEAVVOption@2@@Z@4HA 0000000180031060 f   VImage.obj
 0001:00030060       ?dtor$0@?0??CMC2LCh@VImage@vips@@QEBA?AV12@PEAVVOption@2@@Z@4HA 0000000180031060 f   VImage.obj
 0001:00030060       ?dtor$0@?0??hist_find@VImage@vips@@QEBA?AV12@PEAVVOption@2@@Z@4HA 0000000180031060 f   VImage.obj
 0001:00030060       ?dtor$0@?0??LabQ2Lab@VImage@vips@@QEBA?AV12@PEAVVOption@2@@Z@4HA 0000000180031060 f   VImage.obj
 0001:00030060       ?dtor$0@?0??hist_find_ndim@VImage@vips@@QEBA?AV12@PEAVVOption@2@@Z@4HA 0000000180031060 f   VImage.obj
 0001:00030060       ?dtor$0@?0??LabQ2LabS@VImage@vips@@QEBA?AV12@PEAVVOption@2@@Z@4HA 0000000180031060 f   VImage.obj
 0001:00030060       ?dtor$0@?0??hist_norm@VImage@vips@@QEBA?AV12@PEAVVOption@2@@Z@4HA 0000000180031060 f   VImage.obj
 0001:00030060       ?dtor$0@?0??hist_plot@VImage@vips@@QEBA?AV12@PEAVVOption@2@@Z@4HA 0000000180031060 f   VImage.obj
 0001:00030060       ?dtor$0@?0??hough_circle@VImage@vips@@QEBA?AV12@PEAVVOption@2@@Z@4HA 0000000180031060 f   VImage.obj
 0001:00030060       ?dtor$0@?0??hough_line@VImage@vips@@QEBA?AV12@PEAVVOption@2@@Z@4HA 0000000180031060 f   VImage.obj
 0001:00030060       ?dtor$0@?0??icc_export@VImage@vips@@QEBA?AV12@PEAVVOption@2@@Z@4HA 0000000180031060 f   VImage.obj
 0001:00030060       ?dtor$0@?0??icc_import@VImage@vips@@QEBA?AV12@PEAVVOption@2@@Z@4HA 0000000180031060 f   VImage.obj
 0001:00030060       ?dtor$0@?0??bandmean@VImage@vips@@QEBA?AV12@PEAVVOption@2@@Z@4HA 0000000180031060 f   VImage.obj
 0001:00030060       ?dtor$0@?0??LabQ2sRGB@VImage@vips@@QEBA?AV12@PEAVVOption@2@@Z@4HA 0000000180031060 f   VImage.obj
 0001:00030060       ?dtor$0@?0??invert@VImage@vips@@QEBA?AV12@PEAVVOption@2@@Z@4HA 0000000180031060 f   VImage.obj
 0001:00030060       ?dtor$0@?0??bandfold@VImage@vips@@QEBA?AV12@PEAVVOption@2@@Z@4HA 0000000180031060 f   VImage.obj
 0001:00030060       ?dtor$0@?0??invertlut@VImage@vips@@QEBA?AV12@PEAVVOption@2@@Z@4HA 0000000180031060 f   VImage.obj
 0001:00030060       ?dtor$0@?0??invfft@VImage@vips@@QEBA?AV12@PEAVVOption@2@@Z@4HA 0000000180031060 f   VImage.obj
 0001:00030060       ?dtor$0@?0??LabS2Lab@VImage@vips@@QEBA?AV12@PEAVVOption@2@@Z@4HA 0000000180031060 f   VImage.obj
 0001:00030060       ?dtor$0@?0??labelregions@VImage@vips@@QEBA?AV12@PEAVVOption@2@@Z@4HA 0000000180031060 f   VImage.obj
 0001:00030060       ?dtor$0@?0??linecache@VImage@vips@@QEBA?AV12@PEAVVOption@2@@Z@4HA 0000000180031060 f   VImage.obj
 0001:00030060       ?dtor$0@?0??LabS2LabQ@VImage@vips@@QEBA?AV12@PEAVVOption@2@@Z@4HA 0000000180031060 f   VImage.obj
 0001:00030060       ?dtor$0@?0??hist_equal@VImage@vips@@QEBA?AV12@PEAVVOption@2@@Z@4HA 0000000180031060 f   VImage.obj
 0001:00030060       ?dtor$0@?0??XYZ2CMYK@VImage@vips@@QEBA?AV12@PEAVVOption@2@@Z@4HA 0000000180031060 f   VImage.obj
 0001:00030060       ?dtor$0@?0??XYZ2Lab@VImage@vips@@QEBA?AV12@PEAVVOption@2@@Z@4HA 0000000180031060 f   VImage.obj
 0001:00030060       ?dtor$0@?0??XYZ2Yxy@VImage@vips@@QEBA?AV12@PEAVVOption@2@@Z@4HA 0000000180031060 f   VImage.obj
 0001:00030060       ?dtor$0@?0??XYZ2scRGB@VImage@vips@@QEBA?AV12@PEAVVOption@2@@Z@4HA 0000000180031060 f   VImage.obj
 0001:00030060       ?dtor$0@?0??Yxy2XYZ@VImage@vips@@QEBA?AV12@PEAVVOption@2@@Z@4HA 0000000180031060 f   VImage.obj
 0001:00030060       ?dtor$0@?0??rad2float@VImage@vips@@QEBA?AV12@PEAVVOption@2@@Z@4HA 0000000180031060 f   VImage.obj
 0001:00030060       ?dtor$0@?0??msb@VImage@vips@@QEBA?AV12@PEAVVOption@2@@Z@4HA 0000000180031060 f   VImage.obj
 0001:00030060       ?dtor$0@?0??wrap@VImage@vips@@QEBA?AV12@PEAVVOption@2@@Z@4HA 0000000180031060 f   VImage.obj
 0001:00030060       ?dtor$0@?0??autorot@VImage@vips@@QEBA?AV12@PEAVVOption@2@@Z@4HA 0000000180031060 f   VImage.obj
 0001:00030060       ?dtor$0@?0??unpremultiply@VImage@vips@@QEBA?AV12@PEAVVOption@2@@Z@4HA 0000000180031060 f   VImage.obj
 0001:00030060       ?dtor$0@?0??transpose3d@VImage@vips@@QEBA?AV12@PEAVVOption@2@@Z@4HA 0000000180031060 f   VImage.obj
 0001:00030060       ?dtor$0@?0??tilecache@VImage@vips@@QEBA?AV12@PEAVVOption@2@@Z@4HA 0000000180031060 f   VImage.obj
 0001:00030060       ?dtor$0@?0??stats@VImage@vips@@QEBA?AV12@PEAVVOption@2@@Z@4HA 0000000180031060 f   VImage.obj
 0001:00030060       ?dtor$0@?0??premultiply@VImage@vips@@QEBA?AV12@PEAVVOption@2@@Z@4HA 0000000180031060 f   VImage.obj
 0001:00030060       ?dtor$0@?0??spectrum@VImage@vips@@QEBA?AV12@PEAVVOption@2@@Z@4HA 0000000180031060 f   VImage.obj
 0001:00030060       ?dtor$0@?0??canny@VImage@vips@@QEBA?AV12@PEAVVOption@2@@Z@4HA 0000000180031060 f   VImage.obj
 0001:00030060       ?dtor$0@?0??sobel@VImage@vips@@QEBA?AV12@PEAVVOption@2@@Z@4HA 0000000180031060 f   VImage.obj
 0001:00030060       ?dtor$0@?0??similarity@VImage@vips@@QEBA?AV12@PEAVVOption@2@@Z@4HA 0000000180031060 f   VImage.obj
 0001:00030060       ?dtor$0@?0??sign@VImage@vips@@QEBA?AV12@PEAVVOption@2@@Z@4HA 0000000180031060 f   VImage.obj
 0001:00030060       ?dtor$0@?0??sharpen@VImage@vips@@QEBA?AV12@PEAVVOption@2@@Z@4HA 0000000180031060 f   VImage.obj
 0001:00030060       ?dtor$0@?0??rot45@VImage@vips@@QEBA?AV12@PEAVVOption@2@@Z@4HA 0000000180031060 f   VImage.obj
 0001:00030060       ?dtor$0@?0??sRGB2HSV@VImage@vips@@QEBA?AV12@PEAVVOption@2@@Z@4HA 0000000180031060 f   VImage.obj
 0001:00030060       ?dtor$0@?0??sRGB2scRGB@VImage@vips@@QEBA?AV12@PEAVVOption@2@@Z@4HA 0000000180031060 f   VImage.obj
 0001:00030060       ?dtor$0@?0??scRGB2BW@VImage@vips@@QEBA?AV12@PEAVVOption@2@@Z@4HA 0000000180031060 f   VImage.obj
 0001:00030060       ?dtor$0@?0??scRGB2XYZ@VImage@vips@@QEBA?AV12@PEAVVOption@2@@Z@4HA 0000000180031060 f   VImage.obj
 0001:00030060       ?dtor$0@?0??scRGB2sRGB@VImage@vips@@QEBA?AV12@PEAVVOption@2@@Z@4HA 0000000180031060 f   VImage.obj
 0001:00030060       ?dtor$0@?0??scale@VImage@vips@@QEBA?AV12@PEAVVOption@2@@Z@4HA 0000000180031060 f   VImage.obj
 0001:00030060       ?dtor$0@?0??sequential@VImage@vips@@QEBA?AV12@PEAVVOption@2@@Z@4HA 0000000180031060 f   VImage.obj
 0001:00030060       ?dtor$0@?0??cache@VImage@vips@@QEBA?AV12@PEAVVOption@2@@Z@4HA 0000000180031060 f   VImage.obj
 0001:00030060       ?dtor$0@?0??abs@VImage@vips@@QEBA?AV12@PEAVVOption@2@@Z@4HA 0000000180031060 f   VImage.obj
 0001:00030090       ?dtor$0@?0??complex2@VImage@vips@@QEBA?AV12@V12@W4VipsOperationComplex2@@PEAVVOption@2@@Z@4HA 0000000180031090 f   VImage.obj
 0001:00030090       ?dtor$0@?0??complexform@VImage@vips@@QEBA?AV12@V12@PEAVVOption@2@@Z@4HA 0000000180031090 f   VImage.obj
 0001:00030090       ?dtor$0@?0??add@VImage@vips@@QEBA?AV12@V12@PEAVVOption@2@@Z@4HA 0000000180031090 f   VImage.obj
 0001:00030090       ?dtor$0@?0??remainder@VImage@vips@@QEBA?AV12@V12@PEAVVOption@2@@Z@4HA 0000000180031090 f   VImage.obj
 0001:00030090       ?dtor$0@?0??relational@VImage@vips@@QEBA?AV12@V12@W4VipsOperationRelational@@PEAVVOption@2@@Z@4HA 0000000180031090 f   VImage.obj
 0001:00030090       ?dtor$0@?0??recomb@VImage@vips@@QEBA?AV12@V12@PEAVVOption@2@@Z@4HA 0000000180031090 f   VImage.obj
 0001:00030090       ?dtor$0@?0??spcor@VImage@vips@@QEBA?AV12@V12@PEAVVOption@2@@Z@4HA 0000000180031090 f   VImage.obj
 0001:00030090       ?dtor$0@?0??quadratic@VImage@vips@@QEBA?AV12@V12@PEAVVOption@2@@Z@4HA 0000000180031090 f   VImage.obj
 0001:00030090       ?dtor$0@?0??phasecor@VImage@vips@@QEBA?AV12@V12@PEAVVOption@2@@Z@4HA 0000000180031090 f   VImage.obj
 0001:00030090       ?dtor$0@?0??subtract@VImage@vips@@QEBA?AV12@V12@PEAVVOption@2@@Z@4HA 0000000180031090 f   VImage.obj
 0001:00030090       ?dtor$0@?0??conv@VImage@vips@@QEBA?AV12@V12@PEAVVOption@2@@Z@4HA 0000000180031090 f   VImage.obj
 0001:00030090       ?dtor$0@?0??conva@VImage@vips@@QEBA?AV12@V12@PEAVVOption@2@@Z@4HA 0000000180031090 f   VImage.obj
 0001:00030090       ?dtor$0@?0??convasep@VImage@vips@@QEBA?AV12@V12@PEAVVOption@2@@Z@4HA 0000000180031090 f   VImage.obj
 0001:00030090       ?dtor$0@?0??multiply@VImage@vips@@QEBA?AV12@V12@PEAVVOption@2@@Z@4HA 0000000180031090 f   VImage.obj
 0001:00030090       ?dtor$0@?0??mosaic@VImage@vips@@QEBA?AV12@V12@W4VipsDirection@@HHHHPEAVVOption@2@@Z@4HA 0000000180031090 f   VImage.obj
 0001:00030090       ?dtor$0@?0??mosaic1@VImage@vips@@QEBA?AV12@V12@W4VipsDirection@@HHHHHHHHPEAVVOption@2@@Z@4HA 0000000180031090 f   VImage.obj
 0001:00030090       ?dtor$0@?0??morph@VImage@vips@@QEBA?AV12@V12@W4VipsOperationMorphology@@PEAVVOption@2@@Z@4HA 0000000180031090 f   VImage.obj
 0001:00030090       ?dtor$0@?0??merge@VImage@vips@@QEBA?AV12@V12@W4VipsDirection@@HHPEAVVOption@2@@Z@4HA 0000000180031090 f   VImage.obj
 0001:00030090       ?dtor$0@?0??math2@VImage@vips@@QEBA?AV12@V12@W4VipsOperationMath2@@PEAVVOption@2@@Z@4HA 0000000180031090 f   VImage.obj
 0001:00030090       ?dtor$0@?0??match@VImage@vips@@QEBA?AV12@V12@HHHHHHHHPEAVVOption@2@@Z@4HA 0000000180031090 f   VImage.obj
 0001:00030090       ?dtor$0@?0??maplut@VImage@vips@@QEBA?AV12@V12@PEAVVOption@2@@Z@4HA 0000000180031090 f   VImage.obj
 0001:00030090       ?dtor$0@?0??compass@VImage@vips@@QEBA?AV12@V12@PEAVVOption@2@@Z@4HA 0000000180031090 f   VImage.obj
 0001:00030090       ?dtor$0@?0??mapim@VImage@vips@@QEBA?AV12@V12@PEAVVOption@2@@Z@4HA 0000000180031090 f   VImage.obj
 0001:00030090       ?dtor$0@?0??join@VImage@vips@@QEBA?AV12@V12@W4VipsDirection@@PEAVVOption@2@@Z@4HA 0000000180031090 f   VImage.obj
 0001:00030090       ?dtor$0@?0??insert@VImage@vips@@QEBA?AV12@V12@HHPEAVVOption@2@@Z@4HA 0000000180031090 f   VImage.obj
 0001:00030090       ?dtor$0@?0??hist_match@VImage@vips@@QEBA?AV12@V12@PEAVVOption@2@@Z@4HA 0000000180031090 f   VImage.obj
 0001:00030090       ?dtor$0@?0??hist_find_indexed@VImage@vips@@QEBA?AV12@V12@PEAVVOption@2@@Z@4HA 0000000180031090 f   VImage.obj
 0001:00030090       ?dtor$0@?0??freqmult@VImage@vips@@QEBA?AV12@V12@PEAVVOption@2@@Z@4HA 0000000180031090 f   VImage.obj
 0001:00030090       ?dtor$0@?0??fastcor@VImage@vips@@QEBA?AV12@V12@PEAVVOption@2@@Z@4HA 0000000180031090 f   VImage.obj
 0001:00030090       ?dtor$0@?0??boolean@VImage@vips@@QEBA?AV12@V12@W4VipsOperationBoolean@@PEAVVOption@2@@Z@4HA 0000000180031090 f   VImage.obj
 0001:00030090       ?dtor$0@?0??divide@VImage@vips@@QEBA?AV12@V12@PEAVVOption@2@@Z@4HA 0000000180031090 f   VImage.obj
 0001:00030090       ?dtor$0@?0??dECMC@VImage@vips@@QEBA?AV12@V12@PEAVVOption@2@@Z@4HA 0000000180031090 f   VImage.obj
 0001:00030090       ?dtor$0@?0??dE76@VImage@vips@@QEBA?AV12@V12@PEAVVOption@2@@Z@4HA 0000000180031090 f   VImage.obj
 0001:00030090       ?dtor$0@?0??dE00@VImage@vips@@QEBA?AV12@V12@PEAVVOption@2@@Z@4HA 0000000180031090 f   VImage.obj
 0001:00030090       ?dtor$0@?0??convsep@VImage@vips@@QEBA?AV12@V12@PEAVVOption@2@@Z@4HA 0000000180031090 f   VImage.obj
 0001:00030090       ?dtor$0@?0??convi@VImage@vips@@QEBA?AV12@V12@PEAVVOption@2@@Z@4HA 0000000180031090 f   VImage.obj
 0001:00030090       ?dtor$0@?0???Uvips@@YA?AVVImage@0@V?$vector@NV?$allocator@N@std@@@std@@V10@@Z@4HA 0000000180031090 f   VImage.obj
 0001:00030090       ?dtor$0@?0???Tvips@@YA?AVVImage@0@V?$vector@NV?$allocator@N@std@@@std@@V10@@Z@4HA 0000000180031090 f   VImage.obj
 0001:00030090       ?dtor$0@?0???Pvips@@YA?AVVImage@0@V?$vector@NV?$allocator@N@std@@@std@@V10@@Z@4HA 0000000180031090 f   VImage.obj
 0001:00030090       ?dtor$0@?0???Ovips@@YA?AVVImage@0@V?$vector@NV?$allocator@N@std@@@std@@V10@@Z@4HA 0000000180031090 f   VImage.obj
 0001:00030090       ?dtor$0@?0???Nvips@@YA?AVVImage@0@V?$vector@NV?$allocator@N@std@@@std@@V10@@Z@4HA 0000000180031090 f   VImage.obj
 0001:00030090       ?dtor$0@?0???Mvips@@YA?AVVImage@0@V?$vector@NV?$allocator@N@std@@@std@@V10@@Z@4HA 0000000180031090 f   VImage.obj
 0001:00030090       ?dtor$0@?0???Ivips@@YA?AVVImage@0@V?$vector@NV?$allocator@N@std@@@std@@V10@@Z@4HA 0000000180031090 f   VImage.obj
 0001:00030090       ?dtor$0@?0???Hvips@@YA?AVVImage@0@V?$vector@NV?$allocator@N@std@@@std@@V10@@Z@4HA 0000000180031090 f   VImage.obj
 0001:00030090       ?dtor$0@?0??convf@VImage@vips@@QEBA?AV12@V12@PEAVVOption@2@@Z@4HA 0000000180031090 f   VImage.obj
 0001:00030090       ?dtor$0@?0???Gvips@@YA?AVVImage@0@V?$vector@NV?$allocator@N@std@@@std@@V10@@Z@4HA 0000000180031090 f   VImage.obj
 0001:00030090       ?dtor$0@?0???Dvips@@YA?AVVImage@0@V?$vector@NV?$allocator@N@std@@@std@@V10@@Z@4HA 0000000180031090 f   VImage.obj
 0001:00030090       ?dtor$0@?0???9vips@@YA?AVVImage@0@V?$vector@NV?$allocator@N@std@@@std@@V10@@Z@4HA 0000000180031090 f   VImage.obj
 0001:00030090       ?dtor$0@?0???8vips@@YA?AVVImage@0@V?$vector@NV?$allocator@N@std@@@std@@V10@@Z@4HA 0000000180031090 f   VImage.obj
 0001:00030090       ?dtor$0@?0??composite2@VImage@vips@@QEBA?AV12@V12@W4VipsBlendMode@@PEAVVOption@2@@Z@4HA 0000000180031090 f   VImage.obj
 0001:000300a0       ?dtor$1@?0??add@VImage@vips@@QEBA?AV12@V12@PEAVVOption@2@@Z@4HA 00000001800310a0 f   VImage.obj
 0001:000300a0       ?dtor$1@?0??match@VImage@vips@@QEBA?AV12@V12@HHHHHHHHPEAVVOption@2@@Z@4HA 00000001800310a0 f   VImage.obj
 0001:000300a0       ?dtor$1@?0??math2@VImage@vips@@QEBA?AV12@V12@W4VipsOperationMath2@@PEAVVOption@2@@Z@4HA 00000001800310a0 f   VImage.obj
 0001:000300a0       ?dtor$1@?0??merge@VImage@vips@@QEBA?AV12@V12@W4VipsDirection@@HHPEAVVOption@2@@Z@4HA 00000001800310a0 f   VImage.obj
 0001:000300a0       ?dtor$1@?0??morph@VImage@vips@@QEBA?AV12@V12@W4VipsOperationMorphology@@PEAVVOption@2@@Z@4HA 00000001800310a0 f   VImage.obj
 0001:000300a0       ?dtor$1@?0??boolean@VImage@vips@@QEBA?AV12@V12@W4VipsOperationBoolean@@PEAVVOption@2@@Z@4HA 00000001800310a0 f   VImage.obj
 0001:000300a0       ?dtor$1@?0??mosaic1@VImage@vips@@QEBA?AV12@V12@W4VipsDirection@@HHHHHHHHPEAVVOption@2@@Z@4HA 00000001800310a0 f   VImage.obj
 0001:000300a0       ?dtor$1@?0??compass@VImage@vips@@QEBA?AV12@V12@PEAVVOption@2@@Z@4HA 00000001800310a0 f   VImage.obj
 0001:000300a0       ?dtor$1@?0??mosaic@VImage@vips@@QEBA?AV12@V12@W4VipsDirection@@HHHHPEAVVOption@2@@Z@4HA 00000001800310a0 f   VImage.obj
 0001:000300a0       ?dtor$1@?0??complex2@VImage@vips@@QEBA?AV12@V12@W4VipsOperationComplex2@@PEAVVOption@2@@Z@4HA 00000001800310a0 f   VImage.obj
 0001:000300a0       ?dtor$1@?0??complexform@VImage@vips@@QEBA?AV12@V12@PEAVVOption@2@@Z@4HA 00000001800310a0 f   VImage.obj
 0001:000300a0       ?dtor$1@?0??multiply@VImage@vips@@QEBA?AV12@V12@PEAVVOption@2@@Z@4HA 00000001800310a0 f   VImage.obj
 0001:000300a0       ?dtor$1@?0??phasecor@VImage@vips@@QEBA?AV12@V12@PEAVVOption@2@@Z@4HA 00000001800310a0 f   VImage.obj
 0001:000300a0       ?dtor$1@?0??mapim@VImage@vips@@QEBA?AV12@V12@PEAVVOption@2@@Z@4HA 00000001800310a0 f   VImage.obj
 0001:000300a0       ?dtor$1@?0??quadratic@VImage@vips@@QEBA?AV12@V12@PEAVVOption@2@@Z@4HA 00000001800310a0 f   VImage.obj
 0001:000300a0       ?dtor$1@?0??composite2@VImage@vips@@QEBA?AV12@V12@W4VipsBlendMode@@PEAVVOption@2@@Z@4HA 00000001800310a0 f   VImage.obj
 0001:000300a0       ?dtor$1@?0??join@VImage@vips@@QEBA?AV12@V12@W4VipsDirection@@PEAVVOption@2@@Z@4HA 00000001800310a0 f   VImage.obj
 0001:000300a0       ?dtor$1@?0??conv@VImage@vips@@QEBA?AV12@V12@PEAVVOption@2@@Z@4HA 00000001800310a0 f   VImage.obj
 0001:000300a0       ?dtor$1@?0??insert@VImage@vips@@QEBA?AV12@V12@HHPEAVVOption@2@@Z@4HA 00000001800310a0 f   VImage.obj
 0001:000300a0       ?dtor$1@?0??conva@VImage@vips@@QEBA?AV12@V12@PEAVVOption@2@@Z@4HA 00000001800310a0 f   VImage.obj
 0001:000300a0       ?dtor$1@?0??recomb@VImage@vips@@QEBA?AV12@V12@PEAVVOption@2@@Z@4HA 00000001800310a0 f   VImage.obj
 0001:000300a0       ?dtor$1@?0??relational@VImage@vips@@QEBA?AV12@V12@W4VipsOperationRelational@@PEAVVOption@2@@Z@4HA 00000001800310a0 f   VImage.obj
 0001:000300a0       ?dtor$1@?0??convasep@VImage@vips@@QEBA?AV12@V12@PEAVVOption@2@@Z@4HA 00000001800310a0 f   VImage.obj
 0001:000300a0       ?dtor$1@?0??remainder@VImage@vips@@QEBA?AV12@V12@PEAVVOption@2@@Z@4HA 00000001800310a0 f   VImage.obj
 0001:000300a0       ?dtor$1@?0??spcor@VImage@vips@@QEBA?AV12@V12@PEAVVOption@2@@Z@4HA 00000001800310a0 f   VImage.obj
 0001:000300a0       ?dtor$1@?0??convf@VImage@vips@@QEBA?AV12@V12@PEAVVOption@2@@Z@4HA 00000001800310a0 f   VImage.obj
 0001:000300a0       ?dtor$1@?0??subtract@VImage@vips@@QEBA?AV12@V12@PEAVVOption@2@@Z@4HA 00000001800310a0 f   VImage.obj
 0001:000300a0       ?dtor$1@?0??hist_match@VImage@vips@@QEBA?AV12@V12@PEAVVOption@2@@Z@4HA 00000001800310a0 f   VImage.obj
 0001:000300a0       ?dtor$1@?0??hist_find_indexed@VImage@vips@@QEBA?AV12@V12@PEAVVOption@2@@Z@4HA 00000001800310a0 f   VImage.obj
 0001:000300a0       ?dtor$1@?0??freqmult@VImage@vips@@QEBA?AV12@V12@PEAVVOption@2@@Z@4HA 00000001800310a0 f   VImage.obj
 0001:000300a0       ?dtor$1@?0??fastcor@VImage@vips@@QEBA?AV12@V12@PEAVVOption@2@@Z@4HA 00000001800310a0 f   VImage.obj
 0001:000300a0       ?dtor$1@?0??divide@VImage@vips@@QEBA?AV12@V12@PEAVVOption@2@@Z@4HA 00000001800310a0 f   VImage.obj
 0001:000300a0       ?dtor$1@?0??dECMC@VImage@vips@@QEBA?AV12@V12@PEAVVOption@2@@Z@4HA 00000001800310a0 f   VImage.obj
 0001:000300a0       ?dtor$1@?0??dE76@VImage@vips@@QEBA?AV12@V12@PEAVVOption@2@@Z@4HA 00000001800310a0 f   VImage.obj
 0001:000300a0       ?dtor$1@?0??dE00@VImage@vips@@QEBA?AV12@V12@PEAVVOption@2@@Z@4HA 00000001800310a0 f   VImage.obj
 0001:000300a0       ?dtor$1@?0??convsep@VImage@vips@@QEBA?AV12@V12@PEAVVOption@2@@Z@4HA 00000001800310a0 f   VImage.obj
 0001:000300a0       ?dtor$1@?0??convi@VImage@vips@@QEBA?AV12@V12@PEAVVOption@2@@Z@4HA 00000001800310a0 f   VImage.obj
 0001:000300a0       ?dtor$1@?0??maplut@VImage@vips@@QEBA?AV12@V12@PEAVVOption@2@@Z@4HA 00000001800310a0 f   VImage.obj
 0001:000300d0       ?dtor$2@?0??convf@VImage@vips@@QEBA?AV12@V12@PEAVVOption@2@@Z@4HA 00000001800310d0 f   VImage.obj
 0001:000300d0       ?dtor$2@?0??convasep@VImage@vips@@QEBA?AV12@V12@PEAVVOption@2@@Z@4HA 00000001800310d0 f   VImage.obj
 0001:000300d0       ?dtor$2@?0??conva@VImage@vips@@QEBA?AV12@V12@PEAVVOption@2@@Z@4HA 00000001800310d0 f   VImage.obj
 0001:000300d0       ?dtor$2@?0??convi@VImage@vips@@QEBA?AV12@V12@PEAVVOption@2@@Z@4HA 00000001800310d0 f   VImage.obj
 0001:000300d0       ?dtor$2@?0??convsep@VImage@vips@@QEBA?AV12@V12@PEAVVOption@2@@Z@4HA 00000001800310d0 f   VImage.obj
 0001:000300d0       ?dtor$2@?0??complexform@VImage@vips@@QEBA?AV12@V12@PEAVVOption@2@@Z@4HA 00000001800310d0 f   VImage.obj
 0001:000300d0       ?dtor$2@?0??compass@VImage@vips@@QEBA?AV12@V12@PEAVVOption@2@@Z@4HA 00000001800310d0 f   VImage.obj
 0001:000300d0       ?dtor$2@?0??dE00@VImage@vips@@QEBA?AV12@V12@PEAVVOption@2@@Z@4HA 00000001800310d0 f   VImage.obj
 0001:000300d0       ?dtor$2@?0??dE76@VImage@vips@@QEBA?AV12@V12@PEAVVOption@2@@Z@4HA 00000001800310d0 f   VImage.obj
 0001:000300d0       ?dtor$2@?0??thumbnail_source@VImage@vips@@SA?AV12@VVSource@2@HPEAVVOption@2@@Z@4HA 00000001800310d0 f   VImage.obj
 0001:000300d0       ?dtor$2@?0??subtract@VImage@vips@@QEBA?AV12@V12@PEAVVOption@2@@Z@4HA 00000001800310d0 f   VImage.obj
 0001:000300d0       ?dtor$2@?0??dECMC@VImage@vips@@QEBA?AV12@V12@PEAVVOption@2@@Z@4HA 00000001800310d0 f   VImage.obj
 0001:000300d0       ?dtor$2@?0??divide@VImage@vips@@QEBA?AV12@V12@PEAVVOption@2@@Z@4HA 00000001800310d0 f   VImage.obj
 0001:000300d0       ?dtor$2@?0??spcor@VImage@vips@@QEBA?AV12@V12@PEAVVOption@2@@Z@4HA 00000001800310d0 f   VImage.obj
 0001:000300d0       ?dtor$2@?0??add@VImage@vips@@QEBA?AV12@V12@PEAVVOption@2@@Z@4HA 00000001800310d0 f   VImage.obj
 0001:000300d0       ?dtor$2@?0??draw_mask@VImage@vips@@QEBAXV?$vector@NV?$allocator@N@std@@@std@@V12@HHPEAVVOption@2@@Z@4HA 00000001800310d0 f   VImage.obj
 0001:000300d0       ?dtor$1@?0??draw_image@VImage@vips@@QEBAXV12@HHPEAVVOption@2@@Z@4HA 00000001800310d0 f   VImage.obj
 0001:000300d0       ?dtor$2@?0??remainder@VImage@vips@@QEBA?AV12@V12@PEAVVOption@2@@Z@4HA 00000001800310d0 f   VImage.obj
 0001:000300d0       ?dtor$2@?0??fastcor@VImage@vips@@QEBA?AV12@V12@PEAVVOption@2@@Z@4HA 00000001800310d0 f   VImage.obj
 0001:000300d0       ?dtor$2@?0??freqmult@VImage@vips@@QEBA?AV12@V12@PEAVVOption@2@@Z@4HA 00000001800310d0 f   VImage.obj
 0001:000300d0       ?dtor$2@?0??hist_find_indexed@VImage@vips@@QEBA?AV12@V12@PEAVVOption@2@@Z@4HA 00000001800310d0 f   VImage.obj
 0001:000300d0       ?dtor$2@?0??recomb@VImage@vips@@QEBA?AV12@V12@PEAVVOption@2@@Z@4HA 00000001800310d0 f   VImage.obj
 0001:000300d0       ?dtor$2@?0??hist_match@VImage@vips@@QEBA?AV12@V12@PEAVVOption@2@@Z@4HA 00000001800310d0 f   VImage.obj
 0001:000300d0       ?dtor$2@?0??quadratic@VImage@vips@@QEBA?AV12@V12@PEAVVOption@2@@Z@4HA 00000001800310d0 f   VImage.obj
 0001:000300d0       ?dtor$2@?0??mapim@VImage@vips@@QEBA?AV12@V12@PEAVVOption@2@@Z@4HA 00000001800310d0 f   VImage.obj
 0001:000300d0       ?dtor$2@?0??phasecor@VImage@vips@@QEBA?AV12@V12@PEAVVOption@2@@Z@4HA 00000001800310d0 f   VImage.obj
 0001:000300d0       ?dtor$2@?0??maplut@VImage@vips@@QEBA?AV12@V12@PEAVVOption@2@@Z@4HA 00000001800310d0 f   VImage.obj
 0001:000300d0       ?dtor$2@?0??multiply@VImage@vips@@QEBA?AV12@V12@PEAVVOption@2@@Z@4HA 00000001800310d0 f   VImage.obj
 0001:000300d0       ?dtor$2@?0??conv@VImage@vips@@QEBA?AV12@V12@PEAVVOption@2@@Z@4HA 00000001800310d0 f   VImage.obj
 0001:000300e0       ?dtor$1@?0??remainder_const@VImage@vips@@QEBA?AV12@V?$vector@NV?$allocator@N@std@@@std@@PEAVVOption@2@@Z@4HA 00000001800310e0 f   VImage.obj
 0001:000300e0       ?dtor$2@?0??ifthenelse@VImage@vips@@QEBA?AV12@V12@0PEAVVOption@2@@Z@4HA 00000001800310e0 f   VImage.obj
 0001:000300e0       ?dtor$1@?0??affine@VImage@vips@@QEBA?AV12@V?$vector@NV?$allocator@N@std@@@std@@PEAVVOption@2@@Z@4HA 00000001800310e0 f   VImage.obj
 0001:000300e0       ?dtor$1@?0??math2_const@VImage@vips@@QEBA?AV12@W4VipsOperationMath2@@V?$vector@NV?$allocator@N@std@@@std@@PEAVVOption@2@@Z@4HA 00000001800310e0 f   VImage.obj
 0001:000300e0       ?dtor$1@?0??bandjoin_const@VImage@vips@@QEBA?AV12@V?$vector@NV?$allocator@N@std@@@std@@PEAVVOption@2@@Z@4HA 00000001800310e0 f   VImage.obj
 0001:000300e0       ?dtor$1@?0??boolean_const@VImage@vips@@QEBA?AV12@W4VipsOperationBoolean@@V?$vector@NV?$allocator@N@std@@@std@@PEAVVOption@2@@Z@4HA 00000001800310e0 f   VImage.obj
 0001:000300e0       ?dtor$1@?0??relational_const@VImage@vips@@QEBA?AV12@W4VipsOperationRelational@@V?$vector@NV?$allocator@N@std@@@std@@PEAVVOption@2@@Z@4HA 00000001800310e0 f   VImage.obj
 0001:00030110       ?dtor$2@?0??affine@VImage@vips@@QEBA?AV12@V?$vector@NV?$allocator@N@std@@@std@@PEAVVOption@2@@Z@4HA 0000000180031110 f   VImage.obj
 0001:00030110       ?dtor$0@?0??math2_const@VImage@vips@@QEBA?AV12@W4VipsOperationMath2@@V?$vector@NV?$allocator@N@std@@@std@@PEAVVOption@2@@Z@4HA 0000000180031110 f   VImage.obj
 0001:00030110       ?dtor$2@?0??remainder_const@VImage@vips@@QEBA?AV12@V?$vector@NV?$allocator@N@std@@@std@@PEAVVOption@2@@Z@4HA 0000000180031110 f   VImage.obj
 0001:00030110       ?dtor$0@?0??relational_const@VImage@vips@@QEBA?AV12@W4VipsOperationRelational@@V?$vector@NV?$allocator@N@std@@@std@@PEAVVOption@2@@Z@4HA 0000000180031110 f   VImage.obj
 0001:00030110       ?dtor$4@?0???Zvips@@YAAEAVVImage@0@AEAV10@N@Z@4HA 0000000180031110 f   VImage.obj
 0001:00030110       ?dtor$1@?0??draw_mask@VImage@vips@@QEBAXV?$vector@NV?$allocator@N@std@@@std@@V12@HHPEAVVOption@2@@Z@4HA 0000000180031110 f   VImage.obj
 0001:00030110       ?dtor$0@?0??boolean_const@VImage@vips@@QEBA?AV12@W4VipsOperationBoolean@@V?$vector@NV?$allocator@N@std@@@std@@PEAVVOption@2@@Z@4HA 0000000180031110 f   VImage.obj
 0001:00030110       ?dtor$1@?0???Kvips@@YA?AVVImage@0@V?$vector@NV?$allocator@N@std@@@std@@V10@@Z@4HA 0000000180031110 f   VImage.obj
 0001:00030110       ?dtor$2@?0??bandjoin_const@VImage@vips@@QEBA?AV12@V?$vector@NV?$allocator@N@std@@@std@@PEAVVOption@2@@Z@4HA 0000000180031110 f   VImage.obj
 0001:00030120       ?dtor$0@?0??rawload@VImage@vips@@SA?AV12@PEBDHHHPEAVVOption@2@@Z@4HA 0000000180031120 f   VImage.obj
 0001:00030120       ?dtor$0@?0??radload_buffer@VImage@vips@@SA?AV12@PEAU_VipsBlob@@PEAVVOption@2@@Z@4HA 0000000180031120 f   VImage.obj
 0001:00030120       ?dtor$0@?0??sines@VImage@vips@@SA?AV12@HHPEAVVOption@2@@Z@4HA 0000000180031120 f   VImage.obj
 0001:00030120       ?dtor$0@?0??radload@VImage@vips@@SA?AV12@PEBDPEAVVOption@2@@Z@4HA 0000000180031120 f   VImage.obj
 0001:00030120       ?dtor$0@?0??ppmload@VImage@vips@@SA?AV12@PEBDPEAVVOption@2@@Z@4HA 0000000180031120 f   VImage.obj
 0001:00030120       ?dtor$0@?0??svgload@VImage@vips@@SA?AV12@PEBDPEAVVOption@2@@Z@4HA 0000000180031120 f   VImage.obj
 0001:00030120       ?dtor$0@?0??pngload_buffer@VImage@vips@@SA?AV12@PEAU_VipsBlob@@PEAVVOption@2@@Z@4HA 0000000180031120 f   VImage.obj
 0001:00030120       ?dtor$0@?0??perlin@VImage@vips@@SA?AV12@HHPEAVVOption@2@@Z@4HA 0000000180031120 f   VImage.obj
 0001:00030120       ?dtor$0@?0??pdfload_buffer@VImage@vips@@SA?AV12@PEAU_VipsBlob@@PEAVVOption@2@@Z@4HA 0000000180031120 f   VImage.obj
 0001:00030120       ?dtor$0@?0??pdfload@VImage@vips@@SA?AV12@PEBDPEAVVOption@2@@Z@4HA 0000000180031120 f   VImage.obj
 0001:00030120       ?dtor$0@?0??openslideload@VImage@vips@@SA?AV12@PEBDPEAVVOption@2@@Z@4HA 0000000180031120 f   VImage.obj
 0001:00030120       ?dtor$0@?0??openexrload@VImage@vips@@SA?AV12@PEBDPEAVVOption@2@@Z@4HA 0000000180031120 f   VImage.obj
 0001:00030120       ?dtor$0@?0??niftiload@VImage@vips@@SA?AV12@PEBDPEAVVOption@2@@Z@4HA 0000000180031120 f   VImage.obj
 0001:00030120       ?dtor$0@?0??matrixload@VImage@vips@@SA?AV12@PEBDPEAVVOption@2@@Z@4HA 0000000180031120 f   VImage.obj
 0001:00030120       ?dtor$0@?0??matload@VImage@vips@@SA?AV12@PEBDPEAVVOption@2@@Z@4HA 0000000180031120 f   VImage.obj
 0001:00030120       ?dtor$0@?0??magickload_buffer@VImage@vips@@SA?AV12@PEAU_VipsBlob@@PEAVVOption@2@@Z@4HA 0000000180031120 f   VImage.obj
 0001:00030120       ?dtor$0@?0??magickload@VImage@vips@@SA?AV12@PEBDPEAVVOption@2@@Z@4HA 0000000180031120 f   VImage.obj
 0001:00030120       ?dtor$0@?0??jpegload_buffer@VImage@vips@@SA?AV12@PEAU_VipsBlob@@PEAVVOption@2@@Z@4HA 0000000180031120 f   VImage.obj
 0001:00030120       ?dtor$0@?0??jpegload@VImage@vips@@SA?AV12@PEBDPEAVVOption@2@@Z@4HA 0000000180031120 f   VImage.obj
 0001:00030120       ?dtor$0@?0??identity@VImage@vips@@SA?AV12@PEAVVOption@2@@Z@4HA 0000000180031120 f   VImage.obj
 0001:00030120       ?dtor$0@?0??heifload_buffer@VImage@vips@@SA?AV12@PEAU_VipsBlob@@PEAVVOption@2@@Z@4HA 0000000180031120 f   VImage.obj
 0001:00030120       ?dtor$0@?0??heifload@VImage@vips@@SA?AV12@PEBDPEAVVOption@2@@Z@4HA 0000000180031120 f   VImage.obj
 0001:00030120       ?dtor$0@?0??svgload_buffer@VImage@vips@@SA?AV12@PEAU_VipsBlob@@PEAVVOption@2@@Z@4HA 0000000180031120 f   VImage.obj
 0001:00030120       ?dtor$0@?0??grey@VImage@vips@@SA?AV12@HHPEAVVOption@2@@Z@4HA 0000000180031120 f   VImage.obj
 0001:00030120       ?dtor$0@?0??gifload_buffer@VImage@vips@@SA?AV12@PEAU_VipsBlob@@PEAVVOption@2@@Z@4HA 0000000180031120 f   VImage.obj
 0001:00030120       ?dtor$0@?0??gifload@VImage@vips@@SA?AV12@PEBDPEAVVOption@2@@Z@4HA 0000000180031120 f   VImage.obj
 0001:00030120       ?dtor$0@?0??gaussnoise@VImage@vips@@SA?AV12@HHPEAVVOption@2@@Z@4HA 0000000180031120 f   VImage.obj
 0001:00030120       ?dtor$0@?0??text@VImage@vips@@SA?AV12@PEBDPEAVVOption@2@@Z@4HA 0000000180031120 f   VImage.obj
 0001:00030120       ?dtor$0@?0??fitsload@VImage@vips@@SA?AV12@PEBDPEAVVOption@2@@Z@4HA 0000000180031120 f   VImage.obj
 0001:00030120       ?dtor$0@?0??eye@VImage@vips@@SA?AV12@HHPEAVVOption@2@@Z@4HA 0000000180031120 f   VImage.obj
 0001:00030120       ?dtor$0@?0??thumbnail@VImage@vips@@SA?AV12@PEBDHPEAVVOption@2@@Z@4HA 0000000180031120 f   VImage.obj
 0001:00030120       ?dtor$0@?0??csvload@VImage@vips@@SA?AV12@PEBDPEAVVOption@2@@Z@4HA 0000000180031120 f   VImage.obj
 0001:00030120       ?dtor$0@?0??thumbnail_buffer@VImage@vips@@SA?AV12@PEAU_VipsBlob@@HPEAVVOption@2@@Z@4HA 0000000180031120 f   VImage.obj
 0001:00030120       ?dtor$0@?0??tiffload@VImage@vips@@SA?AV12@PEBDPEAVVOption@2@@Z@4HA 0000000180031120 f   VImage.obj
 0001:00030120       ?dtor$0@?0??black@VImage@vips@@SA?AV12@HHPEAVVOption@2@@Z@4HA 0000000180031120 f   VImage.obj
 0001:00030120       ?dtor$0@?0??pngload@VImage@vips@@SA?AV12@PEBDPEAVVOption@2@@Z@4HA 0000000180031120 f   VImage.obj
 0001:00030120       ?dtor$0@?0??tiffload_buffer@VImage@vips@@SA?AV12@PEAU_VipsBlob@@PEAVVOption@2@@Z@4HA 0000000180031120 f   VImage.obj
 0001:00030120       ?dtor$0@?0??tonelut@VImage@vips@@SA?AV12@PEAVVOption@2@@Z@4HA 0000000180031120 f   VImage.obj
 0001:00030120       ?dtor$0@?0??vipsload@VImage@vips@@SA?AV12@PEBDPEAVVOption@2@@Z@4HA 0000000180031120 f   VImage.obj
 0001:00030120       ?dtor$0@?0??webpload@VImage@vips@@SA?AV12@PEBDPEAVVOption@2@@Z@4HA 0000000180031120 f   VImage.obj
 0001:00030120       ?dtor$0@?0??webpload_buffer@VImage@vips@@SA?AV12@PEAU_VipsBlob@@PEAVVOption@2@@Z@4HA 0000000180031120 f   VImage.obj
 0001:00030120       ?dtor$0@?0??worley@VImage@vips@@SA?AV12@HHPEAVVOption@2@@Z@4HA 0000000180031120 f   VImage.obj
 0001:00030120       ?dtor$0@?0??xyz@VImage@vips@@SA?AV12@HHPEAVVOption@2@@Z@4HA 0000000180031120 f   VImage.obj
 0001:00030120       ?dtor$0@?0??zone@VImage@vips@@SA?AV12@HHPEAVVOption@2@@Z@4HA 0000000180031120 f   VImage.obj
 0001:00030120       ?dtor$0@?0??analyzeload@VImage@vips@@SA?AV12@PEBDPEAVVOption@2@@Z@4HA 0000000180031120 f   VImage.obj
 0001:00030150       ?dtor$0@?0??arrayjoin@VImage@vips@@SA?AV12@V?$vector@VVImage@vips@@V?$allocator@VVImage@vips@@@std@@@std@@PEAVVOption@2@@Z@4HA 0000000180031150 f   VImage.obj
 0001:00030150       ?dtor$0@?0??bandjoin@VImage@vips@@SA?AV12@V?$vector@VVImage@vips@@V?$allocator@VVImage@vips@@@std@@@std@@PEAVVOption@2@@Z@4HA 0000000180031150 f   VImage.obj
 0001:00030150       ?dtor$0@?0??bandrank@VImage@vips@@SA?AV12@V?$vector@VVImage@vips@@V?$allocator@VVImage@vips@@@std@@@std@@PEAVVOption@2@@Z@4HA 0000000180031150 f   VImage.obj
 0001:00030150       ?dtor$0@?0??switch_image@VImage@vips@@SA?AV12@V?$vector@VVImage@vips@@V?$allocator@VVImage@vips@@@std@@@std@@PEAVVOption@2@@Z@4HA 0000000180031150 f   VImage.obj
 0001:00030150       ?dtor$0@?0??sum@VImage@vips@@SA?AV12@V?$vector@VVImage@vips@@V?$allocator@VVImage@vips@@@std@@@std@@PEAVVOption@2@@Z@4HA 0000000180031150 f   VImage.obj
 0001:00030160       ?dtor$1@?0??switch_image@VImage@vips@@SA?AV12@V?$vector@VVImage@vips@@V?$allocator@VVImage@vips@@@std@@@std@@PEAVVOption@2@@Z@4HA 0000000180031160 f   VImage.obj
 0001:00030160       ?dtor$1@?0??bandjoin@VImage@vips@@SA?AV12@V?$vector@VVImage@vips@@V?$allocator@VVImage@vips@@@std@@@std@@PEAVVOption@2@@Z@4HA 0000000180031160 f   VImage.obj
 0001:00030160       ?dtor$1@?0??arrayjoin@VImage@vips@@SA?AV12@V?$vector@VVImage@vips@@V?$allocator@VVImage@vips@@@std@@@std@@PEAVVOption@2@@Z@4HA 0000000180031160 f   VImage.obj
 0001:00030160       ?dtor$1@?0??sum@VImage@vips@@SA?AV12@V?$vector@VVImage@vips@@V?$allocator@VVImage@vips@@@std@@@std@@PEAVVOption@2@@Z@4HA 0000000180031160 f   VImage.obj
 0001:00030160       ?dtor$1@?0??bandrank@VImage@vips@@SA?AV12@V?$vector@VVImage@vips@@V?$allocator@VVImage@vips@@@std@@@std@@PEAVVOption@2@@Z@4HA 0000000180031160 f   VImage.obj
 0001:00030190       ?dtor$2@?0??arrayjoin@VImage@vips@@SA?AV12@V?$vector@VVImage@vips@@V?$allocator@VVImage@vips@@@std@@@std@@PEAVVOption@2@@Z@4HA 0000000180031190 f   VImage.obj
 0001:00030190       ?dtor$2@?0??bandrank@VImage@vips@@SA?AV12@V?$vector@VVImage@vips@@V?$allocator@VVImage@vips@@@std@@@std@@PEAVVOption@2@@Z@4HA 0000000180031190 f   VImage.obj
 0001:00030190       ?dtor$2@?0??bandjoin@VImage@vips@@SA?AV12@V?$vector@VVImage@vips@@V?$allocator@VVImage@vips@@@std@@@std@@PEAVVOption@2@@Z@4HA 0000000180031190 f   VImage.obj
 0001:00030190       ?dtor$2@?0??switch_image@VImage@vips@@SA?AV12@V?$vector@VVImage@vips@@V?$allocator@VVImage@vips@@@std@@@std@@PEAVVOption@2@@Z@4HA 0000000180031190 f   VImage.obj
 0001:00030190       ?dtor$2@?0??sum@VImage@vips@@SA?AV12@V?$vector@VVImage@vips@@V?$allocator@VVImage@vips@@@std@@@std@@PEAVVOption@2@@Z@4HA 0000000180031190 f   VImage.obj
 0001:000301a0       ?dtor$0@?0??gaussblur@VImage@vips@@QEBA?AV12@NPEAVVOption@2@@Z@4HA 00000001800311a0 f   VImage.obj
 0001:000301a0       ?dtor$0@?0??hist_local@VImage@vips@@QEBA?AV12@HHPEAVVOption@2@@Z@4HA 00000001800311a0 f   VImage.obj
 0001:000301a0       ?dtor$0@?0??icc_transform@VImage@vips@@QEBA?AV12@PEBDPEAVVOption@2@@Z@4HA 00000001800311a0 f   VImage.obj
 0001:000301a0       ?dtor$0@?0??flip@VImage@vips@@QEBA?AV12@W4VipsDirection@@PEAVVOption@2@@Z@4HA 00000001800311a0 f   VImage.obj
 0001:000301a0       ?dtor$0@?0??math@VImage@vips@@QEBA?AV12@W4VipsOperationMath@@PEAVVOption@2@@Z@4HA 00000001800311a0 f   VImage.obj
 0001:000301a0       ?dtor$0@?0??grid@VImage@vips@@QEBA?AV12@HHHPEAVVOption@2@@Z@4HA 00000001800311a0 f   VImage.obj
 0001:000301a0       ?dtor$0@?0??gravity@VImage@vips@@QEBA?AV12@W4VipsCompassDirection@@HHPEAVVOption@2@@Z@4HA 00000001800311a0 f   VImage.obj
 0001:000301a0       ?dtor$0@?0??extract_area@VImage@vips@@QEBA?AV12@HHHHPEAVVOption@2@@Z@4HA 00000001800311a0 f   VImage.obj
 0001:000301a0       ?dtor$0@?0??extract_band@VImage@vips@@QEBA?AV12@HPEAVVOption@2@@Z@4HA 00000001800311a0 f   VImage.obj
 0001:000301a0       ?dtor$0@?0??measure@VImage@vips@@QEBA?AV12@HHPEAVVOption@2@@Z@4HA 00000001800311a0 f   VImage.obj
 0001:000301a0       ?dtor$0@?0??complex@VImage@vips@@QEBA?AV12@W4VipsOperationComplex@@PEAVVOption@2@@Z@4HA 00000001800311a0 f   VImage.obj
 0001:000301a0       ?dtor$0@?0??embed@VImage@vips@@QEBA?AV12@HHHHPEAVVOption@2@@Z@4HA 00000001800311a0 f   VImage.obj
 0001:000301a0       ?dtor$0@?0??bandbool@VImage@vips@@QEBA?AV12@W4VipsOperationBoolean@@PEAVVOption@2@@Z@4HA 00000001800311a0 f   VImage.obj
 0001:000301a0       ?dtor$0@?0??profile@VImage@vips@@QEBA?AV12@PEAV12@PEAVVOption@2@@Z@4HA 00000001800311a0 f   VImage.obj
 0001:000301a0       ?dtor$0@?0??project@VImage@vips@@QEBA?AV12@PEAV12@PEAVVOption@2@@Z@4HA 00000001800311a0 f   VImage.obj
 0001:000301a0       ?dtor$0@?0??rank@VImage@vips@@QEBA?AV12@HHHPEAVVOption@2@@Z@4HA 00000001800311a0 f   VImage.obj
 0001:000301a0       ?dtor$0@?0??reduceh@VImage@vips@@QEBA?AV12@NPEAVVOption@2@@Z@4HA 00000001800311a0 f   VImage.obj
 0001:000301a0       ?dtor$0@?0??reducev@VImage@vips@@QEBA?AV12@NPEAVVOption@2@@Z@4HA 00000001800311a0 f   VImage.obj
 0001:000301a0       ?dtor$0@?0??replicate@VImage@vips@@QEBA?AV12@HHPEAVVOption@2@@Z@4HA 00000001800311a0 f   VImage.obj
 0001:000301a0       ?dtor$0@?0??crop@VImage@vips@@QEBA?AV12@HHHHPEAVVOption@2@@Z@4HA 00000001800311a0 f   VImage.obj
 0001:000301a0       ?dtor$0@?0??resize@VImage@vips@@QEBA?AV12@NPEAVVOption@2@@Z@4HA 00000001800311a0 f   VImage.obj
 0001:000301a0       ?dtor$0@?0??thumbnail_image@VImage@vips@@QEBA?AV12@HPEAVVOption@2@@Z@4HA 00000001800311a0 f   VImage.obj
 0001:000301a0       ?dtor$0@?0??complexget@VImage@vips@@QEBA?AV12@W4VipsOperationComplexget@@PEAVVOption@2@@Z@4HA 00000001800311a0 f   VImage.obj
 0001:000301a0       ?dtor$0@?0??colourspace@VImage@vips@@QEBA?AV12@W4VipsInterpretation@@PEAVVOption@2@@Z@4HA 00000001800311a0 f   VImage.obj
 0001:000301a0       ?dtor$0@?0??rot@VImage@vips@@QEBA?AV12@W4VipsAngle@@PEAVVOption@2@@Z@4HA 00000001800311a0 f   VImage.obj
 0001:000301a0       ?dtor$0@?0??cast@VImage@vips@@QEBA?AV12@W4VipsBandFormat@@PEAVVOption@2@@Z@4HA 00000001800311a0 f   VImage.obj
 0001:000301a0       ?dtor$0@?0??rotate@VImage@vips@@QEBA?AV12@NPEAVVOption@2@@Z@4HA 00000001800311a0 f   VImage.obj
 0001:000301a0       ?dtor$0@?0??round@VImage@vips@@QEBA?AV12@W4VipsOperationRound@@PEAVVOption@2@@Z@4HA 00000001800311a0 f   VImage.obj
 0001:000301a0       ?dtor$0@?0??shrinkh@VImage@vips@@QEBA?AV12@HPEAVVOption@2@@Z@4HA 00000001800311a0 f   VImage.obj
 0001:000301a0       ?dtor$0@?0??zoom@VImage@vips@@QEBA?AV12@HHPEAVVOption@2@@Z@4HA 00000001800311a0 f   VImage.obj
 0001:000301a0       ?dtor$0@?0??subsample@VImage@vips@@QEBA?AV12@HHPEAVVOption@2@@Z@4HA 00000001800311a0 f   VImage.obj
 0001:000301a0       ?dtor$0@?0??stdif@VImage@vips@@QEBA?AV12@HHPEAVVOption@2@@Z@4HA 00000001800311a0 f   VImage.obj
 0001:000301a0       ?dtor$0@?0??smartcrop@VImage@vips@@QEBA?AV12@HHPEAVVOption@2@@Z@4HA 00000001800311a0 f   VImage.obj
 0001:000301a0       ?dtor$0@?0??shrinkv@VImage@vips@@QEBA?AV12@HPEAVVOption@2@@Z@4HA 00000001800311a0 f   VImage.obj
 0001:000301d0       ?dtor$2@?0??math2_const@VImage@vips@@QEBA?AV12@W4VipsOperationMath2@@V?$vector@NV?$allocator@N@std@@@std@@PEAVVOption@2@@Z@4HA 00000001800311d0 f   VImage.obj
 0001:000301d0       ?dtor$2@?0??relational_const@VImage@vips@@QEBA?AV12@W4VipsOperationRelational@@V?$vector@NV?$allocator@N@std@@@std@@PEAVVOption@2@@Z@4HA 00000001800311d0 f   VImage.obj
 0001:000301d0       ?dtor$3@?0??linear@VImage@vips@@QEBA?AV12@V?$vector@NV?$allocator@N@std@@@std@@0PEAVVOption@2@@Z@4HA 00000001800311d0 f   VImage.obj
 0001:000301d0       ?dtor$2@?0??boolean_const@VImage@vips@@QEBA?AV12@W4VipsOperationBoolean@@V?$vector@NV?$allocator@N@std@@@std@@PEAVVOption@2@@Z@4HA 00000001800311d0 f   VImage.obj
 0001:000301e0       ?dtor$0@?0??case_image@VImage@vips@@QEBA?AV12@V?$vector@VVImage@vips@@V?$allocator@VVImage@vips@@@std@@@std@@PEAVVOption@2@@Z@4HA 00000001800311e0 f   VImage.obj
 0001:000301f0       ?dtor$1@?0??case_image@VImage@vips@@QEBA?AV12@V?$vector@VVImage@vips@@V?$allocator@VVImage@vips@@@std@@@std@@PEAVVOption@2@@Z@4HA 00000001800311f0 f   VImage.obj
 0001:00030220       ?dtor$2@?0??case_image@VImage@vips@@QEBA?AV12@V?$vector@VVImage@vips@@V?$allocator@VVImage@vips@@@std@@@std@@PEAVVOption@2@@Z@4HA 0000000180031220 f   VImage.obj
 0001:00030230       ?dtor$0@?0??composite@VImage@vips@@SA?AV12@V?$vector@VVImage@vips@@V?$allocator@VVImage@vips@@@std@@@std@@V?$vector@HV?$allocator@H@std@@@4@PEAVVOption@2@@Z@4HA 0000000180031230 f   VImage.obj
 0001:00030240       ?dtor$1@?0??composite@VImage@vips@@SA?AV12@V?$vector@VVImage@vips@@V?$allocator@VVImage@vips@@@std@@@std@@V?$vector@HV?$allocator@H@std@@@4@PEAVVOption@2@@Z@4HA 0000000180031240 f   VImage.obj
 0001:00030250       ?dtor$2@?0??composite@VImage@vips@@SA?AV12@V?$vector@VVImage@vips@@V?$allocator@VVImage@vips@@@std@@@std@@V?$vector@HV?$allocator@H@std@@@4@PEAVVOption@2@@Z@4HA 0000000180031250 f   VImage.obj
 0001:00030280       ?dtor$3@?0??composite@VImage@vips@@SA?AV12@V?$vector@VVImage@vips@@V?$allocator@VVImage@vips@@@std@@@std@@V?$vector@HV?$allocator@H@std@@@4@PEAVVOption@2@@Z@4HA 0000000180031280 f   VImage.obj
 0001:00030290       ?dtor$4@?0??composite@VImage@vips@@SA?AV12@V?$vector@VVImage@vips@@V?$allocator@VVImage@vips@@@std@@@std@@V?$vector@HV?$allocator@H@std@@@4@PEAVVOption@2@@Z@4HA 0000000180031290 f   VImage.obj
 0001:000302a0       ?dtor$1@?0???Ivips@@YA?AVVImage@0@V10@V?$vector@NV?$allocator@N@std@@@std@@@Z@4HA 00000001800312a0 f   VImage.obj
 0001:000302a0       ?dtor$1@?0???Nvips@@YA?AVVImage@0@V10@V?$vector@NV?$allocator@N@std@@@std@@@Z@4HA 00000001800312a0 f   VImage.obj
 0001:000302a0       ?dtor$1@?0???Uvips@@YA?AVVImage@0@V10@V?$vector@NV?$allocator@N@std@@@std@@@Z@4HA 00000001800312a0 f   VImage.obj
 0001:000302a0       ?dtor$0@?0??draw_image@VImage@vips@@QEBAXV12@HHPEAVVOption@2@@Z@4HA 00000001800312a0 f   VImage.obj
 0001:000302a0       ?dtor$1@?0???5vips@@YA?AVVImage@0@V10@V?$vector@NV?$allocator@N@std@@@std@@@Z@4HA 00000001800312a0 f   VImage.obj
 0001:000302a0       ?dtor$1@?0???Tvips@@YA?AVVImage@0@V10@V?$vector@NV?$allocator@N@std@@@std@@@Z@4HA 00000001800312a0 f   VImage.obj
 0001:000302a0       ?dtor$1@?0??radsave_target@VImage@vips@@QEBAXVVTarget@2@PEAVVOption@2@@Z@4HA 00000001800312a0 f   VImage.obj
 0001:000302a0       ?dtor$1@?0???Lvips@@YA?AVVImage@0@V10@V?$vector@NV?$allocator@N@std@@@std@@@Z@4HA 00000001800312a0 f   VImage.obj
 0001:000302a0       ?dtor$1@?0???Hvips@@YA?AVVImage@0@V10@V?$vector@NV?$allocator@N@std@@@std@@@Z@4HA 00000001800312a0 f   VImage.obj
 0001:000302a0       ?dtor$1@?0??pngsave_target@VImage@vips@@QEBAXVVTarget@2@PEAVVOption@2@@Z@4HA 00000001800312a0 f   VImage.obj
 0001:000302a0       ?dtor$1@?0???Dvips@@YA?AVVImage@0@V10@V?$vector@NV?$allocator@N@std@@@std@@@Z@4HA 00000001800312a0 f   VImage.obj
 0001:000302a0       ?dtor$1@?0???9vips@@YA?AVVImage@0@V10@V?$vector@NV?$allocator@N@std@@@std@@@Z@4HA 00000001800312a0 f   VImage.obj
 0001:000302a0       ?dtor$1@?0??jpegsave_target@VImage@vips@@QEBAXVVTarget@2@PEAVVOption@2@@Z@4HA 00000001800312a0 f   VImage.obj
 0001:000302a0       ?dtor$1@?0???8vips@@YA?AVVImage@0@V10@V?$vector@NV?$allocator@N@std@@@std@@@Z@4HA 00000001800312a0 f   VImage.obj
 0001:000302a0       ?dtor$1@?0??webpsave_target@VImage@vips@@QEBAXVVTarget@2@PEAVVOption@2@@Z@4HA 00000001800312a0 f   VImage.obj
 0001:000302a0       ?dtor$1@?0???6vips@@YA?AVVImage@0@V10@V?$vector@NV?$allocator@N@std@@@std@@@Z@4HA 00000001800312a0 f   VImage.obj
 0001:000302a0       ?dtor$1@?0???Mvips@@YA?AVVImage@0@V10@V?$vector@NV?$allocator@N@std@@@std@@@Z@4HA 00000001800312a0 f   VImage.obj
 0001:000302a0       ?dtor$1@?0???Ovips@@YA?AVVImage@0@V10@V?$vector@NV?$allocator@N@std@@@std@@@Z@4HA 00000001800312a0 f   VImage.obj
 0001:000302a0       ?dtor$1@?0???Pvips@@YA?AVVImage@0@V10@V?$vector@NV?$allocator@N@std@@@std@@@Z@4HA 00000001800312a0 f   VImage.obj
 0001:000302b0       ?dtor$0@?0???Kvips@@YA?AVVImage@0@V?$vector@NV?$allocator@N@std@@@std@@V10@@Z@4HA 00000001800312b0 f   VImage.obj
 0001:000302b0       ?dtor$0@?0??draw_mask@VImage@vips@@QEBAXV?$vector@NV?$allocator@N@std@@@std@@V12@HHPEAVVOption@2@@Z@4HA 00000001800312b0 f   VImage.obj
 0001:000302b0       ?dtor$2@?0???_0vips@@YAAEAVVImage@0@AEAV10@N@Z@4HA 00000001800312b0 f   VImage.obj
 0001:000302b0       ?dtor$0@?0??bandjoin@VImage@vips@@QEBA?AV12@V12@PEAVVOption@2@@Z@4HA 00000001800312b0 f   VImage.obj
 0001:000302c0       ?dtor$0@?0??mask_ideal_band@VImage@vips@@SA?AV12@HHNNNPEAVVOption@2@@Z@4HA 00000001800312c0 f   VImage.obj
 0001:000302c0       ?dtor$0@?0??mask_ideal@VImage@vips@@SA?AV12@HHNPEAVVOption@2@@Z@4HA 00000001800312c0 f   VImage.obj
 0001:000302c0       ?dtor$0@?0??mask_gaussian_ring@VImage@vips@@SA?AV12@HHNNNPEAVVOption@2@@Z@4HA 00000001800312c0 f   VImage.obj
 0001:000302c0       ?dtor$0@?0??mask_gaussian_band@VImage@vips@@SA?AV12@HHNNNNPEAVVOption@2@@Z@4HA 00000001800312c0 f   VImage.obj
 0001:000302c0       ?dtor$0@?0??mask_gaussian@VImage@vips@@SA?AV12@HHNNPEAVVOption@2@@Z@4HA 00000001800312c0 f   VImage.obj
 0001:000302c0       ?dtor$0@?0??mask_fractal@VImage@vips@@SA?AV12@HHNPEAVVOption@2@@Z@4HA 00000001800312c0 f   VImage.obj
 0001:000302c0       ?dtor$0@?0??mask_butterworth_ring@VImage@vips@@SA?AV12@HHNNNNPEAVVOption@2@@Z@4HA 00000001800312c0 f   VImage.obj
 0001:000302c0       ?dtor$0@?0??mask_butterworth_band@VImage@vips@@SA?AV12@HHNNNNNPEAVVOption@2@@Z@4HA 00000001800312c0 f   VImage.obj
 0001:000302c0       ?dtor$0@?0??mask_ideal_ring@VImage@vips@@SA?AV12@HHNNPEAVVOption@2@@Z@4HA 00000001800312c0 f   VImage.obj
 0001:000302c0       ?dtor$0@?0??fractsurf@VImage@vips@@SA?AV12@HHNPEAVVOption@2@@Z@4HA 00000001800312c0 f   VImage.obj
 0001:000302c0       ?dtor$0@?0??mask_butterworth@VImage@vips@@SA?AV12@HHNNNPEAVVOption@2@@Z@4HA 00000001800312c0 f   VImage.obj
 0001:000302f0       ?dtor$0@?0??gaussmat@VImage@vips@@SA?AV12@NNPEAVVOption@2@@Z@4HA 00000001800312f0 f   VImage.obj
 0001:000302f0       ?dtor$0@?0??logmat@VImage@vips@@SA?AV12@NNPEAVVOption@2@@Z@4HA 00000001800312f0 f   VImage.obj
 0001:00030320       ?dtor$0@?0??getpoint@VImage@vips@@QEBA?AV?$vector@NV?$allocator@N@std@@@std@@HHPEAVVOption@2@@Z@4HA 0000000180031320 f   VImage.obj
 0001:00030350       ?dtor$2@?0???Zvips@@YAAEAVVImage@0@AEAV10@N@Z@4HA 0000000180031350 f   VImage.obj
 0001:00030350       ?dtor$1@?0??ifthenelse@VImage@vips@@QEBA?AV12@V12@0PEAVVOption@2@@Z@4HA 0000000180031350 f   VImage.obj
 0001:00030360       ?dtor$0@?0???Kvips@@YA?AVVImage@0@V10@N@Z@4HA 0000000180031360 f   VImage.obj
 0001:00030360       ?dtor$0@?0???Gvips@@YA?AVVImage@0@V10@@Z@4HA 0000000180031360 f   VImage.obj
 0001:00030360       ?dtor$4@?0??ifthenelse@VImage@vips@@QEBA?AV12@V12@0PEAVVOption@2@@Z@4HA 0000000180031360 f   VImage.obj
 0001:00030360       ?dtor$0@?0???Dvips@@YA?AVVImage@0@V10@N@Z@4HA 0000000180031360 f   VImage.obj
 0001:00030360       ?dtor$0@?0???Hvips@@YA?AVVImage@0@V10@N@Z@4HA 0000000180031360 f   VImage.obj
 0001:00030360       ?dtor$0@?0???Gvips@@YA?AVVImage@0@V10@N@Z@4HA 0000000180031360 f   VImage.obj
 0001:00030370       ?dtor$0@?0???9vips@@YA?AVVImage@0@V10@N@Z@4HA 0000000180031370 f   VImage.obj
 0001:00030370       ?dtor$1@?0???9vips@@YA?AVVImage@0@V10@0@Z@4HA 0000000180031370 f   VImage.obj
 0001:00030370       ?dtor$1@?0???Pvips@@YA?AVVImage@0@V10@0@Z@4HA 0000000180031370 f   VImage.obj
 0001:00030370       ?dtor$1@?0???Dvips@@YA?AVVImage@0@V10@0@Z@4HA 0000000180031370 f   VImage.obj
 0001:00030370       ?dtor$1@?0???6vips@@YA?AVVImage@0@V10@0@Z@4HA 0000000180031370 f   VImage.obj
 0001:00030370       ?dtor$0@?0???8vips@@YA?AVVImage@0@V10@N@Z@4HA 0000000180031370 f   VImage.obj
 0001:00030370       ?dtor$0@?0??jpegload_source@VImage@vips@@SA?AV12@VVSource@2@PEAVVOption@2@@Z@4HA 0000000180031370 f   VImage.obj
 0001:00030370       ?dtor$0@?0???Ivips@@YA?AVVImage@0@V10@N@Z@4HA 0000000180031370 f   VImage.obj
 0001:00030370       ?dtor$0@?0???Lvips@@YA?AVVImage@0@V10@N@Z@4HA 0000000180031370 f   VImage.obj
 0001:00030370       ?dtor$1@?0???8vips@@YA?AVVImage@0@V10@0@Z@4HA 0000000180031370 f   VImage.obj
 0001:00030370       ?dtor$0@?0???6vips@@YA?AVVImage@0@V10@N@Z@4HA 0000000180031370 f   VImage.obj
 0001:00030370       ?dtor$0@?0???Mvips@@YA?AVVImage@0@V10@N@Z@4HA 0000000180031370 f   VImage.obj
 0001:00030370       ?dtor$1@?0???Hvips@@YA?AVVImage@0@V10@0@Z@4HA 0000000180031370 f   VImage.obj
 0001:00030370       ?dtor$0@?0??pngload_source@VImage@vips@@SA?AV12@VVSource@2@PEAVVOption@2@@Z@4HA 0000000180031370 f   VImage.obj
 0001:00030370       ?dtor$1@?0???Ivips@@YA?AVVImage@0@V10@0@Z@4HA 0000000180031370 f   VImage.obj
 0001:00030370       ?dtor$0@?0??webpload_source@VImage@vips@@SA?AV12@VVSource@2@PEAVVOption@2@@Z@4HA 0000000180031370 f   VImage.obj
 0001:00030370       ?dtor$1@?0???Tvips@@YA?AVVImage@0@V10@0@Z@4HA 0000000180031370 f   VImage.obj
 0001:00030370       ?dtor$1@?0???Ovips@@YA?AVVImage@0@V10@0@Z@4HA 0000000180031370 f   VImage.obj
 0001:00030370       ?dtor$0@?0??radload_source@VImage@vips@@SA?AV12@VVSource@2@PEAVVOption@2@@Z@4HA 0000000180031370 f   VImage.obj
 0001:00030370       ?dtor$0@?0???Ovips@@YA?AVVImage@0@V10@N@Z@4HA 0000000180031370 f   VImage.obj
 0001:00030370       ?dtor$1@?0???Kvips@@YA?AVVImage@0@V10@0@Z@4HA 0000000180031370 f   VImage.obj
 0001:00030370       ?dtor$1@?0???Uvips@@YA?AVVImage@0@V10@0@Z@4HA 0000000180031370 f   VImage.obj
 0001:00030370       ?dtor$1@?0???Lvips@@YA?AVVImage@0@V10@0@Z@4HA 0000000180031370 f   VImage.obj
 0001:00030370       ?dtor$0@?0??tiffload_source@VImage@vips@@SA?AV12@VVSource@2@PEAVVOption@2@@Z@4HA 0000000180031370 f   VImage.obj
 0001:00030370       ?dtor$0@?0???Nvips@@YA?AVVImage@0@V10@N@Z@4HA 0000000180031370 f   VImage.obj
 0001:00030370       ?dtor$0@?0??svgload_source@VImage@vips@@SA?AV12@VVSource@2@PEAVVOption@2@@Z@4HA 0000000180031370 f   VImage.obj
 0001:00030370       ?dtor$0@?0???Tvips@@YA?AVVImage@0@V10@N@Z@4HA 0000000180031370 f   VImage.obj
 0001:00030370       ?dtor$1@?0???Mvips@@YA?AVVImage@0@V10@0@Z@4HA 0000000180031370 f   VImage.obj
 0001:00030370       ?dtor$1@?0???5vips@@YA?AVVImage@0@V10@0@Z@4HA 0000000180031370 f   VImage.obj
 0001:00030370       ?dtor$1@?0???Gvips@@YA?AVVImage@0@V10@0@Z@4HA 0000000180031370 f   VImage.obj
 0001:00030370       ?dtor$0@?0???Pvips@@YA?AVVImage@0@V10@N@Z@4HA 0000000180031370 f   VImage.obj
 0001:00030370       ?dtor$0@?0???Uvips@@YA?AVVImage@0@V10@N@Z@4HA 0000000180031370 f   VImage.obj
 0001:00030370       ?dtor$1@?0???Nvips@@YA?AVVImage@0@V10@0@Z@4HA 0000000180031370 f   VImage.obj
 0001:00030370       ?dtor$0@?0???_6vips@@YAAEAVVImage@0@AEAV10@V10@@Z@4HA 0000000180031370 f   VImage.obj
 0001:00030370       ?dtor$0@?0???_5vips@@YAAEAVVImage@0@AEAV10@V10@@Z@4HA 0000000180031370 f   VImage.obj
 0001:00030370       ?dtor$0@?0???_4vips@@YAAEAVVImage@0@AEAV10@V10@@Z@4HA 0000000180031370 f   VImage.obj
 0001:00030370       ?dtor$0@?0???_3vips@@YAAEAVVImage@0@AEAV10@V10@@Z@4HA 0000000180031370 f   VImage.obj
 0001:00030370       ?dtor$0@?0???_2vips@@YAAEAVVImage@0@AEAV10@V10@@Z@4HA 0000000180031370 f   VImage.obj
 0001:00030370       ?dtor$0@?0???_1vips@@YAAEAVVImage@0@AEAV10@V10@@Z@4HA 0000000180031370 f   VImage.obj
 0001:00030370       ?dtor$0@?0???_0vips@@YAAEAVVImage@0@AEAV10@V10@@Z@4HA 0000000180031370 f   VImage.obj
 0001:00030370       ?dtor$0@?0???Zvips@@YAAEAVVImage@0@AEAV10@V10@@Z@4HA 0000000180031370 f   VImage.obj
 0001:00030370       ?dtor$0@?0???Yvips@@YAAEAVVImage@0@AEAV10@V10@@Z@4HA 0000000180031370 f   VImage.obj
 0001:00030370       ?dtor$0@?0???Xvips@@YAAEAVVImage@0@AEAV10@V10@@Z@4HA 0000000180031370 f   VImage.obj
 0001:00030370       ?dtor$0@?0???5vips@@YA?AVVImage@0@V10@N@Z@4HA 0000000180031370 f   VImage.obj
 0001:00030380       ?dtor$1@?0??webpload_source@VImage@vips@@SA?AV12@VVSource@2@PEAVVOption@2@@Z@4HA 0000000180031380 f   VImage.obj
 0001:00030380       ?dtor$1@?0??tiffload_source@VImage@vips@@SA?AV12@VVSource@2@PEAVVOption@2@@Z@4HA 0000000180031380 f   VImage.obj
 0001:00030380       ?dtor$1@?0??svgload_source@VImage@vips@@SA?AV12@VVSource@2@PEAVVOption@2@@Z@4HA 0000000180031380 f   VImage.obj
 0001:00030380       ?dtor$1@?0??radload_source@VImage@vips@@SA?AV12@VVSource@2@PEAVVOption@2@@Z@4HA 0000000180031380 f   VImage.obj
 0001:00030380       ?dtor$1@?0??pngload_source@VImage@vips@@SA?AV12@VVSource@2@PEAVVOption@2@@Z@4HA 0000000180031380 f   VImage.obj
 0001:00030380       ?dtor$1@?0??jpegload_source@VImage@vips@@SA?AV12@VVSource@2@PEAVVOption@2@@Z@4HA 0000000180031380 f   VImage.obj
 0001:000303b0       ?dtor$0@?0??webpsave_target@VImage@vips@@QEBAXVVTarget@2@PEAVVOption@2@@Z@4HA 00000001800313b0 f   VImage.obj
 0001:000303b0       ?dtor$0@?0??thumbnail_source@VImage@vips@@SA?AV12@VVSource@2@HPEAVVOption@2@@Z@4HA 00000001800313b0 f   VImage.obj
 0001:000303b0       ?dtor$0@?0??radsave_target@VImage@vips@@QEBAXVVTarget@2@PEAVVOption@2@@Z@4HA 00000001800313b0 f   VImage.obj
 0001:000303b0       ?dtor$0@?0??pngsave_target@VImage@vips@@QEBAXVVTarget@2@PEAVVOption@2@@Z@4HA 00000001800313b0 f   VImage.obj
 0001:000303b0       ?dtor$0@?0??jpegsave_target@VImage@vips@@QEBAXVVTarget@2@PEAVVOption@2@@Z@4HA 00000001800313b0 f   VImage.obj
 0001:000303b0       ?dtor$2@?0??jpegload_source@VImage@vips@@SA?AV12@VVSource@2@PEAVVOption@2@@Z@4HA 00000001800313b0 f   VImage.obj
 0001:000303b0       ?dtor$2@?0??pngload_source@VImage@vips@@SA?AV12@VVSource@2@PEAVVOption@2@@Z@4HA 00000001800313b0 f   VImage.obj
 0001:000303b0       ?dtor$2@?0??radload_source@VImage@vips@@SA?AV12@VVSource@2@PEAVVOption@2@@Z@4HA 00000001800313b0 f   VImage.obj
 0001:000303b0       ?dtor$2@?0??tiffload_source@VImage@vips@@SA?AV12@VVSource@2@PEAVVOption@2@@Z@4HA 00000001800313b0 f   VImage.obj
 0001:000303b0       ?dtor$2@?0??webpload_source@VImage@vips@@SA?AV12@VVSource@2@PEAVVOption@2@@Z@4HA 00000001800313b0 f   VImage.obj
 0001:000303b0       ?dtor$2@?0??svgload_source@VImage@vips@@SA?AV12@VVSource@2@PEAVVOption@2@@Z@4HA 00000001800313b0 f   VImage.obj
 0001:000303c0       ?dtor$0@?0??linear@VImage@vips@@QEBA?AV12@V?$vector@NV?$allocator@N@std@@@std@@0PEAVVOption@2@@Z@4HA 00000001800313c0 f   VImage.obj
 0001:000303d0       ?dtor$1@?0??linear@VImage@vips@@QEBA?AV12@V?$vector@NV?$allocator@N@std@@@std@@0PEAVVOption@2@@Z@4HA 00000001800313d0 f   VImage.obj
 0001:000303e0       ?dtor$2@?0??linear@VImage@vips@@QEBA?AV12@V?$vector@NV?$allocator@N@std@@@std@@0PEAVVOption@2@@Z@4HA 00000001800313e0 f   VImage.obj
 0001:00030410       ?dtor$0@?0??reduce@VImage@vips@@QEBA?AV12@NNPEAVVOption@2@@Z@4HA 0000000180031410 f   VImage.obj
 0001:00030410       ?dtor$0@?0??shrink@VImage@vips@@QEBA?AV12@NNPEAVVOption@2@@Z@4HA 0000000180031410 f   VImage.obj
 0001:00030440       ?dtor$1@?0??thumbnail_source@VImage@vips@@SA?AV12@VVSource@2@HPEAVVOption@2@@Z@4HA 0000000180031440 f   VImage.obj
 0001:00030470       ?dtor$0@?0??bandsplit@VImage@vips@@QEBA?AV?$vector@VVImage@vips@@V?$allocator@VVImage@vips@@@std@@@std@@PEAVVOption@2@@Z@4HA 0000000180031470 f   VImage.obj
 0001:000304a0       ?dtor$2@?0??bandsplit@VImage@vips@@QEBA?AV?$vector@VVImage@vips@@V?$allocator@VVImage@vips@@@std@@@std@@PEAVVOption@2@@Z@4HA 00000001800314a0 f   VImage.obj
 0001:000304d0       ?dtor$3@?0??bandjoin@VImage@vips@@QEBA?AV12@V12@PEAVVOption@2@@Z@4HA 00000001800314d0 f   VImage.obj
 0001:00030500       ?dtor$4@?0??bandjoin@VImage@vips@@QEBA?AV12@V12@PEAVVOption@2@@Z@4HA 0000000180031500 f   VImage.obj
 0001:00030510       ?dtor$6@?0??bandjoin@VImage@vips@@QEBA?AV12@V12@PEAVVOption@2@@Z@4HA 0000000180031510 f   VImage.obj
 0001:00030540       ?dtor$0@?0??composite@VImage@vips@@QEBA?AV12@V12@W4VipsBlendMode@@PEAVVOption@2@@Z@4HA 0000000180031540 f   VImage.obj
 0001:00030550       ?dtor$3@?0??composite@VImage@vips@@QEBA?AV12@V12@W4VipsBlendMode@@PEAVVOption@2@@Z@4HA 0000000180031550 f   VImage.obj
 0001:00030580       ?dtor$4@?0??composite@VImage@vips@@QEBA?AV12@V12@W4VipsBlendMode@@PEAVVOption@2@@Z@4HA 0000000180031580 f   VImage.obj
 0001:00030590       ?dtor$5@?0??composite@VImage@vips@@QEBA?AV12@V12@W4VipsBlendMode@@PEAVVOption@2@@Z@4HA 0000000180031590 f   VImage.obj
 0001:000305a0       ?dtor$6@?0??composite@VImage@vips@@QEBA?AV12@V12@W4VipsBlendMode@@PEAVVOption@2@@Z@4HA 00000001800315a0 f   VImage.obj
 0001:000305b0       ?dtor$8@?0??composite@VImage@vips@@QEBA?AV12@V12@W4VipsBlendMode@@PEAVVOption@2@@Z@4HA 00000001800315b0 f   VImage.obj
 0001:000305e0       ?dtor$0@?0???Gvips@@YA?AVVImage@0@NV10@@Z@4HA 00000001800315e0 f   VImage.obj
 0001:000305e0       ?dtor$0@?0???Hvips@@YA?AVVImage@0@NV10@@Z@4HA 00000001800315e0 f   VImage.obj
 0001:000305e0       ?dtor$0@?0???Dvips@@YA?AVVImage@0@NV10@@Z@4HA 00000001800315e0 f   VImage.obj
 0001:000305f0       ?dtor$1@?0???Dvips@@YA?AVVImage@0@V?$vector@NV?$allocator@N@std@@@std@@V10@@Z@4HA 00000001800315f0 f   VImage.obj
 0001:000305f0       ?dtor$0@?0???_1vips@@YAAEAVVImage@0@AEAV10@V?$vector@NV?$allocator@N@std@@@std@@@Z@4HA 00000001800315f0 f   VImage.obj
 0001:000305f0       ?dtor$0@?0???_2vips@@YAAEAVVImage@0@AEAV10@V?$vector@NV?$allocator@N@std@@@std@@@Z@4HA 00000001800315f0 f   VImage.obj
 0001:000305f0       ?dtor$0@?0???_3vips@@YAAEAVVImage@0@AEAV10@V?$vector@NV?$allocator@N@std@@@std@@@Z@4HA 00000001800315f0 f   VImage.obj
 0001:000305f0       ?dtor$1@?0???Mvips@@YA?AVVImage@0@V?$vector@NV?$allocator@N@std@@@std@@V10@@Z@4HA 00000001800315f0 f   VImage.obj
 0001:000305f0       ?dtor$1@?0???Pvips@@YA?AVVImage@0@V?$vector@NV?$allocator@N@std@@@std@@V10@@Z@4HA 00000001800315f0 f   VImage.obj
 0001:000305f0       ?dtor$1@?0???9vips@@YA?AVVImage@0@V?$vector@NV?$allocator@N@std@@@std@@V10@@Z@4HA 00000001800315f0 f   VImage.obj
 0001:000305f0       ?dtor$1@?0???Hvips@@YA?AVVImage@0@V?$vector@NV?$allocator@N@std@@@std@@V10@@Z@4HA 00000001800315f0 f   VImage.obj
 0001:000305f0       ?dtor$0@?0???_4vips@@YAAEAVVImage@0@AEAV10@V?$vector@NV?$allocator@N@std@@@std@@@Z@4HA 00000001800315f0 f   VImage.obj
 0001:000305f0       ?dtor$0@?0???_5vips@@YAAEAVVImage@0@AEAV10@V?$vector@NV?$allocator@N@std@@@std@@@Z@4HA 00000001800315f0 f   VImage.obj
 0001:000305f0       ?dtor$1@?0???Ovips@@YA?AVVImage@0@V?$vector@NV?$allocator@N@std@@@std@@V10@@Z@4HA 00000001800315f0 f   VImage.obj
 0001:000305f0       ?dtor$0@?0???_0vips@@YAAEAVVImage@0@AEAV10@V?$vector@NV?$allocator@N@std@@@std@@@Z@4HA 00000001800315f0 f   VImage.obj
 0001:000305f0       ?dtor$0@?0???Xvips@@YAAEAVVImage@0@AEAV10@V?$vector@NV?$allocator@N@std@@@std@@@Z@4HA 00000001800315f0 f   VImage.obj
 0001:000305f0       ?dtor$1@?0???Uvips@@YA?AVVImage@0@V?$vector@NV?$allocator@N@std@@@std@@V10@@Z@4HA 00000001800315f0 f   VImage.obj
 0001:000305f0       ?dtor$0@?0???_6vips@@YAAEAVVImage@0@AEAV10@V?$vector@NV?$allocator@N@std@@@std@@@Z@4HA 00000001800315f0 f   VImage.obj
 0001:000305f0       ?dtor$1@?0???8vips@@YA?AVVImage@0@V?$vector@NV?$allocator@N@std@@@std@@V10@@Z@4HA 00000001800315f0 f   VImage.obj
 0001:000305f0       ?dtor$1@?0???Gvips@@YA?AVVImage@0@V?$vector@NV?$allocator@N@std@@@std@@V10@@Z@4HA 00000001800315f0 f   VImage.obj
 0001:000305f0       ?dtor$0@?0???Zvips@@YAAEAVVImage@0@AEAV10@V?$vector@NV?$allocator@N@std@@@std@@@Z@4HA 00000001800315f0 f   VImage.obj
 0001:000305f0       ?dtor$0@?0???Yvips@@YAAEAVVImage@0@AEAV10@V?$vector@NV?$allocator@N@std@@@std@@@Z@4HA 00000001800315f0 f   VImage.obj
 0001:000305f0       ?dtor$1@?0???Nvips@@YA?AVVImage@0@V?$vector@NV?$allocator@N@std@@@std@@V10@@Z@4HA 00000001800315f0 f   VImage.obj
 0001:000305f0       ?dtor$1@?0???Tvips@@YA?AVVImage@0@V?$vector@NV?$allocator@N@std@@@std@@V10@@Z@4HA 00000001800315f0 f   VImage.obj
 0001:000305f0       ?dtor$1@?0???Ivips@@YA?AVVImage@0@V?$vector@NV?$allocator@N@std@@@std@@V10@@Z@4HA 00000001800315f0 f   VImage.obj
 0001:00030600       ?dtor$1@?0???Gvips@@YA?AVVImage@0@V10@V?$vector@NV?$allocator@N@std@@@std@@@Z@4HA 0000000180031600 f   VImage.obj
 0001:00030600       ?dtor$1@?0???Kvips@@YA?AVVImage@0@V10@V?$vector@NV?$allocator@N@std@@@std@@@Z@4HA 0000000180031600 f   VImage.obj
 0001:00030610       ?dtor$1@?0???Kvips@@YA?AVVImage@0@NV10@@Z@4HA 0000000180031610 f   VImage.obj
 0001:00030620       ?dtor$3@?0???Kvips@@YA?AVVImage@0@V?$vector@NV?$allocator@N@std@@@std@@V10@@Z@4HA 0000000180031620 f   VImage.obj
 0001:0003062c       ?fin$0@?0???_M@YAXPEAX_K1P6AX0@Z@Z@4HA 000000018003162c f   LIBCMT:ehvecdtr.obj
 0001:00030658       ?filt$0@?0??__ArrayUnwind@@YAXPEAX_K1P6AX0@Z@Z@4HA 0000000180031658 f   LIBCMT:ehvecdtr.obj
 0001:00030699       ?fin$0@?0??dllmain_crt_process_attach@@YAHQEAUHINSTANCE__@@QEAX@Z@4HA 0000000180031699 f   LIBCMT:dll_dllmain.obj
 0001:000306b0       ?fin$0@?0??dllmain_crt_process_detach@@YAH_N@Z@4HA 00000001800316b0 f   LIBCMT:dll_dllmain.obj
 0001:000306cc       ?filt$0@?0??dllmain_dispatch@@YAHQEAUHINSTANCE__@@KQEAX@Z@4HA 00000001800316cc f   LIBCMT:dll_dllmain.obj
 0001:00030702       __scrt_is_nonwritable_in_current_image$filt$0 0000000180031702 f   LIBCMT:utility.obj
 0001:0003071a       ?filt$0@?0???$_CallSETranslator@V__FrameHandler3@@@@YAHPEAUEHExceptionRecord@@PEA_KPEAU_CONTEXT@@PEAU_xDISPATCHER_CONTEXT@@PEBU_s_FuncInfo@@K1@Z@4HA 000000018003171a f   libvcruntime:risctrnsctrl.obj
 0001:000307ab       __DestructExceptionObject$filt$0 00000001800317ab f   libvcruntime:ehhelpers.obj
 0001:000307c3       ?filt$0@?0??CxxCallCatchBlock@__FrameHandler3@@SAPEAXPEAU_EXCEPTION_RECORD@@@Z@4HA 00000001800317c3 f   libvcruntime:frame.obj
 0001:000307e8       ?fin$1@?0??CxxCallCatchBlock@__FrameHandler3@@SAPEAXPEAU_EXCEPTION_RECORD@@@Z@4HA 00000001800317e8 f   libvcruntime:frame.obj
 0001:00030860       ?filt$0@?0??FrameUnwindToState@__FrameHandler3@@SAXPEA_KPEAU_xDISPATCHER_CONTEXT@@PEBU_s_FuncInfo@@H@Z@4HA 0000000180031860 f   libvcruntime:frame.obj
 0001:00030876       ?fin$1@?0??FrameUnwindToState@__FrameHandler3@@SAXPEA_KPEAU_xDISPATCHER_CONTEXT@@PEBU_s_FuncInfo@@H@Z@4HA 0000000180031876 f   libvcruntime:frame.obj
 0001:00030899       _query_new_handler$fin$0   0000000180031899 f   libucrt:new_handler.obj
 0001:000308af       ?fin$0@?0???$?RV<lambda_d80eeec6fff315bfe5c115232f3240e3>@@AEAV<lambda_6e4b09c48022b2350581041d5f6b0c4c>@@V<lambda_2358e3775559c9db80273638284d5e45>@@@?$__crt_seh_guarded_call@X@@QEAAX$$QEAV<lambda_d80eeec6fff315bfe5c115232f3240e3>@@AEAV<lambda_6e4b09c48022b2350581041d5f6b0c4c>@@$$QEAV<lambda_2358e3775559c9db80273638284d5e45>@@@Z@4HA 00000001800318af f   libucrt:exit.obj
 0001:000308af       ?fin$0@?0???$?RV<lambda_f2e299630e499de9f9a165e60fcd3db5>@@AEAV<lambda_2ae9d31cdba2644fcbeaf08da7c24588>@@V<lambda_40d01ff24d0e7b3814fdbdcee8eab3c7>@@@?$__crt_seh_guarded_call@X@@QEAAX$$QEAV<lambda_f2e299630e499de9f9a165e60fcd3db5>@@AEAV<lambda_2ae9d31cdba2644fcbeaf08da7c24588>@@$$QEAV<lambda_40d01ff24d0e7b3814fdbdcee8eab3c7>@@@Z@4HA 00000001800318af f   libucrt:per_thread_data.obj
 0001:000308af       ?fin$0@?0???$?RV<lambda_efdfa57d1f175319df784efa44bb7b81>@@AEAV<lambda_5f0a4c1567f8adc6734073e5d1e1b35c>@@V<lambda_2e8a7d3640ea6ccb4c2413664c2db6fd>@@@?$__crt_seh_guarded_call@X@@QEAAX$$QEAV<lambda_efdfa57d1f175319df784efa44bb7b81>@@AEAV<lambda_5f0a4c1567f8adc6734073e5d1e1b35c>@@$$QEAV<lambda_2e8a7d3640ea6ccb4c2413664c2db6fd>@@@Z@4HA 00000001800318af f   libucrt:mbctype.obj
 0001:000308af       ?fin$0@?0???$?RV<lambda_450d765d439847d4c735a33c368b5fc0>@@AEAV<lambda_44731a7d0e6d81c3e6aa82d741081786>@@V<lambda_601a2a7da3b7a96e9554ac7215c4b07c>@@@?$__crt_seh_guarded_call@P6AXH@Z@@QEAAP6AXH@Z$$QEAV<lambda_450d765d439847d4c735a33c368b5fc0>@@AEAV<lambda_44731a7d0e6d81c3e6aa82d741081786>@@$$QEAV<lambda_601a2a7da3b7a96e9554ac7215c4b07c>@@@Z@4HA 00000001800318af f   libucrt:signal.obj
 0001:000308af       ?fin$0@?0???$?RV<lambda_2d41944a1d46af3157314b8a01080d33>@@AEAV<lambda_8f455de75cd7d7f24b4096f044d8b9e6>@@V<lambda_aa500f224e6afead328df44964fe2772>@@@?$__crt_seh_guarded_call@X@@QEAAX$$QEAV<lambda_2d41944a1d46af3157314b8a01080d33>@@AEAV<lambda_8f455de75cd7d7f24b4096f044d8b9e6>@@$$QEAV<lambda_aa500f224e6afead328df44964fe2772>@@@Z@4HA 00000001800318af f   libucrt:per_thread_data.obj
 0001:000308af       ?fin$0@?0???$?RV<lambda_7777bce6b2f8c936911f934f8298dc43>@@AEAV<lambda_f03950bc5685219e0bcd2087efbe011e>@@V<lambda_3883c3dff614d5e0c5f61bb1ac94921c>@@@?$__crt_seh_guarded_call@H@@QEAAH$$QEAV<lambda_7777bce6b2f8c936911f934f8298dc43>@@AEAV<lambda_f03950bc5685219e0bcd2087efbe011e>@@$$QEAV<lambda_3883c3dff614d5e0c5f61bb1ac94921c>@@@Z@4HA 00000001800318af f   libucrt:onexit.obj
 0001:000308af       ?fin$0@?0???$?RV<lambda_0ae27a3a962d80f24befdcbee591983d>@@AEAV<lambda_8d0ee55de4b1038c4002e0adecdf1839>@@V<lambda_dc504788e8f1664fe9b84e20bfb512f2>@@@?$__crt_seh_guarded_call@X@@QEAAX$$QEAV<lambda_0ae27a3a962d80f24befdcbee591983d>@@AEAV<lambda_8d0ee55de4b1038c4002e0adecdf1839>@@$$QEAV<lambda_dc504788e8f1664fe9b84e20bfb512f2>@@@Z@4HA 00000001800318af f   libucrt:per_thread_data.obj
 0001:000308af       ?fin$0@?0???$?RV<lambda_aa87e3671a710a21b5dc78c0bdf72e11>@@AEAV<lambda_92619d2358a28f41a33ba319515a20b9>@@V<lambda_6992ecaafeb10aed2b74cb1fae11a551>@@@?$__crt_seh_guarded_call@X@@QEAAX$$QEAV<lambda_aa87e3671a710a21b5dc78c0bdf72e11>@@AEAV<lambda_92619d2358a28f41a33ba319515a20b9>@@$$QEAV<lambda_6992ecaafeb10aed2b74cb1fae11a551>@@@Z@4HA 00000001800318af f   libucrt:per_thread_data.obj
 0001:000308c9       ?filt$0@?0???R<lambda_6e4b09c48022b2350581041d5f6b0c4c>@@QEBA@XZ@4HA 00000001800318c9 f   libucrt:exit.obj
 0001:000308e4       ?fin$0@?0???$?RV<lambda_410d79af7f07d98d83a3f525b3859a53>@@AEAV<lambda_3e16ef9562a7dcce91392c22ab16ea36>@@V<lambda_38119f0e861e05405d8a144b9b982f0a>@@@?$__crt_seh_guarded_call@X@@QEAAX$$QEAV<lambda_410d79af7f07d98d83a3f525b3859a53>@@AEAV<lambda_3e16ef9562a7dcce91392c22ab16ea36>@@$$QEAV<lambda_38119f0e861e05405d8a144b9b982f0a>@@@Z@4HA 00000001800318e4 f   libucrt:wsetlocale.obj
 0001:000308fe       ?fin$0@?0??update_thread_multibyte_data_internal@@YAPEAU__crt_multibyte_data@@QEAU__acrt_ptd@@QEAPEAU1@@Z@4HA 00000001800318fe f   libucrt:mbctype.obj
 0001:00030917       __acrt_lowio_ensure_fh_exists$fin$0 0000000180031917 f   libucrt:osfinfo.obj
 0001:00030917       __acrt_initialize_lowio$fin$0 0000000180031917 f   libucrt:ioinit.obj
 0001:00030930       raise$fin$0                0000000180031930 f   libucrt:signal.obj
 0001:00030951       ?fin$0@?0???$?RV<lambda_842d9ff0dc9ef11c61343bbaebe7f885>@@AEAV<lambda_c5860995281e5c4ce005b3de8f5874ee>@@V<lambda_d90129c13df834fdcbf8d2b88dafcf2d>@@@?$__crt_seh_guarded_call@X@@QEAAX$$QEAV<lambda_842d9ff0dc9ef11c61343bbaebe7f885>@@AEAV<lambda_c5860995281e5c4ce005b3de8f5874ee>@@$$QEAV<lambda_d90129c13df834fdcbf8d2b88dafcf2d>@@@Z@4HA 0000000180031951 f   libucrt:fflush.obj
 0001:0003096c       ?fin$0@?0???$?RV<lambda_886d6c58226a84441f68b9f2b8217b83>@@AEAV<lambda_ab61a845afdef5b7c387490eaf3616ee>@@V<lambda_f7f22ab5edc0698d5f6905b0d3f44752>@@@?$__crt_seh_guarded_call@X@@QEAAX$$QEAV<lambda_886d6c58226a84441f68b9f2b8217b83>@@AEAV<lambda_ab61a845afdef5b7c387490eaf3616ee>@@$$QEAV<lambda_f7f22ab5edc0698d5f6905b0d3f44752>@@@Z@4HA 000000018003196c f   libucrt:fflush.obj
 0001:00030989       __acrt_update_thread_locale_data$fin$0 0000000180031989 f   libucrt:locale_refcounting.obj
 0001:000309a2       ?fin$0@?0???$?RV<lambda_a37b2b86f63e897a80ea819b0eb08c01>@@AEAV<lambda_38ce7e780aa69e748d6df282ebc68efe>@@V<lambda_99fb1378e971ab6e7edea83e3a7a83a2>@@@?$__crt_seh_guarded_call@H@@QEAAH$$QEAV<lambda_a37b2b86f63e897a80ea819b0eb08c01>@@AEAV<lambda_38ce7e780aa69e748d6df282ebc68efe>@@$$QEAV<lambda_99fb1378e971ab6e7edea83e3a7a83a2>@@@Z@4HA 00000001800319a2 f   libucrt:commit.obj
 0001:000309a2       ?fin$0@?0???$?RV<lambda_751a882b2c74d4b022dec766aa51a29a>@@AEAV<lambda_628dfdc04ba53c8bfc02c9951375f3f5>@@V<lambda_f6c7be5f7998530c34de24c7437d6b54>@@@?$__crt_seh_guarded_call@H@@QEAAH$$QEAV<lambda_751a882b2c74d4b022dec766aa51a29a>@@AEAV<lambda_628dfdc04ba53c8bfc02c9951375f3f5>@@$$QEAV<lambda_f6c7be5f7998530c34de24c7437d6b54>@@@Z@4HA 00000001800319a2 f   libucrt:close.obj
 0001:000309bc       _write$fin$0               00000001800319bc f   libucrt:write.obj
 0001:000309d3       _fcloseall$fin$0           00000001800319d3 f   libucrt:closeall.obj
 0001:000309ec       fclose$fin$0               00000001800319ec f   libucrt:fclose.obj
 0001:00030a04       _ctrlfp$filt$0             0000000180031a04 f   libucrt:fpctrl.obj
 0001:00030a30       _IsNonwritableInCurrentImage$filt$0 0000000180031a30 f   LIBCMT:pesect.obj
 0002:00000230       .idata$5                   0000000180032230     libvips:desubs00711.o
 0002:00000238       .idata$5                   0000000180032238     libvips:desubs00890.o
 0002:00000240       .idata$5                   0000000180032240     libvips:desubs00904.o
 0002:00000248       .idata$5                   0000000180032248     libvips:desubs00910.o
 0002:00000250       .idata$5                   0000000180032250     libvips:desubs00915.o
 0002:00000258       .idata$5                   0000000180032258     libvips:desubs00961.o
 0002:00000260       .idata$5                   0000000180032260     libvips:desubs00962.o
 0002:00000268       .idata$5                   0000000180032268     libvips:desubs01015.o
 0002:00000270       .idata$5                   0000000180032270     libvips:desubs01230.o
 0002:00000278       .idata$5                   0000000180032278     libvips:desubs01240.o
 0002:00000280       .idata$5                   0000000180032280     libvips:desubs01242.o
 0002:00000288       .idata$5                   0000000180032288     libvips:desubs01289.o
 0002:00000290       .idata$5                   0000000180032290     libvips:desubs01290.o
 0002:00000298       .idata$5                   0000000180032298     libvips:desubs01291.o
 0002:000002a0       .idata$5                   00000001800322a0     libvips:desubs01292.o
 0002:000002a8       .idata$5                   00000001800322a8     libvips:desubs01293.o
 0002:000002b0       .idata$5                   00000001800322b0     libvips:desubs01294.o
 0002:000002b8       .idata$5                   00000001800322b8     libvips:desubs01390.o
 0002:000002c0       .idata$5                   00000001800322c0     libvips:desubs01487.o
 0002:000002c8       .idata$5                   00000001800322c8     libvips:desubs01495.o
 0002:000002d0       .idata$5                   00000001800322d0     libvips:desubs01497.o
 0002:000002d8       .idata$5                   00000001800322d8     libvips:desubs01498.o
 0002:000002e0       .idata$5                   00000001800322e0     libvips:desubs01499.o
 0002:000002e8       .idata$5                   00000001800322e8     libvips:desubs01500.o
 0002:000002f0       .idata$5                   00000001800322f0     libvips:desubs01501.o
 0002:000002f8       .idata$5                   00000001800322f8     libvips:desubs01503.o
 0002:00000300       .idata$5                   0000000180032300     libvips:desubs01504.o
 0002:00000308       .idata$5                   0000000180032308     libvips:desubs01505.o
 0002:00000310       .idata$5                   0000000180032310     libvips:desubs01508.o
 0002:00000318       .idata$5                   0000000180032318     libvips:desubs01509.o
 0002:00000320       .idata$5                   0000000180032320     libvips:desubs01515.o
 0002:00000328       .idata$5                   0000000180032328     libvips:desubs01516.o
 0002:00000330       .idata$5                   0000000180032330     libvips:desubs01517.o
 0002:00000338       .idata$5                   0000000180032338     libvips:desubs01518.o
 0002:00000340       .idata$5                   0000000180032340     libvips:desubs01519.o
 0002:00000348       .idata$5                   0000000180032348     libvips:desubs01520.o
 0002:00000350       .idata$5                   0000000180032350     libvips:desubs01521.o
 0002:00000358       .idata$5                   0000000180032358     libvips:desubs01522.o
 0002:00000360       .idata$5                   0000000180032360     libvips:desubs01524.o
 0002:00000368       .idata$5                   0000000180032368     libvips:desubs01525.o
 0002:00000370       .idata$5                   0000000180032370     libvips:desubs01547.o
 0002:00000378       .idata$5                   0000000180032378     libvips:desubs01549.o
 0002:00000380       .idata$5                   0000000180032380     libvips:desubs01552.o
 0002:00000388       .idata$5                   0000000180032388     libvips:desubs01553.o
 0002:00000390       .idata$5                   0000000180032390     libvips:desubs01555.o
 0002:00000398       .idata$5                   0000000180032398     libvips:desubs01557.o
 0002:000003a0       .idata$5                   00000001800323a0     libvips:desubs01567.o
 0002:000003a8       .idata$5                   00000001800323a8     libvips:desubs01570.o
 0002:000003b0       .idata$5                   00000001800323b0     libvips:desubs01571.o
 0002:000003b8       .idata$5                   00000001800323b8     libvips:desubs01574.o
 0002:000003c0       .idata$5                   00000001800323c0     libvips:desubs01576.o
 0002:000003c8       .idata$5                   00000001800323c8     libvips:desubs01579.o
 0002:000003d0       .idata$5                   00000001800323d0     libvips:desubs01583.o
 0002:000003d8       .idata$5                   00000001800323d8     libvips:desubs01588.o
 0002:000003e0       .idata$5                   00000001800323e0     libvips:desubs01604.o
 0002:000003e8       .idata$5                   00000001800323e8     libvips:desubs01611.o
 0002:000003f0       .idata$5                   00000001800323f0     libvips:desubs01742.o
 0002:000003f8       .idata$5                   00000001800323f8     libvips:desubs01748.o
 0002:00000400       .idata$5                   0000000180032400     libvips:desubs01765.o
 0002:00000408       .idata$5                   0000000180032408     libvips:desubs01772.o
 0002:00000410       .idata$5                   0000000180032410     libvips:desubs01787.o
 0002:00000418       .idata$5                   0000000180032418     libvips:desubs02007.o
 0002:00000420       .idata$5                   0000000180032420     libvips:desubs02013.o
 0002:00000428       .idata$5                   0000000180032428     libvips:desubs02014.o
 0002:00000430       .idata$5                   0000000180032430     libvips:desubs02015.o
 0002:00000438       .idata$5                   0000000180032438     libvips:desubs02016.o
 0002:00000440       .idata$5                   0000000180032440     libvips:desubs02017.o
 0002:00000448       .idata$5                   0000000180032448     libvips:desubs02057.o
 0002:00000450       .idata$5                   0000000180032450     libvips:desubs02058.o
 0002:00000458       .idata$5                   0000000180032458     libvips:desubs02059.o
 0002:00000460       .idata$5                   0000000180032460     libvips:desubs02060.o
 0002:00000468       .idata$5                   0000000180032468     libvips:desubs02120.o
 0002:00000470       .idata$5                   0000000180032470     libvips:desubs02121.o
 0002:00000478       .idata$5                   0000000180032478     libvips:desubs02122.o
 0002:00000480       .idata$5                   0000000180032480     libvips:desubs02130.o
 0002:00000488       .idata$5                   0000000180032488     libvips:desubs02131.o
 0002:00000490       .idata$5                   0000000180032490     libvips:desubs02132.o
 0002:000004a0       .idata$5                   00000001800324a0     libglib-2.0:dnoubs00046.o
 0002:000004a8       .idata$5                   00000001800324a8     libglib-2.0:dnoubs00662.o
 0002:000004b8       .idata$5                   00000001800324b8     libgobject-2.0:dxoubs00129.o
 0002:000004c0       .idata$5                   00000001800324c0     libgobject-2.0:dxoubs00144.o
 0002:000004c8       .idata$5                   00000001800324c8     libgobject-2.0:dxoubs00154.o
 0002:000004d0       .idata$5                   00000001800324d0     libgobject-2.0:dxoubs00162.o
 0002:000004d8       .idata$5                   00000001800324d8     libgobject-2.0:dxoubs00203.o
 0002:000004e0       .idata$5                   00000001800324e0     libgobject-2.0:dxoubs00278.o
 0002:000004e8       .idata$5                   00000001800324e8     libgobject-2.0:dxoubs00279.o
 0002:000004f0       .idata$5                   00000001800324f0     libgobject-2.0:dxoubs00363.o
 0002:000004f8       .idata$5                   00000001800324f8     libgobject-2.0:dxoubs00369.o
 0002:00000500       .idata$5                   0000000180032500     libgobject-2.0:dxoubs00372.o
 0002:00000508       .idata$5                   0000000180032508     libgobject-2.0:dxoubs00377.o
 0002:00000510       .idata$5                   0000000180032510     libgobject-2.0:dxoubs00380.o
 0002:00000518       .idata$5                   0000000180032518     libgobject-2.0:dxoubs00384.o
 0002:00000520       .idata$5                   0000000180032520     libgobject-2.0:dxoubs00391.o
 0002:00000528       .idata$5                   0000000180032528     libgobject-2.0:dxoubs00396.o
 0002:00000530       .idata$5                   0000000180032530     libgobject-2.0:dxoubs00397.o
 0002:00000538       .idata$5                   0000000180032538     libgobject-2.0:dxoubs00400.o
 0002:00000540       .idata$5                   0000000180032540     libgobject-2.0:dxoubs00401.o
 0002:00000548       .idata$5                   0000000180032548     libgobject-2.0:dxoubs00406.o
 0002:00000550       .idata$5                   0000000180032550     libgobject-2.0:dxoubs00409.o
 0002:00000558       .idata$5                   0000000180032558     libgobject-2.0:dxoubs00417.o
 0002:00000560       .idata$5                   0000000180032560     libgobject-2.0:dxoubs00432.o
 0002:00000598       ?pinit@@3P6AHXZEA          0000000180032598     libcpmt:winapisupp.obj
 0002:000006d0       ?_Win_errtab@std@@3QBU_Win_errtab_t@1@B 00000001800326d0     libcpmt:syserror.obj
 0002:00000940       ?_Sys_errtab@std@@3QBU_Sys_errtab_t@1@B 0000000180032940     libcpmt:syserror.obj
 0002:000018e0       GS_ExceptionPointers       00000001800338e0     LIBCMT:gs_report.obj
 0002:00001920       ?ExceptionTemplate@?1??UnwindNestedFrames@__FrameHandler3@@SAXPEA_KPEAUEHExceptionRecord@@PEAU_CONTEXT@@0PEAXPEBU_s_FuncInfo@@HHPEBU_s_HandlerType@@PEAU_xDISPATCHER_CONTEXT@@E@Z@4U_EXCEPTION_RECORD@@B 0000000180033920     libvcruntime:risctrnsctrl.obj
 0002:000019c0       ?ExceptionTemplate@?1??_CxxThrowException@@9@4UEHExceptionRecord@@B 00000001800339c0     libvcruntime:throw.obj
 0002:00001a30       ?tokenTable@@3QBQEBDB      0000000180033a30     libvcruntime:undname.obj
 0002:00001ab0       ?nameTable@@3QBQEBDB       0000000180033ab0     libvcruntime:undname.obj
 0002:00001d40       ?rttiTable@@3QBQEBDB       0000000180033d40     libvcruntime:undname.obj
 0002:000023f8       ?module_names@?A0x14c33c87@@3QBQEB_WB 00000001800343f8     libvcruntime:winapi_downlevel.obj
 0002:000024c8       ?candidate_modules@?1??try_get_FlsAlloc@@YAP6AKP6AXPEAX@Z@ZXZ@4QBW4module_id@?A0x14c33c87@@B 00000001800344c8     libvcruntime:winapi_downlevel.obj
 0002:000024d0       ?candidate_modules@?1??try_get_FlsFree@@YAP6AHK@ZXZ@4QBW4module_id@?A0x14c33c87@@B 00000001800344d0     libvcruntime:winapi_downlevel.obj
 0002:000024d8       ?candidate_modules@?1??try_get_FlsGetValue@@YAP6APEAXK@ZXZ@4QBW4module_id@?A0x14c33c87@@B 00000001800344d8     libvcruntime:winapi_downlevel.obj
 0002:000024e0       ?candidate_modules@?1??try_get_FlsSetValue@@YAP6AHKPEAX@ZXZ@4QBW4module_id@?A0x14c33c87@@B 00000001800344e0     libvcruntime:winapi_downlevel.obj
 0002:000024e8       ?candidate_modules@?1??try_get_InitializeCriticalSectionEx@@YAP6AHPEAU_RTL_CRITICAL_SECTION@@KK@ZXZ@4QBW4module_id@?A0x14c33c87@@B 00000001800344e8     libvcruntime:winapi_downlevel.obj
 0002:000025f0       __acrt_initializers        00000001800345f0     libucrt:initialization.obj
 0002:000026f0       ?errtable@@3QBUerrentry@?A0x31fdb9ec@@B 00000001800346f0     libucrt:errno.obj
 0002:00002ee0       ?_mb_locale_names@@3QBQEB_WB 0000000180034ee0     libucrt:mbctype.obj
 0002:00002f40       ?module_names@?A0x391cf84c@@3QBQEB_WB 0000000180034f40     libucrt:winapi_thunks.obj
 0002:000034e8       ?candidate_modules@?1??try_get_AreFileApisANSI@@YAP6AHXZXZ@4QBW4module_id@?A0x391cf84c@@B 00000001800354e8     libucrt:winapi_thunks.obj
 0002:00003500       ?candidate_modules@?1??try_get_FlsAlloc@@YAP6AKP6AXPEAX@Z@ZXZ@4QBW4module_id@?A0x391cf84c@@B 0000000180035500     libucrt:winapi_thunks.obj
 0002:00003518       ?candidate_modules@?1??try_get_FlsFree@@YAP6AHK@ZXZ@4QBW4module_id@?A0x391cf84c@@B 0000000180035518     libucrt:winapi_thunks.obj
 0002:00003528       ?candidate_modules@?1??try_get_FlsGetValue@@YAP6APEAXK@ZXZ@4QBW4module_id@?A0x391cf84c@@B 0000000180035528     libucrt:winapi_thunks.obj
 0002:00003540       ?candidate_modules@?1??try_get_FlsSetValue@@YAP6AHKPEAX@ZXZ@4QBW4module_id@?A0x391cf84c@@B 0000000180035540     libucrt:winapi_thunks.obj
 0002:00003558       ?candidate_modules@?1??try_get_InitializeCriticalSectionEx@@YAP6AHPEAU_RTL_CRITICAL_SECTION@@KK@ZXZ@4QBW4module_id@?A0x391cf84c@@B 0000000180035558     libucrt:winapi_thunks.obj
 0002:00003580       ?candidate_modules@?1??try_get_LCMapStringEx@@YAP6AHPEB_WK0HPEA_WHPEAU_nlsversioninfo@@PEAX_J@ZXZ@4QBW4module_id@?A0x391cf84c@@B 0000000180035580     libucrt:winapi_thunks.obj
 0002:00003598       ?candidate_modules@?1??try_get_LocaleNameToLCID@@YAP6AKPEB_WK@ZXZ@4QBW4module_id@?A0x391cf84c@@B 0000000180035598     libucrt:winapi_thunks.obj
 0002:000035b4       ?candidate_modules@?1??try_get_AppPolicyGetProcessTerminationMethod@@YAP6AJPEAXPEAW4AppPolicyProcessTerminationMethod@@@ZXZ@4QBW4module_id@?A0x391cf84c@@B 00000001800355b4     libucrt:winapi_thunks.obj
 0002:00003bf0       ?LcidToLocaleNameTable@?A0x881e4c05@@3QBULcidToLocaleName@1@B 0000000180035bf0     libucrt:lcidtoname_downlevel.obj
 0002:00005650       ?LocaleNameToIndexTable@?A0x881e4c05@@3QBULocaleNameIndex@1@B 0000000180037650     libucrt:lcidtoname_downlevel.obj
 0002:00006ef0       __real_ninf                0000000180038ef0     libucrt:log10.obj
 0002:00006f00       __real_inf                 0000000180038f00     libucrt:log10.obj
 0002:00006f10       __real_neg_qnan            0000000180038f10     libucrt:log10.obj
 0002:00006f20       __real_qnanbit             0000000180038f20     libucrt:log10.obj
 0002:00006f30       __int_1023                 0000000180038f30     libucrt:log10.obj
 0002:00006f40       __mask_001                 0000000180038f40     libucrt:log10.obj
 0002:00006f50       __mask_mant                0000000180038f50     libucrt:log10.obj
 0002:00006f60       __mask_mant_top8           0000000180038f60     libucrt:log10.obj
 0002:00006f70       __mask_mant9               0000000180038f70     libucrt:log10.obj
 0002:00006f80       __real_log10_e             0000000180038f80     libucrt:log10.obj
 0002:00006f90       __real_log10_e_lead        0000000180038f90     libucrt:log10.obj
 0002:00006fa0       __real_log10_e_tail        0000000180038fa0     libucrt:log10.obj
 0002:00006fb0       __real_log10_2_lead        0000000180038fb0     libucrt:log10.obj
 0002:00006fc0       __real_log10_2_tail        0000000180038fc0     libucrt:log10.obj
 0002:00006fd0       __real_two                 0000000180038fd0     libucrt:log10.obj
 0002:00006fe0       __real_one                 0000000180038fe0     libucrt:log10.obj
 0002:00006ff0       __real_half                0000000180038ff0     libucrt:log10.obj
 0002:00007000       __mask_100                 0000000180039000     libucrt:log10.obj
 0002:00007010       __real_1_over_512          0000000180039010     libucrt:log10.obj
 0002:00007020       __real_1_over_2            0000000180039020     libucrt:log10.obj
 0002:00007030       __real_1_over_3            0000000180039030     libucrt:log10.obj
 0002:00007040       __real_1_over_4            0000000180039040     libucrt:log10.obj
 0002:00007050       __real_1_over_5            0000000180039050     libucrt:log10.obj
 0002:00007060       __real_1_over_6            0000000180039060     libucrt:log10.obj
 0002:00007070       __real_neg_1023            0000000180039070     libucrt:log10.obj
 0002:00007080       __mask_2045                0000000180039080     libucrt:log10.obj
 0002:00007090       __real_threshold           0000000180039090     libucrt:log10.obj
 0002:000070a0       __real_near_one_lt         00000001800390a0     libucrt:log10.obj
 0002:000070b0       __real_near_one_gt         00000001800390b0     libucrt:log10.obj
 0002:000070c0       __real_min_norm            00000001800390c0     libucrt:log10.obj
 0002:000070d0       __real_notsign             00000001800390d0     libucrt:log10.obj
 0002:000070e0       __real_ca1                 00000001800390e0     libucrt:log10.obj
 0002:000070f0       __real_ca2                 00000001800390f0     libucrt:log10.obj
 0002:00007100       __real_ca3                 0000000180039100     libucrt:log10.obj
 0002:00007110       __real_ca4                 0000000180039110     libucrt:log10.obj
 0002:00007120       __mask_lower               0000000180039120     libucrt:log10.obj
 0002:00007130       __flag_x_zero              0000000180039130     libucrt:log10.obj
 0002:00007134       __flag_x_neg               0000000180039134     libucrt:log10.obj
 0002:00007138       __flag_x_nan               0000000180039138     libucrt:log10.obj
 0002:00008990       __real@433fffffffffffff    000000018003a990     libucrt:fpsr.obj
 0002:00008998       __real@c33fffffffffffff    000000018003a998     libucrt:fpsr.obj
 0002:00009d68       $cppxdata$??1_Sentry_base@?$basic_ostream@DU?$char_traits@D@std@@@std@@QEAA@XZ 000000018003bd68     VError.obj
 0002:00009d90       $cppxdata$?setstate@?$basic_ios@DU?$char_traits@D@std@@@std@@QEAAXH_N@Z 000000018003bd90     VError.obj
 0002:00009db8       $cppxdata$??0sentry@?$basic_ostream@DU?$char_traits@D@std@@@std@@QEAA@AEAV12@@Z 000000018003bdb8     VError.obj
 0002:00009de0       $cppxdata$??1sentry@?$basic_ostream@DU?$char_traits@D@std@@@std@@QEAA@XZ 000000018003bde0     VError.obj
 0002:00009e08       $cppxdata$??$_Insert_string@DU?$char_traits@D@std@@_K@std@@YAAEAV?$basic_ostream@DU?$char_traits@D@std@@@0@AEAV10@QEBD_K@Z 000000018003be08     VError.obj
 0002:00009e30       $cppxdata$?ifthenelse@VImage@vips@@QEBA?AV12@NNPEAVVOption@2@@Z 000000018003be30     VError.obj
 0002:00009e58       $cppxdata$?ifthenelse@VImage@vips@@QEBA?AV12@V12@NPEAVVOption@2@@Z 000000018003be58     VError.obj
 0002:00009e80       $cppxdata$?ifthenelse@VImage@vips@@QEBA?AV12@NV12@PEAVVOption@2@@Z 000000018003be80     VError.obj
 0002:00009ea8       $cppxdata$?ifthenelse@VImage@vips@@QEBA?AV12@V?$vector@NV?$allocator@N@std@@@std@@0PEAVVOption@2@@Z 000000018003bea8     VError.obj
 0002:00009ed0       $cppxdata$?ifthenelse@VImage@vips@@QEBA?AV12@V12@V?$vector@NV?$allocator@N@std@@@std@@PEAVVOption@2@@Z 000000018003bed0     VError.obj
 0002:00009ef8       $cppxdata$?ifthenelse@VImage@vips@@QEBA?AV12@V?$vector@NV?$allocator@N@std@@@std@@V12@PEAVVOption@2@@Z 000000018003bef8     VError.obj
 0002:00009f20       $cppxdata$?wop@VImage@vips@@QEBA?AV12@V?$vector@NV?$allocator@N@std@@@std@@PEAVVOption@2@@Z 000000018003bf20     VError.obj
 0002:00009f48       $cppxdata$?wop@VImage@vips@@QEBA?AV12@V12@PEAVVOption@2@@Z 000000018003bf48     VError.obj
 0002:00009f70       $cppxdata$?pow@VImage@vips@@QEBA?AV12@V?$vector@NV?$allocator@N@std@@@std@@PEAVVOption@2@@Z 000000018003bf70     VError.obj
 0002:00009f98       $cppxdata$?pow@VImage@vips@@QEBA?AV12@V12@PEAVVOption@2@@Z 000000018003bf98     VError.obj
 0002:00009fc0       $cppxdata$?erode@VImage@vips@@QEBA?AV12@V12@PEAVVOption@2@@Z 000000018003bfc0     VError.obj
 0002:00009fe8       $cppxdata$?dilate@VImage@vips@@QEBA?AV12@V12@PEAVVOption@2@@Z 000000018003bfe8     VError.obj
 0002:0000a010       $cppxdata$?bandjoin@VImage@vips@@QEBA?AV12@V?$vector@NV?$allocator@N@std@@@std@@PEAVVOption@2@@Z 000000018003c010     VError.obj
 0002:0000a038       $cppxdata$?linear@VImage@vips@@QEBA?AV12@NV?$vector@NV?$allocator@N@std@@@std@@PEAVVOption@2@@Z 000000018003c038     VError.obj
 0002:0000a060       $cppxdata$?linear@VImage@vips@@QEBA?AV12@V?$vector@NV?$allocator@N@std@@@std@@NPEAVVOption@2@@Z 000000018003c060     VError.obj
 0002:0000a088       $cppxdata$?linear@VImage@vips@@QEBA?AV12@NNPEAVVOption@2@@Z 000000018003c088     VError.obj
 0002:0000a0b0       $cppxdata$?new_from_image@VImage@vips@@QEBA?AV12@V?$vector@NV?$allocator@N@std@@@std@@@Z 000000018003c0b0     VError.obj
 0002:0000a0d8       $cppxdata$?option@VImage@vips@@SAPEAVVOption@2@XZ 000000018003c0d8     VError.obj
 0002:0000a100       $cppxdata$??_EVOption@vips@@UEAAPEAXI@Z 000000018003c100     VError.obj
 0002:0000a128       $cppxdata$??0VOption@vips@@QEAA@AEBV01@@Z 000000018003c128     VError.obj
 0002:0000a150       $cppxdata$??0VError@vips@@QEAA@AEBV01@@Z 000000018003c150     VError.obj
 0002:0000a178       $cppxdata$??0VError@vips@@QEAA@XZ 000000018003c178     VError.obj
 0002:0000a1a0       $cppxdata$??0VError@vips@@QEAA@AEBV?$basic_string@DU?$char_traits@D@std@@V?$allocator@D@2@@std@@@Z 000000018003c1a0     VError.obj
 0002:0000a1c8       $cppxdata$??0failure@ios_base@std@@QEAA@PEBDAEBVerror_code@2@@Z 000000018003c1c8     VError.obj
 0002:0000a1f0       $cppxdata$?_Makestr@_System_error@std@@CA?AV?$basic_string@DU?$char_traits@D@std@@V?$allocator@D@2@@2@Verror_code@2@V32@@Z 000000018003c1f0     VError.obj
 0002:0000a250       $cppxdata$?set@VOption@vips@@QEAAPEAV12@PEBDVVTarget@2@@Z 000000018003c250     VConnection.obj
 0002:0000a278       $cppxdata$?set@VOption@vips@@QEAAPEAV12@PEBDVVSource@2@@Z 000000018003c278     VConnection.obj
 0002:0000a2a0       $cppxdata$?set@VOption@vips@@QEAAPEAV12@PEBDVVInterpolate@2@@Z 000000018003c2a0     VInterpolate.obj
 0002:0000a2c8       $cppxdata$??_3vips@@YAAEAVVImage@0@AEAV10@V?$vector@NV?$allocator@N@std@@@std@@@Z 000000018003c2c8     VImage.obj
 0002:0000a2c8       $cppxdata$??_2vips@@YAAEAVVImage@0@AEAV10@V?$vector@NV?$allocator@N@std@@@std@@@Z 000000018003c2c8     VImage.obj
 0002:0000a2f0       $cppxdata$??_2vips@@YAAEAVVImage@0@AEAV10@N@Z 000000018003c2f0     VImage.obj
 0002:0000a2f0       $cppxdata$??_3vips@@YAAEAVVImage@0@AEAV10@N@Z 000000018003c2f0     VImage.obj
 0002:0000a318       $cppxdata$??_3vips@@YAAEAVVImage@0@AEAV10@V10@@Z 000000018003c318     VImage.obj
 0002:0000a318       $cppxdata$??_2vips@@YAAEAVVImage@0@AEAV10@V10@@Z 000000018003c318     VImage.obj
 0002:0000a340       $cppxdata$??5vips@@YA?AVVImage@0@V10@V?$vector@NV?$allocator@N@std@@@std@@@Z 000000018003c340     VImage.obj
 0002:0000a368       $cppxdata$??5vips@@YA?AVVImage@0@V10@N@Z 000000018003c368     VImage.obj
 0002:0000a390       $cppxdata$??5vips@@YA?AVVImage@0@V10@0@Z 000000018003c390     VImage.obj
 0002:0000a3b8       $cppxdata$??6vips@@YA?AVVImage@0@V10@V?$vector@NV?$allocator@N@std@@@std@@@Z 000000018003c3b8     VImage.obj
 0002:0000a3e0       $cppxdata$??6vips@@YA?AVVImage@0@V10@N@Z 000000018003c3e0     VImage.obj
 0002:0000a408       $cppxdata$??6vips@@YA?AVVImage@0@V10@0@Z 000000018003c408     VImage.obj
 0002:0000a430       $cppxdata$??_6vips@@YAAEAVVImage@0@AEAV10@V?$vector@NV?$allocator@N@std@@@std@@@Z 000000018003c430     VImage.obj
 0002:0000a458       $cppxdata$??_6vips@@YAAEAVVImage@0@AEAV10@N@Z 000000018003c458     VImage.obj
 0002:0000a480       $cppxdata$??_6vips@@YAAEAVVImage@0@AEAV10@V10@@Z 000000018003c480     VImage.obj
 0002:0000a4a8       $cppxdata$??Tvips@@YA?AVVImage@0@V10@V?$vector@NV?$allocator@N@std@@@std@@@Z 000000018003c4a8     VImage.obj
 0002:0000a4d0       $cppxdata$??Tvips@@YA?AVVImage@0@V?$vector@NV?$allocator@N@std@@@std@@V10@@Z 000000018003c4d0     VImage.obj
 0002:0000a4f8       $cppxdata$??Tvips@@YA?AVVImage@0@V10@N@Z 000000018003c4f8     VImage.obj
 0002:0000a520       $cppxdata$??Tvips@@YA?AVVImage@0@NV10@@Z 000000018003c520     VImage.obj
 0002:0000a548       $cppxdata$??Tvips@@YA?AVVImage@0@V10@0@Z 000000018003c548     VImage.obj
 0002:0000a570       $cppxdata$??_5vips@@YAAEAVVImage@0@AEAV10@V?$vector@NV?$allocator@N@std@@@std@@@Z 000000018003c570     VImage.obj
 0002:0000a598       $cppxdata$??_5vips@@YAAEAVVImage@0@AEAV10@N@Z 000000018003c598     VImage.obj
 0002:0000a5c0       $cppxdata$??_5vips@@YAAEAVVImage@0@AEAV10@V10@@Z 000000018003c5c0     VImage.obj
 0002:0000a5e8       $cppxdata$??Uvips@@YA?AVVImage@0@V10@V?$vector@NV?$allocator@N@std@@@std@@@Z 000000018003c5e8     VImage.obj
 0002:0000a610       $cppxdata$??Uvips@@YA?AVVImage@0@V?$vector@NV?$allocator@N@std@@@std@@V10@@Z 000000018003c610     VImage.obj
 0002:0000a638       $cppxdata$??Uvips@@YA?AVVImage@0@V10@N@Z 000000018003c638     VImage.obj
 0002:0000a660       $cppxdata$??Uvips@@YA?AVVImage@0@NV10@@Z 000000018003c660     VImage.obj
 0002:0000a688       $cppxdata$??Uvips@@YA?AVVImage@0@V10@0@Z 000000018003c688     VImage.obj
 0002:0000a6b0       $cppxdata$??_4vips@@YAAEAVVImage@0@AEAV10@V?$vector@NV?$allocator@N@std@@@std@@@Z 000000018003c6b0     VImage.obj
 0002:0000a6d8       $cppxdata$??_4vips@@YAAEAVVImage@0@AEAV10@N@Z 000000018003c6d8     VImage.obj
 0002:0000a700       $cppxdata$??_4vips@@YAAEAVVImage@0@AEAV10@V10@@Z 000000018003c700     VImage.obj
 0002:0000a728       $cppxdata$??Ivips@@YA?AVVImage@0@V10@V?$vector@NV?$allocator@N@std@@@std@@@Z 000000018003c728     VImage.obj
 0002:0000a750       $cppxdata$??Ivips@@YA?AVVImage@0@V?$vector@NV?$allocator@N@std@@@std@@V10@@Z 000000018003c750     VImage.obj
 0002:0000a778       $cppxdata$??Ivips@@YA?AVVImage@0@V10@N@Z 000000018003c778     VImage.obj
 0002:0000a7a0       $cppxdata$??Ivips@@YA?AVVImage@0@NV10@@Z 000000018003c7a0     VImage.obj
 0002:0000a7c8       $cppxdata$??Ivips@@YA?AVVImage@0@V10@0@Z 000000018003c7c8     VImage.obj
 0002:0000a7f0       $cppxdata$??9vips@@YA?AVVImage@0@V10@V?$vector@NV?$allocator@N@std@@@std@@@Z 000000018003c7f0     VImage.obj
 0002:0000a818       $cppxdata$??9vips@@YA?AVVImage@0@V?$vector@NV?$allocator@N@std@@@std@@V10@@Z 000000018003c818     VImage.obj
 0002:0000a840       $cppxdata$??9vips@@YA?AVVImage@0@V10@N@Z 000000018003c840     VImage.obj
 0002:0000a868       $cppxdata$??9vips@@YA?AVVImage@0@NV10@@Z 000000018003c868     VImage.obj
 0002:0000a890       $cppxdata$??9vips@@YA?AVVImage@0@V10@0@Z 000000018003c890     VImage.obj
 0002:0000a8b8       $cppxdata$??8vips@@YA?AVVImage@0@V10@V?$vector@NV?$allocator@N@std@@@std@@@Z 000000018003c8b8     VImage.obj
 0002:0000a8e0       $cppxdata$??8vips@@YA?AVVImage@0@V?$vector@NV?$allocator@N@std@@@std@@V10@@Z 000000018003c8e0     VImage.obj
 0002:0000a908       $cppxdata$??8vips@@YA?AVVImage@0@V10@N@Z 000000018003c908     VImage.obj
 0002:0000a930       $cppxdata$??8vips@@YA?AVVImage@0@NV10@@Z 000000018003c930     VImage.obj
 0002:0000a958       $cppxdata$??8vips@@YA?AVVImage@0@V10@0@Z 000000018003c958     VImage.obj
 0002:0000a980       $cppxdata$??Pvips@@YA?AVVImage@0@V10@V?$vector@NV?$allocator@N@std@@@std@@@Z 000000018003c980     VImage.obj
 0002:0000a9a8       $cppxdata$??Pvips@@YA?AVVImage@0@V?$vector@NV?$allocator@N@std@@@std@@V10@@Z 000000018003c9a8     VImage.obj
 0002:0000a9d0       $cppxdata$??Pvips@@YA?AVVImage@0@V10@N@Z 000000018003c9d0     VImage.obj
 0002:0000a9f8       $cppxdata$??Pvips@@YA?AVVImage@0@NV10@@Z 000000018003c9f8     VImage.obj
 0002:0000aa20       $cppxdata$??Pvips@@YA?AVVImage@0@V10@0@Z 000000018003ca20     VImage.obj
 0002:0000aa48       $cppxdata$??Ovips@@YA?AVVImage@0@V10@V?$vector@NV?$allocator@N@std@@@std@@@Z 000000018003ca48     VImage.obj
 0002:0000aa70       $cppxdata$??Ovips@@YA?AVVImage@0@V?$vector@NV?$allocator@N@std@@@std@@V10@@Z 000000018003ca70     VImage.obj
 0002:0000aa98       $cppxdata$??Ovips@@YA?AVVImage@0@V10@N@Z 000000018003ca98     VImage.obj
 0002:0000aac0       $cppxdata$??Ovips@@YA?AVVImage@0@NV10@@Z 000000018003cac0     VImage.obj
 0002:0000aae8       $cppxdata$??Ovips@@YA?AVVImage@0@V10@0@Z 000000018003cae8     VImage.obj
 0002:0000ab10       $cppxdata$??Nvips@@YA?AVVImage@0@V10@V?$vector@NV?$allocator@N@std@@@std@@@Z 000000018003cb10     VImage.obj
 0002:0000ab38       $cppxdata$??Nvips@@YA?AVVImage@0@V?$vector@NV?$allocator@N@std@@@std@@V10@@Z 000000018003cb38     VImage.obj
 0002:0000ab60       $cppxdata$??Nvips@@YA?AVVImage@0@V10@N@Z 000000018003cb60     VImage.obj
 0002:0000ab88       $cppxdata$??Nvips@@YA?AVVImage@0@NV10@@Z 000000018003cb88     VImage.obj
 0002:0000abb0       $cppxdata$??Nvips@@YA?AVVImage@0@V10@0@Z 000000018003cbb0     VImage.obj
 0002:0000abd8       $cppxdata$??Mvips@@YA?AVVImage@0@V10@V?$vector@NV?$allocator@N@std@@@std@@@Z 000000018003cbd8     VImage.obj
 0002:0000ac00       $cppxdata$??Mvips@@YA?AVVImage@0@V?$vector@NV?$allocator@N@std@@@std@@V10@@Z 000000018003cc00     VImage.obj
 0002:0000ac28       $cppxdata$??Mvips@@YA?AVVImage@0@V10@N@Z 000000018003cc28     VImage.obj
 0002:0000ac50       $cppxdata$??Mvips@@YA?AVVImage@0@NV10@@Z 000000018003cc50     VImage.obj
 0002:0000ac78       $cppxdata$??Mvips@@YA?AVVImage@0@V10@0@Z 000000018003cc78     VImage.obj
 0002:0000aca0       $cppxdata$??_1vips@@YAAEAVVImage@0@AEAV10@V?$vector@NV?$allocator@N@std@@@std@@@Z 000000018003cca0     VImage.obj
 0002:0000acc8       $cppxdata$??_1vips@@YAAEAVVImage@0@AEAV10@N@Z 000000018003ccc8     VImage.obj
 0002:0000acf0       $cppxdata$??_1vips@@YAAEAVVImage@0@AEAV10@V10@@Z 000000018003ccf0     VImage.obj
 0002:0000ad18       $cppxdata$??Lvips@@YA?AVVImage@0@V10@V?$vector@NV?$allocator@N@std@@@std@@@Z 000000018003cd18     VImage.obj
 0002:0000ad40       $cppxdata$??Lvips@@YA?AVVImage@0@V10@N@Z 000000018003cd40     VImage.obj
 0002:0000ad68       $cppxdata$??Lvips@@YA?AVVImage@0@V10@0@Z 000000018003cd68     VImage.obj
 0002:0000ad90       $cppxdata$??_0vips@@YAAEAVVImage@0@AEAV10@V?$vector@NV?$allocator@N@std@@@std@@@Z 000000018003cd90     VImage.obj
 0002:0000adb8       $cppxdata$??_0vips@@YAAEAVVImage@0@AEAV10@N@Z 000000018003cdb8     VImage.obj
 0002:0000ade0       $cppxdata$??_0vips@@YAAEAVVImage@0@AEAV10@V10@@Z 000000018003cde0     VImage.obj
 0002:0000ae08       $cppxdata$??Kvips@@YA?AVVImage@0@V10@V?$vector@NV?$allocator@N@std@@@std@@@Z 000000018003ce08     VImage.obj
 0002:0000ae30       $cppxdata$??Kvips@@YA?AVVImage@0@V?$vector@NV?$allocator@N@std@@@std@@V10@@Z 000000018003ce30     VImage.obj
 0002:0000ae58       $cppxdata$??Kvips@@YA?AVVImage@0@V10@N@Z 000000018003ce58     VImage.obj
 0002:0000ae80       $cppxdata$??Kvips@@YA?AVVImage@0@NV10@@Z 000000018003ce80     VImage.obj
 0002:0000aea8       $cppxdata$??Kvips@@YA?AVVImage@0@V10@0@Z 000000018003cea8     VImage.obj
 0002:0000aed0       $cppxdata$??Xvips@@YAAEAVVImage@0@AEAV10@V?$vector@NV?$allocator@N@std@@@std@@@Z 000000018003ced0     VImage.obj
 0002:0000aef8       $cppxdata$??Xvips@@YAAEAVVImage@0@AEAV10@N@Z 000000018003cef8     VImage.obj
 0002:0000af20       $cppxdata$??Xvips@@YAAEAVVImage@0@AEAV10@V10@@Z 000000018003cf20     VImage.obj
 0002:0000af48       $cppxdata$??Dvips@@YA?AVVImage@0@V10@V?$vector@NV?$allocator@N@std@@@std@@@Z 000000018003cf48     VImage.obj
 0002:0000af70       $cppxdata$??Dvips@@YA?AVVImage@0@V?$vector@NV?$allocator@N@std@@@std@@V10@@Z 000000018003cf70     VImage.obj
 0002:0000af98       $cppxdata$??Dvips@@YA?AVVImage@0@V10@N@Z 000000018003cf98     VImage.obj
 0002:0000afc0       $cppxdata$??Dvips@@YA?AVVImage@0@NV10@@Z 000000018003cfc0     VImage.obj
 0002:0000afe8       $cppxdata$??Dvips@@YA?AVVImage@0@V10@0@Z 000000018003cfe8     VImage.obj
 0002:0000b010       $cppxdata$??Gvips@@YA?AVVImage@0@V10@@Z 000000018003d010     VImage.obj
 0002:0000b038       $cppxdata$??Zvips@@YAAEAVVImage@0@AEAV10@V?$vector@NV?$allocator@N@std@@@std@@@Z 000000018003d038     VImage.obj
 0002:0000b060       $cppxdata$??Zvips@@YAAEAVVImage@0@AEAV10@N@Z 000000018003d060     VImage.obj
 0002:0000b088       $cppxdata$??Zvips@@YAAEAVVImage@0@AEAV10@V10@@Z 000000018003d088     VImage.obj
 0002:0000b0b0       $cppxdata$??Gvips@@YA?AVVImage@0@V10@V?$vector@NV?$allocator@N@std@@@std@@@Z 000000018003d0b0     VImage.obj
 0002:0000b0d8       $cppxdata$??Gvips@@YA?AVVImage@0@V?$vector@NV?$allocator@N@std@@@std@@V10@@Z 000000018003d0d8     VImage.obj
 0002:0000b100       $cppxdata$??Gvips@@YA?AVVImage@0@V10@N@Z 000000018003d100     VImage.obj
 0002:0000b128       $cppxdata$??Gvips@@YA?AVVImage@0@NV10@@Z 000000018003d128     VImage.obj
 0002:0000b150       $cppxdata$??Gvips@@YA?AVVImage@0@V10@0@Z 000000018003d150     VImage.obj
 0002:0000b178       $cppxdata$??Yvips@@YAAEAVVImage@0@AEAV10@V?$vector@NV?$allocator@N@std@@@std@@@Z 000000018003d178     VImage.obj
 0002:0000b1a0       $cppxdata$??Yvips@@YAAEAVVImage@0@AEAV10@N@Z 000000018003d1a0     VImage.obj
 0002:0000b1c8       $cppxdata$??Yvips@@YAAEAVVImage@0@AEAV10@V10@@Z 000000018003d1c8     VImage.obj
 0002:0000b1f0       $cppxdata$??Hvips@@YA?AVVImage@0@V10@V?$vector@NV?$allocator@N@std@@@std@@@Z 000000018003d1f0     VImage.obj
 0002:0000b218       $cppxdata$??Hvips@@YA?AVVImage@0@V?$vector@NV?$allocator@N@std@@@std@@V10@@Z 000000018003d218     VImage.obj
 0002:0000b240       $cppxdata$??Hvips@@YA?AVVImage@0@V10@N@Z 000000018003d240     VImage.obj
 0002:0000b268       $cppxdata$??Hvips@@YA?AVVImage@0@NV10@@Z 000000018003d268     VImage.obj
 0002:0000b290       $cppxdata$??Hvips@@YA?AVVImage@0@V10@0@Z 000000018003d290     VImage.obj
 0002:0000b2b8       $cppxdata$?composite@VImage@vips@@QEBA?AV12@V12@W4VipsBlendMode@@PEAVVOption@2@@Z 000000018003d2b8     VImage.obj
 0002:0000b2e0       $cppxdata$?bandjoin@VImage@vips@@QEBA?AV12@V12@PEAVVOption@2@@Z 000000018003d2e0     VImage.obj
 0002:0000b308       $cppxdata$?bandsplit@VImage@vips@@QEBA?AV?$vector@VVImage@vips@@V?$allocator@VVImage@vips@@@std@@@std@@PEAVVOption@2@@Z 000000018003d308     VImage.obj
 0002:0000b330       $cppxdata$?zoom@VImage@vips@@QEBA?AV12@HHPEAVVOption@2@@Z 000000018003d330     VImage.obj
 0002:0000b358       $cppxdata$?zone@VImage@vips@@SA?AV12@HHPEAVVOption@2@@Z 000000018003d358     VImage.obj
 0002:0000b380       $cppxdata$?xyz@VImage@vips@@SA?AV12@HHPEAVVOption@2@@Z 000000018003d380     VImage.obj
 0002:0000b3a8       $cppxdata$?wrap@VImage@vips@@QEBA?AV12@PEAVVOption@2@@Z 000000018003d3a8     VImage.obj
 0002:0000b3d0       $cppxdata$?worley@VImage@vips@@SA?AV12@HHPEAVVOption@2@@Z 000000018003d3d0     VImage.obj
 0002:0000b3f8       $cppxdata$?webpsave_target@VImage@vips@@QEBAXVVTarget@2@PEAVVOption@2@@Z 000000018003d3f8     VImage.obj
 0002:0000b420       $cppxdata$?webpload_source@VImage@vips@@SA?AV12@VVSource@2@PEAVVOption@2@@Z 000000018003d420     VImage.obj
 0002:0000b448       $cppxdata$?webpload_buffer@VImage@vips@@SA?AV12@PEAU_VipsBlob@@PEAVVOption@2@@Z 000000018003d448     VImage.obj
 0002:0000b470       $cppxdata$?webpload@VImage@vips@@SA?AV12@PEBDPEAVVOption@2@@Z 000000018003d470     VImage.obj
 0002:0000b498       $cppxdata$?vipsload@VImage@vips@@SA?AV12@PEBDPEAVVOption@2@@Z 000000018003d498     VImage.obj
 0002:0000b4c0       $cppxdata$?unpremultiply@VImage@vips@@QEBA?AV12@PEAVVOption@2@@Z 000000018003d4c0     VImage.obj
 0002:0000b4e8       $cppxdata$?transpose3d@VImage@vips@@QEBA?AV12@PEAVVOption@2@@Z 000000018003d4e8     VImage.obj
 0002:0000b510       $cppxdata$?tonelut@VImage@vips@@SA?AV12@PEAVVOption@2@@Z 000000018003d510     VImage.obj
 0002:0000b538       $cppxdata$?tilecache@VImage@vips@@QEBA?AV12@PEAVVOption@2@@Z 000000018003d538     VImage.obj
 0002:0000b560       $cppxdata$?tiffload_source@VImage@vips@@SA?AV12@VVSource@2@PEAVVOption@2@@Z 000000018003d560     VImage.obj
 0002:0000b588       $cppxdata$?tiffload_buffer@VImage@vips@@SA?AV12@PEAU_VipsBlob@@PEAVVOption@2@@Z 000000018003d588     VImage.obj
 0002:0000b5b0       $cppxdata$?tiffload@VImage@vips@@SA?AV12@PEBDPEAVVOption@2@@Z 000000018003d5b0     VImage.obj
 0002:0000b5d8       $cppxdata$?thumbnail_source@VImage@vips@@SA?AV12@VVSource@2@HPEAVVOption@2@@Z 000000018003d5d8     VImage.obj
 0002:0000b600       $cppxdata$?thumbnail_image@VImage@vips@@QEBA?AV12@HPEAVVOption@2@@Z 000000018003d600     VImage.obj
 0002:0000b628       $cppxdata$?thumbnail_buffer@VImage@vips@@SA?AV12@PEAU_VipsBlob@@HPEAVVOption@2@@Z 000000018003d628     VImage.obj
 0002:0000b650       $cppxdata$?thumbnail@VImage@vips@@SA?AV12@PEBDHPEAVVOption@2@@Z 000000018003d650     VImage.obj
 0002:0000b678       $cppxdata$?text@VImage@vips@@SA?AV12@PEBDPEAVVOption@2@@Z 000000018003d678     VImage.obj
 0002:0000b6a0       $cppxdata$?switch_image@VImage@vips@@SA?AV12@V?$vector@VVImage@vips@@V?$allocator@VVImage@vips@@@std@@@std@@PEAVVOption@2@@Z 000000018003d6a0     VImage.obj
 0002:0000b6c8       $cppxdata$?svgload_source@VImage@vips@@SA?AV12@VVSource@2@PEAVVOption@2@@Z 000000018003d6c8     VImage.obj
 0002:0000b6f0       $cppxdata$?svgload_buffer@VImage@vips@@SA?AV12@PEAU_VipsBlob@@PEAVVOption@2@@Z 000000018003d6f0     VImage.obj
 0002:0000b718       $cppxdata$?svgload@VImage@vips@@SA?AV12@PEBDPEAVVOption@2@@Z 000000018003d718     VImage.obj
 0002:0000b740       $cppxdata$?sum@VImage@vips@@SA?AV12@V?$vector@VVImage@vips@@V?$allocator@VVImage@vips@@@std@@@std@@PEAVVOption@2@@Z 000000018003d740     VImage.obj
 0002:0000b768       $cppxdata$?subtract@VImage@vips@@QEBA?AV12@V12@PEAVVOption@2@@Z 000000018003d768     VImage.obj
 0002:0000b790       $cppxdata$?subsample@VImage@vips@@QEBA?AV12@HHPEAVVOption@2@@Z 000000018003d790     VImage.obj
 0002:0000b7b8       $cppxdata$?stdif@VImage@vips@@QEBA?AV12@HHPEAVVOption@2@@Z 000000018003d7b8     VImage.obj
 0002:0000b7e0       $cppxdata$?stats@VImage@vips@@QEBA?AV12@PEAVVOption@2@@Z 000000018003d7e0     VImage.obj
 0002:0000b808       $cppxdata$?spectrum@VImage@vips@@QEBA?AV12@PEAVVOption@2@@Z 000000018003d808     VImage.obj
 0002:0000b830       $cppxdata$?spcor@VImage@vips@@QEBA?AV12@V12@PEAVVOption@2@@Z 000000018003d830     VImage.obj
 0002:0000b858       $cppxdata$?sobel@VImage@vips@@QEBA?AV12@PEAVVOption@2@@Z 000000018003d858     VImage.obj
 0002:0000b880       $cppxdata$?smartcrop@VImage@vips@@QEBA?AV12@HHPEAVVOption@2@@Z 000000018003d880     VImage.obj
 0002:0000b8a8       $cppxdata$?sines@VImage@vips@@SA?AV12@HHPEAVVOption@2@@Z 000000018003d8a8     VImage.obj
 0002:0000b8d0       $cppxdata$?similarity@VImage@vips@@QEBA?AV12@PEAVVOption@2@@Z 000000018003d8d0     VImage.obj
 0002:0000b8f8       $cppxdata$?sign@VImage@vips@@QEBA?AV12@PEAVVOption@2@@Z 000000018003d8f8     VImage.obj
 0002:0000b920       $cppxdata$?shrinkv@VImage@vips@@QEBA?AV12@HPEAVVOption@2@@Z 000000018003d920     VImage.obj
 0002:0000b948       $cppxdata$?shrinkh@VImage@vips@@QEBA?AV12@HPEAVVOption@2@@Z 000000018003d948     VImage.obj
 0002:0000b970       $cppxdata$?shrink@VImage@vips@@QEBA?AV12@NNPEAVVOption@2@@Z 000000018003d970     VImage.obj
 0002:0000b998       $cppxdata$?sharpen@VImage@vips@@QEBA?AV12@PEAVVOption@2@@Z 000000018003d998     VImage.obj
 0002:0000b9c0       $cppxdata$?sequential@VImage@vips@@QEBA?AV12@PEAVVOption@2@@Z 000000018003d9c0     VImage.obj
 0002:0000b9e8       $cppxdata$?scale@VImage@vips@@QEBA?AV12@PEAVVOption@2@@Z 000000018003d9e8     VImage.obj
 0002:0000ba10       $cppxdata$?scRGB2sRGB@VImage@vips@@QEBA?AV12@PEAVVOption@2@@Z 000000018003da10     VImage.obj
 0002:0000ba38       $cppxdata$?scRGB2XYZ@VImage@vips@@QEBA?AV12@PEAVVOption@2@@Z 000000018003da38     VImage.obj
 0002:0000ba60       $cppxdata$?scRGB2BW@VImage@vips@@QEBA?AV12@PEAVVOption@2@@Z 000000018003da60     VImage.obj
 0002:0000ba88       $cppxdata$?sRGB2scRGB@VImage@vips@@QEBA?AV12@PEAVVOption@2@@Z 000000018003da88     VImage.obj
 0002:0000bab0       $cppxdata$?sRGB2HSV@VImage@vips@@QEBA?AV12@PEAVVOption@2@@Z 000000018003dab0     VImage.obj
 0002:0000bad8       $cppxdata$?rotate@VImage@vips@@QEBA?AV12@NPEAVVOption@2@@Z 000000018003dad8     VImage.obj
 0002:0000bb00       $cppxdata$?rot45@VImage@vips@@QEBA?AV12@PEAVVOption@2@@Z 000000018003db00     VImage.obj
 0002:0000bb28       $cppxdata$?resize@VImage@vips@@QEBA?AV12@NPEAVVOption@2@@Z 000000018003db28     VImage.obj
 0002:0000bb50       $cppxdata$?replicate@VImage@vips@@QEBA?AV12@HHPEAVVOption@2@@Z 000000018003db50     VImage.obj
 0002:0000bb78       $cppxdata$?remainder_const@VImage@vips@@QEBA?AV12@V?$vector@NV?$allocator@N@std@@@std@@PEAVVOption@2@@Z 000000018003db78     VImage.obj
 0002:0000bba0       $cppxdata$?remainder@VImage@vips@@QEBA?AV12@V12@PEAVVOption@2@@Z 000000018003dba0     VImage.obj
 0002:0000bbc8       $cppxdata$?relational_const@VImage@vips@@QEBA?AV12@W4VipsOperationRelational@@V?$vector@NV?$allocator@N@std@@@std@@PEAVVOption@2@@Z 000000018003dbc8     VImage.obj
 0002:0000bbf0       $cppxdata$?relational@VImage@vips@@QEBA?AV12@V12@W4VipsOperationRelational@@PEAVVOption@2@@Z 000000018003dbf0     VImage.obj
 0002:0000bc18       $cppxdata$?reducev@VImage@vips@@QEBA?AV12@NPEAVVOption@2@@Z 000000018003dc18     VImage.obj
 0002:0000bc40       $cppxdata$?reduceh@VImage@vips@@QEBA?AV12@NPEAVVOption@2@@Z 000000018003dc40     VImage.obj
 0002:0000bc68       $cppxdata$?reduce@VImage@vips@@QEBA?AV12@NNPEAVVOption@2@@Z 000000018003dc68     VImage.obj
 0002:0000bc90       $cppxdata$?recomb@VImage@vips@@QEBA?AV12@V12@PEAVVOption@2@@Z 000000018003dc90     VImage.obj
 0002:0000bcb8       $cppxdata$?rawload@VImage@vips@@SA?AV12@PEBDHHHPEAVVOption@2@@Z 000000018003dcb8     VImage.obj
 0002:0000bce0       $cppxdata$?radsave_target@VImage@vips@@QEBAXVVTarget@2@PEAVVOption@2@@Z 000000018003dce0     VImage.obj
 0002:0000bd08       $cppxdata$?radload_source@VImage@vips@@SA?AV12@VVSource@2@PEAVVOption@2@@Z 000000018003dd08     VImage.obj
 0002:0000bd30       $cppxdata$?radload_buffer@VImage@vips@@SA?AV12@PEAU_VipsBlob@@PEAVVOption@2@@Z 000000018003dd30     VImage.obj
 0002:0000bd58       $cppxdata$?radload@VImage@vips@@SA?AV12@PEBDPEAVVOption@2@@Z 000000018003dd58     VImage.obj
 0002:0000bd80       $cppxdata$?rad2float@VImage@vips@@QEBA?AV12@PEAVVOption@2@@Z 000000018003dd80     VImage.obj
 0002:0000bda8       $cppxdata$?quadratic@VImage@vips@@QEBA?AV12@V12@PEAVVOption@2@@Z 000000018003dda8     VImage.obj
 0002:0000bdd0       $cppxdata$?project@VImage@vips@@QEBA?AV12@PEAV12@PEAVVOption@2@@Z 000000018003ddd0     VImage.obj
 0002:0000bdf8       $cppxdata$?profile@VImage@vips@@QEBA?AV12@PEAV12@PEAVVOption@2@@Z 000000018003ddf8     VImage.obj
 0002:0000be20       $cppxdata$?premultiply@VImage@vips@@QEBA?AV12@PEAVVOption@2@@Z 000000018003de20     VImage.obj
 0002:0000be48       $cppxdata$?ppmload@VImage@vips@@SA?AV12@PEBDPEAVVOption@2@@Z 000000018003de48     VImage.obj
 0002:0000be70       $cppxdata$?pngsave_target@VImage@vips@@QEBAXVVTarget@2@PEAVVOption@2@@Z 000000018003de70     VImage.obj
 0002:0000be98       $cppxdata$?pngload_source@VImage@vips@@SA?AV12@VVSource@2@PEAVVOption@2@@Z 000000018003de98     VImage.obj
 0002:0000bec0       $cppxdata$?pngload_buffer@VImage@vips@@SA?AV12@PEAU_VipsBlob@@PEAVVOption@2@@Z 000000018003dec0     VImage.obj
 0002:0000bee8       $cppxdata$?pngload@VImage@vips@@SA?AV12@PEBDPEAVVOption@2@@Z 000000018003dee8     VImage.obj
 0002:0000bf10       $cppxdata$?phasecor@VImage@vips@@QEBA?AV12@V12@PEAVVOption@2@@Z 000000018003df10     VImage.obj
 0002:0000bf38       $cppxdata$?perlin@VImage@vips@@SA?AV12@HHPEAVVOption@2@@Z 000000018003df38     VImage.obj
 0002:0000bf60       $cppxdata$?pdfload_buffer@VImage@vips@@SA?AV12@PEAU_VipsBlob@@PEAVVOption@2@@Z 000000018003df60     VImage.obj
 0002:0000bf88       $cppxdata$?pdfload@VImage@vips@@SA?AV12@PEBDPEAVVOption@2@@Z 000000018003df88     VImage.obj
 0002:0000bfb0       $cppxdata$?openslideload@VImage@vips@@SA?AV12@PEBDPEAVVOption@2@@Z 000000018003dfb0     VImage.obj
 0002:0000bfd8       $cppxdata$?openexrload@VImage@vips@@SA?AV12@PEBDPEAVVOption@2@@Z 000000018003dfd8     VImage.obj
 0002:0000c000       $cppxdata$?niftiload@VImage@vips@@SA?AV12@PEBDPEAVVOption@2@@Z 000000018003e000     VImage.obj
 0002:0000c028       $cppxdata$?multiply@VImage@vips@@QEBA?AV12@V12@PEAVVOption@2@@Z 000000018003e028     VImage.obj
 0002:0000c050       $cppxdata$?msb@VImage@vips@@QEBA?AV12@PEAVVOption@2@@Z 000000018003e050     VImage.obj
 0002:0000c078       $cppxdata$?mosaic1@VImage@vips@@QEBA?AV12@V12@W4VipsDirection@@HHHHHHHHPEAVVOption@2@@Z 000000018003e078     VImage.obj
 0002:0000c0a0       $cppxdata$?mosaic@VImage@vips@@QEBA?AV12@V12@W4VipsDirection@@HHHHPEAVVOption@2@@Z 000000018003e0a0     VImage.obj
 0002:0000c0c8       $cppxdata$?merge@VImage@vips@@QEBA?AV12@V12@W4VipsDirection@@HHPEAVVOption@2@@Z 000000018003e0c8     VImage.obj
 0002:0000c0f0       $cppxdata$?measure@VImage@vips@@QEBA?AV12@HHPEAVVOption@2@@Z 000000018003e0f0     VImage.obj
 0002:0000c118       $cppxdata$?matrixload@VImage@vips@@SA?AV12@PEBDPEAVVOption@2@@Z 000000018003e118     VImage.obj
 0002:0000c140       $cppxdata$?matload@VImage@vips@@SA?AV12@PEBDPEAVVOption@2@@Z 000000018003e140     VImage.obj
 0002:0000c168       $cppxdata$?match@VImage@vips@@QEBA?AV12@V12@HHHHHHHHPEAVVOption@2@@Z 000000018003e168     VImage.obj
 0002:0000c190       $cppxdata$?mask_ideal_ring@VImage@vips@@SA?AV12@HHNNPEAVVOption@2@@Z 000000018003e190     VImage.obj
 0002:0000c1b8       $cppxdata$?mask_ideal_band@VImage@vips@@SA?AV12@HHNNNPEAVVOption@2@@Z 000000018003e1b8     VImage.obj
 0002:0000c1e0       $cppxdata$?mask_ideal@VImage@vips@@SA?AV12@HHNPEAVVOption@2@@Z 000000018003e1e0     VImage.obj
 0002:0000c208       $cppxdata$?mask_gaussian_ring@VImage@vips@@SA?AV12@HHNNNPEAVVOption@2@@Z 000000018003e208     VImage.obj
 0002:0000c230       $cppxdata$?mask_gaussian_band@VImage@vips@@SA?AV12@HHNNNNPEAVVOption@2@@Z 000000018003e230     VImage.obj
 0002:0000c258       $cppxdata$?mask_gaussian@VImage@vips@@SA?AV12@HHNNPEAVVOption@2@@Z 000000018003e258     VImage.obj
 0002:0000c280       $cppxdata$?mask_fractal@VImage@vips@@SA?AV12@HHNPEAVVOption@2@@Z 000000018003e280     VImage.obj
 0002:0000c2a8       $cppxdata$?mask_butterworth_ring@VImage@vips@@SA?AV12@HHNNNNPEAVVOption@2@@Z 000000018003e2a8     VImage.obj
 0002:0000c2d0       $cppxdata$?mask_butterworth_band@VImage@vips@@SA?AV12@HHNNNNNPEAVVOption@2@@Z 000000018003e2d0     VImage.obj
 0002:0000c2f8       $cppxdata$?mask_butterworth@VImage@vips@@SA?AV12@HHNNNPEAVVOption@2@@Z 000000018003e2f8     VImage.obj
 0002:0000c320       $cppxdata$?maplut@VImage@vips@@QEBA?AV12@V12@PEAVVOption@2@@Z 000000018003e320     VImage.obj
 0002:0000c348       $cppxdata$?mapim@VImage@vips@@QEBA?AV12@V12@PEAVVOption@2@@Z 000000018003e348     VImage.obj
 0002:0000c370       $cppxdata$?magickload_buffer@VImage@vips@@SA?AV12@PEAU_VipsBlob@@PEAVVOption@2@@Z 000000018003e370     VImage.obj
 0002:0000c398       $cppxdata$?magickload@VImage@vips@@SA?AV12@PEBDPEAVVOption@2@@Z 000000018003e398     VImage.obj
 0002:0000c3c0       $cppxdata$?logmat@VImage@vips@@SA?AV12@NNPEAVVOption@2@@Z 000000018003e3c0     VImage.obj
 0002:0000c3e8       $cppxdata$?linecache@VImage@vips@@QEBA?AV12@PEAVVOption@2@@Z 000000018003e3e8     VImage.obj
 0002:0000c410       $cppxdata$?labelregions@VImage@vips@@QEBA?AV12@PEAVVOption@2@@Z 000000018003e410     VImage.obj
 0002:0000c438       $cppxdata$?jpegsave_target@VImage@vips@@QEBAXVVTarget@2@PEAVVOption@2@@Z 000000018003e438     VImage.obj
 0002:0000c460       $cppxdata$?jpegload_source@VImage@vips@@SA?AV12@VVSource@2@PEAVVOption@2@@Z 000000018003e460     VImage.obj
 0002:0000c488       $cppxdata$?jpegload_buffer@VImage@vips@@SA?AV12@PEAU_VipsBlob@@PEAVVOption@2@@Z 000000018003e488     VImage.obj
 0002:0000c4b0       $cppxdata$?jpegload@VImage@vips@@SA?AV12@PEBDPEAVVOption@2@@Z 000000018003e4b0     VImage.obj
 0002:0000c4d8       $cppxdata$?join@VImage@vips@@QEBA?AV12@V12@W4VipsDirection@@PEAVVOption@2@@Z 000000018003e4d8     VImage.obj
 0002:0000c500       $cppxdata$?invfft@VImage@vips@@QEBA?AV12@PEAVVOption@2@@Z 000000018003e500     VImage.obj
 0002:0000c528       $cppxdata$?invertlut@VImage@vips@@QEBA?AV12@PEAVVOption@2@@Z 000000018003e528     VImage.obj
 0002:0000c550       $cppxdata$?invert@VImage@vips@@QEBA?AV12@PEAVVOption@2@@Z 000000018003e550     VImage.obj
 0002:0000c578       $cppxdata$?insert@VImage@vips@@QEBA?AV12@V12@HHPEAVVOption@2@@Z 000000018003e578     VImage.obj
 0002:0000c5a0       $cppxdata$?identity@VImage@vips@@SA?AV12@PEAVVOption@2@@Z 000000018003e5a0     VImage.obj
 0002:0000c5c8       $cppxdata$?icc_transform@VImage@vips@@QEBA?AV12@PEBDPEAVVOption@2@@Z 000000018003e5c8     VImage.obj
 0002:0000c5f0       $cppxdata$?icc_import@VImage@vips@@QEBA?AV12@PEAVVOption@2@@Z 000000018003e5f0     VImage.obj
 0002:0000c618       $cppxdata$?icc_export@VImage@vips@@QEBA?AV12@PEAVVOption@2@@Z 000000018003e618     VImage.obj
 0002:0000c640       $cppxdata$?hough_line@VImage@vips@@QEBA?AV12@PEAVVOption@2@@Z 000000018003e640     VImage.obj
 0002:0000c668       $cppxdata$?hough_circle@VImage@vips@@QEBA?AV12@PEAVVOption@2@@Z 000000018003e668     VImage.obj
 0002:0000c690       $cppxdata$?hist_plot@VImage@vips@@QEBA?AV12@PEAVVOption@2@@Z 000000018003e690     VImage.obj
 0002:0000c6b8       $cppxdata$?hist_norm@VImage@vips@@QEBA?AV12@PEAVVOption@2@@Z 000000018003e6b8     VImage.obj
 0002:0000c6e0       $cppxdata$?hist_match@VImage@vips@@QEBA?AV12@V12@PEAVVOption@2@@Z 000000018003e6e0     VImage.obj
 0002:0000c708       $cppxdata$?hist_local@VImage@vips@@QEBA?AV12@HHPEAVVOption@2@@Z 000000018003e708     VImage.obj
 0002:0000c730       $cppxdata$?hist_find_ndim@VImage@vips@@QEBA?AV12@PEAVVOption@2@@Z 000000018003e730     VImage.obj
 0002:0000c758       $cppxdata$?hist_find_indexed@VImage@vips@@QEBA?AV12@V12@PEAVVOption@2@@Z 000000018003e758     VImage.obj
 0002:0000c780       $cppxdata$?hist_find@VImage@vips@@QEBA?AV12@PEAVVOption@2@@Z 000000018003e780     VImage.obj
 0002:0000c7a8       $cppxdata$?hist_equal@VImage@vips@@QEBA?AV12@PEAVVOption@2@@Z 000000018003e7a8     VImage.obj
 0002:0000c7d0       $cppxdata$?hist_cum@VImage@vips@@QEBA?AV12@PEAVVOption@2@@Z 000000018003e7d0     VImage.obj
 0002:0000c7f8       $cppxdata$?heifload_buffer@VImage@vips@@SA?AV12@PEAU_VipsBlob@@PEAVVOption@2@@Z 000000018003e7f8     VImage.obj
 0002:0000c820       $cppxdata$?heifload@VImage@vips@@SA?AV12@PEBDPEAVVOption@2@@Z 000000018003e820     VImage.obj
 0002:0000c848       $cppxdata$?grid@VImage@vips@@QEBA?AV12@HHHPEAVVOption@2@@Z 000000018003e848     VImage.obj
 0002:0000c870       $cppxdata$?grey@VImage@vips@@SA?AV12@HHPEAVVOption@2@@Z 000000018003e870     VImage.obj
 0002:0000c898       $cppxdata$?gravity@VImage@vips@@QEBA?AV12@W4VipsCompassDirection@@HHPEAVVOption@2@@Z 000000018003e898     VImage.obj
 0002:0000c8c0       $cppxdata$?globalbalance@VImage@vips@@QEBA?AV12@PEAVVOption@2@@Z 000000018003e8c0     VImage.obj
 0002:0000c8e8       $cppxdata$?gifload_buffer@VImage@vips@@SA?AV12@PEAU_VipsBlob@@PEAVVOption@2@@Z 000000018003e8e8     VImage.obj
 0002:0000c910       $cppxdata$?gifload@VImage@vips@@SA?AV12@PEBDPEAVVOption@2@@Z 000000018003e910     VImage.obj
 0002:0000c938       $cppxdata$?getpoint@VImage@vips@@QEBA?AV?$vector@NV?$allocator@N@std@@@std@@HHPEAVVOption@2@@Z 000000018003e938     VImage.obj
 0002:0000c960       $cppxdata$?gaussnoise@VImage@vips@@SA?AV12@HHPEAVVOption@2@@Z 000000018003e960     VImage.obj
 0002:0000c988       $cppxdata$?gaussmat@VImage@vips@@SA?AV12@NNPEAVVOption@2@@Z 000000018003e988     VImage.obj
 0002:0000c9b0       $cppxdata$?gaussblur@VImage@vips@@QEBA?AV12@NPEAVVOption@2@@Z 000000018003e9b0     VImage.obj
 0002:0000c9d8       $cppxdata$?gamma@VImage@vips@@QEBA?AV12@PEAVVOption@2@@Z 000000018003e9d8     VImage.obj
 0002:0000ca00       $cppxdata$?fwfft@VImage@vips@@QEBA?AV12@PEAVVOption@2@@Z 000000018003ea00     VImage.obj
 0002:0000ca28       $cppxdata$?freqmult@VImage@vips@@QEBA?AV12@V12@PEAVVOption@2@@Z 000000018003ea28     VImage.obj
 0002:0000ca50       $cppxdata$?fractsurf@VImage@vips@@SA?AV12@HHNPEAVVOption@2@@Z 000000018003ea50     VImage.obj
 0002:0000ca78       $cppxdata$?float2rad@VImage@vips@@QEBA?AV12@PEAVVOption@2@@Z 000000018003ea78     VImage.obj
 0002:0000caa0       $cppxdata$?flatten@VImage@vips@@QEBA?AV12@PEAVVOption@2@@Z 000000018003eaa0     VImage.obj
 0002:0000cac8       $cppxdata$?fitsload@VImage@vips@@SA?AV12@PEBDPEAVVOption@2@@Z 000000018003eac8     VImage.obj
 0002:0000caf0       $cppxdata$?fill_nearest@VImage@vips@@QEBA?AV12@PEAVVOption@2@@Z 000000018003eaf0     VImage.obj
 0002:0000cb18       $cppxdata$?fastcor@VImage@vips@@QEBA?AV12@V12@PEAVVOption@2@@Z 000000018003eb18     VImage.obj
 0002:0000cb40       $cppxdata$?falsecolour@VImage@vips@@QEBA?AV12@PEAVVOption@2@@Z 000000018003eb40     VImage.obj
 0002:0000cb68       $cppxdata$?eye@VImage@vips@@SA?AV12@HHPEAVVOption@2@@Z 000000018003eb68     VImage.obj
 0002:0000cb90       $cppxdata$?extract_band@VImage@vips@@QEBA?AV12@HPEAVVOption@2@@Z 000000018003eb90     VImage.obj
 0002:0000cbb8       $cppxdata$?extract_area@VImage@vips@@QEBA?AV12@HHHHPEAVVOption@2@@Z 000000018003ebb8     VImage.obj
 0002:0000cbe0       $cppxdata$?embed@VImage@vips@@QEBA?AV12@HHHHPEAVVOption@2@@Z 000000018003ebe0     VImage.obj
 0002:0000cc08       $cppxdata$?draw_rect@VImage@vips@@QEBAXV?$vector@NV?$allocator@N@std@@@std@@HHHHPEAVVOption@2@@Z 000000018003ec08     VImage.obj
 0002:0000cc30       $cppxdata$?draw_mask@VImage@vips@@QEBAXV?$vector@NV?$allocator@N@std@@@std@@V12@HHPEAVVOption@2@@Z 000000018003ec30     VImage.obj
 0002:0000cc58       $cppxdata$?draw_line@VImage@vips@@QEBAXV?$vector@NV?$allocator@N@std@@@std@@HHHHPEAVVOption@2@@Z 000000018003ec58     VImage.obj
 0002:0000cc80       $cppxdata$?draw_image@VImage@vips@@QEBAXV12@HHPEAVVOption@2@@Z 000000018003ec80     VImage.obj
 0002:0000cca8       $cppxdata$?draw_flood@VImage@vips@@QEBAXV?$vector@NV?$allocator@N@std@@@std@@HHPEAVVOption@2@@Z 000000018003eca8     VImage.obj
 0002:0000ccd0       $cppxdata$?draw_circle@VImage@vips@@QEBAXV?$vector@NV?$allocator@N@std@@@std@@HHHPEAVVOption@2@@Z 000000018003ecd0     VImage.obj
 0002:0000ccf8       $cppxdata$?divide@VImage@vips@@QEBA?AV12@V12@PEAVVOption@2@@Z 000000018003ecf8     VImage.obj
 0002:0000cd20       $cppxdata$?dECMC@VImage@vips@@QEBA?AV12@V12@PEAVVOption@2@@Z 000000018003ed20     VImage.obj
 0002:0000cd48       $cppxdata$?dE76@VImage@vips@@QEBA?AV12@V12@PEAVVOption@2@@Z 000000018003ed48     VImage.obj
 0002:0000cd70       $cppxdata$?dE00@VImage@vips@@QEBA?AV12@V12@PEAVVOption@2@@Z 000000018003ed70     VImage.obj
 0002:0000cd98       $cppxdata$?csvload@VImage@vips@@SA?AV12@PEBDPEAVVOption@2@@Z 000000018003ed98     VImage.obj
 0002:0000cdc0       $cppxdata$?crop@VImage@vips@@QEBA?AV12@HHHHPEAVVOption@2@@Z 000000018003edc0     VImage.obj
 0002:0000cde8       $cppxdata$?copy@VImage@vips@@QEBA?AV12@PEAVVOption@2@@Z 000000018003ede8     VImage.obj
 0002:0000ce10       $cppxdata$?convsep@VImage@vips@@QEBA?AV12@V12@PEAVVOption@2@@Z 000000018003ee10     VImage.obj
 0002:0000ce38       $cppxdata$?convi@VImage@vips@@QEBA?AV12@V12@PEAVVOption@2@@Z 000000018003ee38     VImage.obj
 0002:0000ce60       $cppxdata$?convf@VImage@vips@@QEBA?AV12@V12@PEAVVOption@2@@Z 000000018003ee60     VImage.obj
 0002:0000ce88       $cppxdata$?convasep@VImage@vips@@QEBA?AV12@V12@PEAVVOption@2@@Z 000000018003ee88     VImage.obj
 0002:0000ceb0       $cppxdata$?conva@VImage@vips@@QEBA?AV12@V12@PEAVVOption@2@@Z 000000018003eeb0     VImage.obj
 0002:0000ced8       $cppxdata$?conv@VImage@vips@@QEBA?AV12@V12@PEAVVOption@2@@Z 000000018003eed8     VImage.obj
 0002:0000cf00       $cppxdata$?composite2@VImage@vips@@QEBA?AV12@V12@W4VipsBlendMode@@PEAVVOption@2@@Z 000000018003ef00     VImage.obj
 0002:0000cf28       $cppxdata$?composite@VImage@vips@@SA?AV12@V?$vector@VVImage@vips@@V?$allocator@VVImage@vips@@@std@@@std@@V?$vector@HV?$allocator@H@std@@@4@PEAVVOption@2@@Z 000000018003ef28     VImage.obj
 0002:0000cf50       $cppxdata$?complexform@VImage@vips@@QEBA?AV12@V12@PEAVVOption@2@@Z 000000018003ef50     VImage.obj
 0002:0000cf78       $cppxdata$?complex2@VImage@vips@@QEBA?AV12@V12@W4VipsOperationComplex2@@PEAVVOption@2@@Z 000000018003ef78     VImage.obj
 0002:0000cfa0       $cppxdata$?compass@VImage@vips@@QEBA?AV12@V12@PEAVVOption@2@@Z 000000018003efa0     VImage.obj
 0002:0000cfc8       $cppxdata$?colourspace@VImage@vips@@QEBA?AV12@W4VipsInterpretation@@PEAVVOption@2@@Z 000000018003efc8     VImage.obj
 0002:0000cff0       $cppxdata$?cast@VImage@vips@@QEBA?AV12@W4VipsBandFormat@@PEAVVOption@2@@Z 000000018003eff0     VImage.obj
 0002:0000d018       $cppxdata$?case_image@VImage@vips@@QEBA?AV12@V?$vector@VVImage@vips@@V?$allocator@VVImage@vips@@@std@@@std@@PEAVVOption@2@@Z 000000018003f018     VImage.obj
 0002:0000d040       $cppxdata$?canny@VImage@vips@@QEBA?AV12@PEAVVOption@2@@Z 000000018003f040     VImage.obj
 0002:0000d068       $cppxdata$?cache@VImage@vips@@QEBA?AV12@PEAVVOption@2@@Z 000000018003f068     VImage.obj
 0002:0000d090       $cppxdata$?byteswap@VImage@vips@@QEBA?AV12@PEAVVOption@2@@Z 000000018003f090     VImage.obj
 0002:0000d0b8       $cppxdata$?buildlut@VImage@vips@@QEBA?AV12@PEAVVOption@2@@Z 000000018003f0b8     VImage.obj
 0002:0000d0e0       $cppxdata$?boolean_const@VImage@vips@@QEBA?AV12@W4VipsOperationBoolean@@V?$vector@NV?$allocator@N@std@@@std@@PEAVVOption@2@@Z 000000018003f0e0     VImage.obj
 0002:0000d108       $cppxdata$?boolean@VImage@vips@@QEBA?AV12@V12@W4VipsOperationBoolean@@PEAVVOption@2@@Z 000000018003f108     VImage.obj
 0002:0000d130       $cppxdata$?black@VImage@vips@@SA?AV12@HHPEAVVOption@2@@Z 000000018003f130     VImage.obj
 0002:0000d158       $cppxdata$?bandunfold@VImage@vips@@QEBA?AV12@PEAVVOption@2@@Z 000000018003f158     VImage.obj
 0002:0000d180       $cppxdata$?bandrank@VImage@vips@@SA?AV12@V?$vector@VVImage@vips@@V?$allocator@VVImage@vips@@@std@@@std@@PEAVVOption@2@@Z 000000018003f180     VImage.obj
 0002:0000d1a8       $cppxdata$?bandmean@VImage@vips@@QEBA?AV12@PEAVVOption@2@@Z 000000018003f1a8     VImage.obj
 0002:0000d1d0       $cppxdata$?bandjoin@VImage@vips@@SA?AV12@V?$vector@VVImage@vips@@V?$allocator@VVImage@vips@@@std@@@std@@PEAVVOption@2@@Z 000000018003f1d0     VImage.obj
 0002:0000d1f8       $cppxdata$?bandfold@VImage@vips@@QEBA?AV12@PEAVVOption@2@@Z 000000018003f1f8     VImage.obj
 0002:0000d220       $cppxdata$?autorot@VImage@vips@@QEBA?AV12@PEAVVOption@2@@Z 000000018003f220     VImage.obj
 0002:0000d248       $cppxdata$?arrayjoin@VImage@vips@@SA?AV12@V?$vector@VVImage@vips@@V?$allocator@VVImage@vips@@@std@@@std@@PEAVVOption@2@@Z 000000018003f248     VImage.obj
 0002:0000d270       $cppxdata$?analyzeload@VImage@vips@@SA?AV12@PEBDPEAVVOption@2@@Z 000000018003f270     VImage.obj
 0002:0000d298       $cppxdata$?affine@VImage@vips@@QEBA?AV12@V?$vector@NV?$allocator@N@std@@@std@@PEAVVOption@2@@Z 000000018003f298     VImage.obj
 0002:0000d2c0       $cppxdata$?add@VImage@vips@@QEBA?AV12@V12@PEAVVOption@2@@Z 000000018003f2c0     VImage.obj
 0002:0000d2e8       $cppxdata$?abs@VImage@vips@@QEBA?AV12@PEAVVOption@2@@Z 000000018003f2e8     VImage.obj
 0002:0000d310       $cppxdata$?Yxy2XYZ@VImage@vips@@QEBA?AV12@PEAVVOption@2@@Z 000000018003f310     VImage.obj
 0002:0000d338       $cppxdata$?XYZ2scRGB@VImage@vips@@QEBA?AV12@PEAVVOption@2@@Z 000000018003f338     VImage.obj
 0002:0000d360       $cppxdata$?XYZ2Yxy@VImage@vips@@QEBA?AV12@PEAVVOption@2@@Z 000000018003f360     VImage.obj
 0002:0000d388       $cppxdata$?XYZ2Lab@VImage@vips@@QEBA?AV12@PEAVVOption@2@@Z 000000018003f388     VImage.obj
 0002:0000d3b0       $cppxdata$?XYZ2CMYK@VImage@vips@@QEBA?AV12@PEAVVOption@2@@Z 000000018003f3b0     VImage.obj
 0002:0000d3d8       $cppxdata$?LabS2LabQ@VImage@vips@@QEBA?AV12@PEAVVOption@2@@Z 000000018003f3d8     VImage.obj
 0002:0000d400       $cppxdata$?LabS2Lab@VImage@vips@@QEBA?AV12@PEAVVOption@2@@Z 000000018003f400     VImage.obj
 0002:0000d428       $cppxdata$?LabQ2sRGB@VImage@vips@@QEBA?AV12@PEAVVOption@2@@Z 000000018003f428     VImage.obj
 0002:0000d450       $cppxdata$?LabQ2LabS@VImage@vips@@QEBA?AV12@PEAVVOption@2@@Z 000000018003f450     VImage.obj
 0002:0000d478       $cppxdata$?LabQ2Lab@VImage@vips@@QEBA?AV12@PEAVVOption@2@@Z 000000018003f478     VImage.obj
 0002:0000d4a0       $cppxdata$?Lab2XYZ@VImage@vips@@QEBA?AV12@PEAVVOption@2@@Z 000000018003f4a0     VImage.obj
 0002:0000d4c8       $cppxdata$?Lab2LabS@VImage@vips@@QEBA?AV12@PEAVVOption@2@@Z 000000018003f4c8     VImage.obj
 0002:0000d4f0       $cppxdata$?Lab2LabQ@VImage@vips@@QEBA?AV12@PEAVVOption@2@@Z 000000018003f4f0     VImage.obj
 0002:0000d518       $cppxdata$?Lab2LCh@VImage@vips@@QEBA?AV12@PEAVVOption@2@@Z 000000018003f518     VImage.obj
 0002:0000d540       $cppxdata$?LCh2Lab@VImage@vips@@QEBA?AV12@PEAVVOption@2@@Z 000000018003f540     VImage.obj
 0002:0000d568       $cppxdata$?LCh2CMC@VImage@vips@@QEBA?AV12@PEAVVOption@2@@Z 000000018003f568     VImage.obj
 0002:0000d590       $cppxdata$?HSV2sRGB@VImage@vips@@QEBA?AV12@PEAVVOption@2@@Z 000000018003f590     VImage.obj
 0002:0000d5b8       $cppxdata$?CMYK2XYZ@VImage@vips@@QEBA?AV12@PEAVVOption@2@@Z 000000018003f5b8     VImage.obj
 0002:0000d5e0       $cppxdata$?CMC2LCh@VImage@vips@@QEBA?AV12@PEAVVOption@2@@Z 000000018003f5e0     VImage.obj
 0002:0000d608       $cppxdata$?write_to_target@VImage@vips@@QEBAXPEBDVVTarget@2@PEAVVOption@2@@Z 000000018003f608     VImage.obj
 0002:0000d630       $cppxdata$?write@VImage@vips@@QEBA?AV12@V12@@Z 000000018003f630     VImage.obj
 0002:0000d658       $cppxdata$?new_from_source@VImage@vips@@SA?AV12@VVSource@2@PEBDPEAVVOption@2@@Z 000000018003f658     VImage.obj
 0002:0000d680       $cppxdata$?new_from_buffer@VImage@vips@@SA?AV12@PEBX_KPEBDPEAVVOption@2@@Z 000000018003f680     VImage.obj
 0002:0000d6a8       $cppxdata$?new_from_file@VImage@vips@@SA?AV12@PEBDPEAVVOption@2@@Z 000000018003f6a8     VImage.obj
 0002:0000d6d0       $cppxdata$?set@VOption@vips@@QEAAPEAV12@PEBDV?$vector@VVImage@vips@@V?$allocator@VVImage@vips@@@std@@@std@@@Z 000000018003f6d0     VImage.obj
 0002:0000d6f8       $cppxdata$?set@VOption@vips@@QEAAPEAV12@PEBDV?$vector@HV?$allocator@H@std@@@std@@@Z 000000018003f6f8     VImage.obj
 0002:0000d720       $cppxdata$?set@VOption@vips@@QEAAPEAV12@PEBDV?$vector@NV?$allocator@N@std@@@std@@@Z 000000018003f720     VImage.obj
 0002:0000d748       $cppxdata$?set@VOption@vips@@QEAAPEAV12@PEBDVVImage@2@@Z 000000018003f748     VImage.obj
 0002:0000d770       $cppxdata$?invert@vips@@YA?AV?$vector@NV?$allocator@N@std@@@std@@V23@@Z 000000018003f770     VImage.obj
 0002:0000d798       $cppxdata$?negate@vips@@YA?AV?$vector@NV?$allocator@N@std@@@std@@V23@@Z 000000018003f798     VImage.obj
 0002:0000d7c0       $cppxdata$?round@VImage@vips@@QEBA?AV12@W4VipsOperationRound@@PEAVVOption@2@@Z 000000018003f7c0     VImage.obj
 0002:0000d7e8       $cppxdata$?rot@VImage@vips@@QEBA?AV12@W4VipsAngle@@PEAVVOption@2@@Z 000000018003f7e8     VImage.obj
 0002:0000d810       $cppxdata$?rank@VImage@vips@@QEBA?AV12@HHHPEAVVOption@2@@Z 000000018003f810     VImage.obj
 0002:0000d838       $cppxdata$?morph@VImage@vips@@QEBA?AV12@V12@W4VipsOperationMorphology@@PEAVVOption@2@@Z 000000018003f838     VImage.obj
 0002:0000d860       $cppxdata$?math2_const@VImage@vips@@QEBA?AV12@W4VipsOperationMath2@@V?$vector@NV?$allocator@N@std@@@std@@PEAVVOption@2@@Z 000000018003f860     VImage.obj
 0002:0000d888       $cppxdata$?math2@VImage@vips@@QEBA?AV12@V12@W4VipsOperationMath2@@PEAVVOption@2@@Z 000000018003f888     VImage.obj
 0002:0000d8b0       $cppxdata$?math@VImage@vips@@QEBA?AV12@W4VipsOperationMath@@PEAVVOption@2@@Z 000000018003f8b0     VImage.obj
 0002:0000d8d8       $cppxdata$?linear@VImage@vips@@QEBA?AV12@V?$vector@NV?$allocator@N@std@@@std@@0PEAVVOption@2@@Z 000000018003f8d8     VImage.obj
 0002:0000d900       $cppxdata$?ifthenelse@VImage@vips@@QEBA?AV12@V12@0PEAVVOption@2@@Z 000000018003f900     VImage.obj
 0002:0000d928       $cppxdata$?flip@VImage@vips@@QEBA?AV12@W4VipsDirection@@PEAVVOption@2@@Z 000000018003f928     VImage.obj
 0002:0000d950       $cppxdata$?complexget@VImage@vips@@QEBA?AV12@W4VipsOperationComplexget@@PEAVVOption@2@@Z 000000018003f950     VImage.obj
 0002:0000d978       $cppxdata$?complex@VImage@vips@@QEBA?AV12@W4VipsOperationComplex@@PEAVVOption@2@@Z 000000018003f978     VImage.obj
 0002:0000d9a0       $cppxdata$?bandjoin_const@VImage@vips@@QEBA?AV12@V?$vector@NV?$allocator@N@std@@@std@@PEAVVOption@2@@Z 000000018003f9a0     VImage.obj
 0002:0000d9c8       $cppxdata$?bandbool@VImage@vips@@QEBA?AV12@W4VipsOperationBoolean@@PEAVVOption@2@@Z 000000018003f9c8     VImage.obj
 0002:0000e368       $unwind$?coding@VImage@vips@@QEBA?AW4VipsCoding@@XZ 0000000180040368     VError.obj
 0002:0000e368       $unwind$?format@VImage@vips@@QEBA?AW4VipsBandFormat@@XZ 0000000180040368     VError.obj
 0002:0000e368       $unwind$?bands@VImage@vips@@QEBAHXZ 0000000180040368     VError.obj
 0002:0000e368       $unwind$?guess_interpretation@VImage@vips@@QEBA?AW4VipsInterpretation@@XZ 0000000180040368     VError.obj
 0002:0000e368       $unwind$??RVImage@vips@@QEBA?AV?$vector@NV?$allocator@N@std@@@std@@HH@Z 0000000180040368     VImage.obj
 0002:0000e368       $unwind$??1VImage@vips@@QEAA@XZ 0000000180040368     VError.obj
 0002:0000e368       $unwind$?new_from_buffer@VImage@vips@@SA?AV12@AEBV?$basic_string@DU?$char_traits@D@std@@V?$allocator@D@2@@std@@PEBDPEAVVOption@2@@Z 0000000180040368     VImage.obj
 0002:0000e368       $unwind$?width@VImage@vips@@QEBAHXZ 0000000180040368     VError.obj
 0002:0000e368       $unwind$?xres@VImage@vips@@QEBANXZ 0000000180040368     VError.obj
 0002:0000e368       $unwind$??0length_error@std@@QEAA@PEBD@Z 0000000180040368     libcpmt:xthrow.obj
 0002:0000e368       $unwind$??1VSource@vips@@QEAA@XZ 0000000180040368     VError.obj
 0002:0000e368       $unwind$?yres@VImage@vips@@QEBANXZ 0000000180040368     VError.obj
 0002:0000e368       $unwind$?get_interpolate@VInterpolate@vips@@QEBAPEAU_VipsInterpolate@@XZ 0000000180040368     VError.obj
 0002:0000e368       $unwind$?xoffset@VImage@vips@@QEBAHXZ 0000000180040368     VError.obj
 0002:0000e368       $unwind$?equivalent@error_category@std@@UEBA_NHAEBVerror_condition@2@@Z 0000000180040368     VError.obj
 0002:0000e368       $unwind$?_Raise@exception@stdext@@QEBAXXZ 0000000180040368     VError.obj
 0002:0000e368       $unwind$?yoffset@VImage@vips@@QEBAHXZ 0000000180040368     VError.obj
 0002:0000e368       $unwind$?interpretation@VImage@vips@@QEBA?AW4VipsInterpretation@@XZ 0000000180040368     VError.obj
 0002:0000e368       $unwind$?has_alpha@VImage@vips@@QEBA_NXZ 0000000180040368     VError.obj
 0002:0000e368       $unwind$??1VInterpolate@vips@@QEAA@XZ 0000000180040368     VError.obj
 0002:0000e368       $unwind$?__mbrtowc_utf8@__crt_mbstring@@YA_KPEA_WPEBD_KPEAU_Mbstatet@@@Z 0000000180040368     libucrt:mbrtowc.obj
 0002:0000e368       $unwind$?median@VImage@vips@@QEBA?AV12@HPEAVVOption@2@@Z 0000000180040368     VError.obj
 0002:0000e368       $unwind$?filename@VImage@vips@@QEBAPEBDXZ 0000000180040368     VError.obj
 0002:0000e368       $unwind$?get_target@VTarget@vips@@QEBAPEAU_VipsTarget@@XZ 0000000180040368     VError.obj
 0002:0000e368       $unwind$??1VTarget@vips@@QEAA@XZ 0000000180040368     VError.obj
 0002:0000e368       $unwind$?data@VImage@vips@@QEBAPEBXXZ 0000000180040368     VError.obj
 0002:0000e368       $unwind$?get_image@VImage@vips@@QEBAPEAU_VipsImage@@XZ 0000000180040368     VError.obj
 0002:0000e368       $unwind$?get_source@VSource@vips@@QEBAPEAU_VipsSource@@XZ 0000000180040368     VError.obj
 0002:0000e368       $unwind$?height@VImage@vips@@QEBAHXZ 0000000180040368     VError.obj
 0002:0000e370       $unwind$__acrt_uninitialize_locks 0000000180040370     libucrt:locks.obj
 0002:0000e370       $unwind$??0VSource@vips@@QEAA@PEAU_VipsSource@@W4VSteal@1@@Z 0000000180040370     VError.obj
 0002:0000e370       $unwind$??4VInterpolate@vips@@QEAAAEAV01@$$QEAV01@@Z 0000000180040370     VError.obj
 0002:0000e370       $unwind$_clrfp             0000000180040370     libucrt:fpctrl.obj
 0002:0000e370       $unwind$??0VTarget@vips@@QEAA@PEAU_VipsTarget@@W4VSteal@1@@Z 0000000180040370     VError.obj
 0002:0000e370       $unwind$??4VInterpolate@vips@@QEAAAEAV01@AEBV01@@Z 0000000180040370     VError.obj
 0002:0000e370       $unwind$_IsExceptionObjectToBeDestroyed 0000000180040370     libvcruntime:ehhelpers.obj
 0002:0000e370       $unwind$??4VSource@vips@@QEAAAEAV01@$$QEAV01@@Z 0000000180040370     VError.obj
 0002:0000e370       $unwind$??0VInterpolate@vips@@QEAA@PEAU_VipsInterpolate@@W4VSteal@1@@Z 0000000180040370     VError.obj
 0002:0000e370       $unwind$??4VImage@vips@@QEAAAEAV01@$$QEAV01@@Z 0000000180040370     VError.obj
 0002:0000e370       $unwind$??4VImage@vips@@QEAAAEAV01@AEBV01@@Z 0000000180040370     VError.obj
 0002:0000e370       $unwind$??4VSource@vips@@QEAAAEAV01@AEBV01@@Z 0000000180040370     VError.obj
 0002:0000e370       $unwind$_set_statfp        0000000180040370     libucrt:fpctrl.obj
 0002:0000e370       $unwind$??4VTarget@vips@@QEAAAEAV01@AEBV01@@Z 0000000180040370     VError.obj
 0002:0000e370       $unwind$__std_type_info_destroy_list 0000000180040370     libvcruntime:std_type_info.obj
 0002:0000e370       $unwind$__acrt_allocate_buffer_for_argv 0000000180040370     libucrt:argv_parsing.obj
 0002:0000e370       $unwind$__scrt_release_startup_lock 0000000180040370     LIBCMT:utility.obj
 0002:0000e370       $unwind$?exp10@VImage@vips@@QEBA?AV12@PEAVVOption@2@@Z 0000000180040370     VError.obj
 0002:0000e370       $unwind$?exp@VImage@vips@@QEBA?AV12@PEAVVOption@2@@Z 0000000180040370     VError.obj
 0002:0000e370       $unwind$??4VTarget@vips@@QEAAAEAV01@$$QEAV01@@Z 0000000180040370     VError.obj
 0002:0000e370       $unwind$?exit_or_terminate_process@@YAXI@Z 0000000180040370     libucrt:exit.obj
 0002:0000e370       $unwind$?log10@VImage@vips@@QEBA?AV12@PEAVVOption@2@@Z 0000000180040370     VError.obj
 0002:0000e370       $unwind$?try_cor_exit_process@@YAXI@Z 0000000180040370     libucrt:exit.obj
 0002:0000e370       $unwind$?log@VImage@vips@@QEBA?AV12@PEAVVOption@2@@Z 0000000180040370     VError.obj
 0002:0000e370       $unwind$?to_vector@vips@@YA?AV?$vector@NV?$allocator@N@std@@@std@@N@Z 0000000180040370     VImage.obj
 0002:0000e370       $unwind$?atan@VImage@vips@@QEBA?AV12@PEAVVOption@2@@Z 0000000180040370     VError.obj
 0002:0000e370       $unwind$?acos@VImage@vips@@QEBA?AV12@PEAVVOption@2@@Z 0000000180040370     VError.obj
 0002:0000e370       $unwind$?asin@VImage@vips@@QEBA?AV12@PEAVVOption@2@@Z 0000000180040370     VError.obj
 0002:0000e370       $unwind$?tan@VImage@vips@@QEBA?AV12@PEAVVOption@2@@Z 0000000180040370     VError.obj
 0002:0000e370       $unwind$?cos@VImage@vips@@QEBA?AV12@PEAVVOption@2@@Z 0000000180040370     VError.obj
 0002:0000e370       $unwind$?sin@VImage@vips@@QEBA?AV12@PEAVVOption@2@@Z 0000000180040370     VError.obj
 0002:0000e370       $unwind$?conj@VImage@vips@@QEBA?AV12@PEAVVOption@2@@Z 0000000180040370     VError.obj
 0002:0000e370       $unwind$?rect@VImage@vips@@QEBA?AV12@PEAVVOption@2@@Z 0000000180040370     VError.obj
 0002:0000e370       $unwind$__scrt_initialize_crt 0000000180040370     LIBCMT:utility.obj
 0002:0000e370       $unwind$__scrt_uninitialize_crt 0000000180040370     LIBCMT:utility.obj
 0002:0000e370       $unwind$??1?$vector@HV?$allocator@H@std@@@std@@QEAA@XZ 0000000180040370     VError.obj
 0002:0000e370       $unwind$?polar@VImage@vips@@QEBA?AV12@PEAVVOption@2@@Z 0000000180040370     VError.obj
 0002:0000e370       $unwind$?imag@VImage@vips@@QEBA?AV12@PEAVVOption@2@@Z 0000000180040370     VError.obj
 0002:0000e370       $unwind$?real@VImage@vips@@QEBA?AV12@PEAVVOption@2@@Z 0000000180040370     VError.obj
 0002:0000e370       $unwind$?bandeor@VImage@vips@@QEBA?AV12@PEAVVOption@2@@Z 0000000180040370     VError.obj
 0002:0000e370       $unwind$?bandor@VImage@vips@@QEBA?AV12@PEAVVOption@2@@Z 0000000180040370     VError.obj
 0002:0000e370       $unwind$_callnewh          0000000180040370     libucrt:new_handler.obj
 0002:0000e370       $unwind$?bandand@VImage@vips@@QEBA?AV12@PEAVVOption@2@@Z 0000000180040370     VError.obj
 0002:0000e370       $unwind$?rint@VImage@vips@@QEBA?AV12@PEAVVOption@2@@Z 0000000180040370     VError.obj
 0002:0000e370       $unwind$?ceil@VImage@vips@@QEBA?AV12@PEAVVOption@2@@Z 0000000180040370     VError.obj
 0002:0000e370       $unwind$?floor@VImage@vips@@QEBA?AV12@PEAVVOption@2@@Z 0000000180040370     VError.obj
 0002:0000e370       $unwind$_calloc_base       0000000180040370     libucrt:calloc_base.obj
 0002:0000e370       $unwind$??1?$vector@NV?$allocator@N@std@@@std@@QEAA@XZ 0000000180040370     VError.obj
 0002:0000e370       $unwind$?rot270@VImage@vips@@QEBA?AV12@PEAVVOption@2@@Z 0000000180040370     VError.obj
 0002:0000e370       $unwind$??1?$basic_string@DU?$char_traits@D@std@@V?$allocator@D@2@@std@@QEAA@XZ 0000000180040370     VError.obj
 0002:0000e370       $unwind$?rot180@VImage@vips@@QEBA?AV12@PEAVVOption@2@@Z 0000000180040370     VError.obj
 0002:0000e370       $unwind$__acrt_get_process_end_policy 0000000180040370     libucrt:win_policies.obj
 0002:0000e370       $unwind$initialize_pointers 0000000180040370     libucrt:initialization.obj
 0002:0000e370       $unwind$?rot90@VImage@vips@@QEBA?AV12@PEAVVOption@2@@Z 0000000180040370     VError.obj
 0002:0000e370       $unwind$_malloc_base       0000000180040370     libucrt:malloc_base.obj
 0002:0000e370       $unwind$?flipver@VImage@vips@@QEBA?AV12@PEAVVOption@2@@Z 0000000180040370     VError.obj
 0002:0000e370       $unwind$?fliphor@VImage@vips@@QEBA?AV12@PEAVVOption@2@@Z 0000000180040370     VError.obj
 0002:0000e370       $unwind$__vcrt_freeptd     0000000180040370     libvcruntime:per_thread_data.obj
 0002:0000e370       $unwind$?system@VImage@vips@@SAXPEBDPEAVVOption@2@@Z 0000000180040370     VImage.obj
 0002:0000e370       $unwind$_fflush_nolock     0000000180040370     libucrt:fflush.obj
 0002:0000e370       $unwind$__vcrt_FlsGetValue 0000000180040370     libvcruntime:winapi_downlevel.obj
 0002:0000e370       $unwind$??_Gexception@stdext@@UEAAPEAXI@Z 0000000180040370     VError.obj
 0002:0000e370       $unwind$__acrt_initialize_locks 0000000180040370     libucrt:locks.obj
 0002:0000e370       $unwind$__vcrt_FlsFree     0000000180040370     libvcruntime:winapi_downlevel.obj
 0002:0000e370       $unwind$__vcrt_FlsAlloc    0000000180040370     libvcruntime:winapi_downlevel.obj
 0002:0000e370       $unwind$_CreateFrameInfo   0000000180040370     libvcruntime:risctrnsctrl.obj
 0002:0000e370       $unwind$_SetThrowImageBase 0000000180040370     libvcruntime:risctrnsctrl.obj
 0002:0000e370       $unwind$??_Gruntime_error@std@@UEAAPEAXI@Z 0000000180040370     VError.obj
 0002:0000e370       $unwind$__vcrt_uninitialize_locks 0000000180040370     libvcruntime:locks.obj
 0002:0000e370       $unwind$__vcrt_initialize_locks 0000000180040370     libvcruntime:locks.obj
 0002:0000e370       $unwind$??0exception@std@@QEAA@AEBV01@@Z 0000000180040370     libcpmt:xonce.obj
 0002:0000e370       $unwind$__acrt_stdio_free_buffer_nolock 0000000180040370     libucrt:_freebuf.obj
 0002:0000e370       $unwind$??0bad_alloc@std@@QEAA@AEBV01@@Z 0000000180040370     libcpmt:xthrow.obj
 0002:0000e370       $unwind$uninitialize_allocated_memory 0000000180040370     libucrt:initialization.obj
 0002:0000e370       $unwind$__acrt_AppPolicyGetProcessTerminationMethodInternal 0000000180040370     libucrt:winapi_thunks.obj
 0002:0000e370       $unwind$strcpy_s           0000000180040370     libucrt:strcpy_s.obj
 0002:0000e370       $unwind$__acrt_update_multibyte_info 0000000180040370     libucrt:locale_update.obj
 0002:0000e370       $unwind$??0bad_array_new_length@std@@QEAA@AEBV01@@Z 0000000180040370     LIBCMT:throw_bad_alloc.obj
 0002:0000e370       $unwind$??0logic_error@std@@QEAA@AEBV01@@Z 0000000180040370     libcpmt:xthrow.obj
 0002:0000e370       $unwind$__acrt_update_locale_info 0000000180040370     libucrt:locale_update.obj
 0002:0000e370       $unwind$??_G_System_error@std@@UEAAPEAXI@Z 0000000180040370     VError.obj
 0002:0000e370       $unwind$?message@_Iostream_error_category@std@@UEBA?AV?$basic_string@DU?$char_traits@D@std@@V?$allocator@D@2@@2@H@Z 0000000180040370     VError.obj
 0002:0000e370       $unwind$?_Buy@?$vector@NV?$allocator@N@std@@@std@@AEAA_N_K@Z 0000000180040370     VError.obj
 0002:0000e370       $unwind$??_G_Iostream_error_category@std@@UEAAPEAXI@Z 0000000180040370     VError.obj
 0002:0000e370       $unwind$__acrt_FlsGetValue 0000000180040370     libucrt:winapi_thunks.obj
 0002:0000e370       $unwind$__acrt_uninitialize_stdio 0000000180040370     libucrt:_file.obj
 0002:0000e370       $unwind$??AVImage@vips@@QEBA?AV01@H@Z 0000000180040370     VImage.obj
 0002:0000e370       $unwind$_SetImageBase      0000000180040370     libvcruntime:risctrnsctrl.obj
 0002:0000e370       $unwind$??0length_error@std@@QEAA@AEBV01@@Z 0000000180040370     libcpmt:xthrow.obj
 0002:0000e370       $unwind$?ExFilterRethrow@@YAHPEAU_EXCEPTION_POINTERS@@PEAUEHExceptionRecord@@PEAH@Z 0000000180040370     libvcruntime:frame.obj
 0002:0000e370       $unwind$__acrt_FlsFree     0000000180040370     libucrt:winapi_thunks.obj
 0002:0000e370       $unwind$__raise_securityfailure 0000000180040370     LIBCMT:gs_report.obj
 0002:0000e370       $unwind$??0bad_exception@std@@QEAA@AEBV01@@Z 0000000180040370     libvcruntime:frame.obj
 0002:0000e370       $unwind$??0VImage@vips@@QEAA@PEAU_VipsImage@@W4VSteal@1@@Z 0000000180040370     VError.obj
 0002:0000e370       $unwind$??_Gfailure@ios_base@std@@UEAAPEAXI@Z 0000000180040370     VError.obj
 0002:0000e370       $unwind$__acrt_FlsAlloc    0000000180040370     libucrt:winapi_thunks.obj
 0002:0000e370       $unwind$__acrt_uninitialize_winapi_thunks 0000000180040370     libucrt:winapi_thunks.obj
 0002:0000e370       $unwind$?_Buy@?$vector@VVImage@vips@@V?$allocator@VVImage@vips@@@std@@@std@@AEAA_N_K@Z 0000000180040370     VImage.obj
 0002:0000e370       $unwind$__acrt_getptd_head 0000000180040370     libucrt:per_thread_data.obj
 0002:0000e370       $unwind$?initialize_pointers@@YAHXZ 0000000180040370     libcpmt:winapisupp.obj
 0002:0000e370       $unwind$??1VError@vips@@UEAA@XZ 0000000180040370     VError.obj
 0002:0000e370       $unwind$?ExecutionInCatch@__FrameHandler3@@SA_NPEAU_xDISPATCHER_CONTEXT@@PEBU_s_FuncInfo@@@Z 0000000180040370     libvcruntime:risctrnsctrl.obj
 0002:0000e370       $unwind$??1?$vector@VVImage@vips@@V?$allocator@VVImage@vips@@@std@@@std@@QEAA@XZ 0000000180040370     VImage.obj
 0002:0000e370       $unwind$??2@YAPEAX_K@Z     0000000180040370     LIBCMT:new_scalar.obj
 0002:0000e370       $unwind$__acrt_freeptd     0000000180040370     libucrt:per_thread_data.obj
 0002:0000e370       $unwind$?StateFromIp@__FrameHandler3@@SAHPEBU_s_FuncInfo@@PEAU_xDISPATCHER_CONTEXT@@_K@Z 0000000180040370     libvcruntime:ehstate.obj
 0002:0000e370       $unwind$??_Gtype_info@@UEAAPEAXI@Z 0000000180040370     LIBCMT:std_type_info_static.obj
 0002:0000e370       $unwind$??4VError@vips@@QEAAAEAV01@AEBV01@@Z 0000000180040370     VError.obj
 0002:0000e370       $unwind$?GetUnwindTryBlock@__FrameHandler3@@SAHPEA_KPEAU_xDISPATCHER_CONTEXT@@PEBU_s_FuncInfo@@@Z 0000000180040370     libvcruntime:ehstate.obj
 0002:0000e370       $unwind$?_Buy@?$vector@HV?$allocator@H@std@@@std@@AEAA_N_K@Z 0000000180040370     VError.obj
 0002:0000e370       $unwind$__std_exception_destroy 0000000180040370     libvcruntime:std_exception.obj
 0002:0000e378       $unwind$__acrt_uninitialize_lowio 0000000180040378     libucrt:ioinit.obj
 0002:0000e378       $unwind$?SetUnwindTryBlock@__FrameHandler3@@SAXPEA_KPEAU_xDISPATCHER_CONTEXT@@PEBU_s_FuncInfo@@H@Z 0000000180040378     libvcruntime:ehstate.obj
 0002:0000e378       $unwind$__acrt_execute_uninitializers 0000000180040378     libucrt:shared_initialization.obj
 0002:0000e378       $unwind$_realloc_base      0000000180040378     libucrt:realloc_base.obj
 0002:0000e378       $unwind$?replace_current_thread_locale_nolock@@YAXQEAU__acrt_ptd@@QEAU__crt_locale_data@@@Z 0000000180040378     libucrt:per_thread_data.obj
 0002:0000e378       $unwind$??$common_initialize_environment_nolock@D@@YAHXZ 0000000180040378     libucrt:environment_initialization.obj
 0002:0000e378       $unwind$_close_nolock      0000000180040378     libucrt:close.obj
 0002:0000e378       $unwind$_initterm_e        0000000180040378     libucrt:initterm.obj
 0002:0000e378       $unwind$??_Gbad_array_new_length@std@@UEAAPEAXI@Z 0000000180040378     LIBCMT:throw_bad_alloc.obj
 0002:0000e378       $unwind$strncpy_s          0000000180040378     libucrt:strncpy_s.obj
 0002:0000e378       $unwind$__vcrt_FlsSetValue 0000000180040378     libvcruntime:winapi_downlevel.obj
 0002:0000e378       $unwind$_RTC_Terminate     0000000180040378     LIBCMT:initsect.obj
 0002:0000e378       $unwind$_FindAndUnlinkFrame 0000000180040378     libvcruntime:risctrnsctrl.obj
 0002:0000e378       $unwind$_updatetlocinfoEx_nolock 0000000180040378     libucrt:locale_refcounting.obj
 0002:0000e378       $unwind$?make_error_code@std@@YA?AVerror_code@1@W4io_errc@1@@Z 0000000180040378     VError.obj
 0002:0000e378       $unwind$??_Gexception@std@@UEAAPEAXI@Z 0000000180040378     libcpmt:xonce.obj
 0002:0000e378       $unwind$??_Gbad_alloc@std@@UEAAPEAXI@Z 0000000180040378     libcpmt:xthrow.obj
 0002:0000e378       $unwind$__acrt_LocaleNameToLCID 0000000180040378     libucrt:winapi_thunks.obj
 0002:0000e378       $unwind$??_Glength_error@std@@UEAAPEAXI@Z 0000000180040378     libcpmt:xthrow.obj
 0002:0000e378       $unwind$_RTC_Initialize    0000000180040378     LIBCMT:initsect.obj
 0002:0000e378       $unwind$??_Glogic_error@std@@UEAAPEAXI@Z 0000000180040378     libcpmt:xthrow.obj
 0002:0000e378       $unwind$__acrt_errno_map_os_error 0000000180040378     libucrt:errno.obj
 0002:0000e378       $unwind$__acrt_FlsSetValue 0000000180040378     libucrt:winapi_thunks.obj
 0002:0000e378       $unwind$_fclose_nolock     0000000180040378     libucrt:fclose.obj
 0002:0000e378       $unwind$??_Gbad_exception@std@@UEAAPEAXI@Z 0000000180040378     libvcruntime:frame.obj
 0002:0000e384       $unwind$?_Makestr@_System_error@std@@CA?AV?$basic_string@DU?$char_traits@D@std@@V?$allocator@D@2@@2@Verror_code@2@V32@@Z 0000000180040384     VError.obj
 0002:0000e3a0       $stateUnwindMap$?_Makestr@_System_error@std@@CA?AV?$basic_string@DU?$char_traits@D@std@@V?$allocator@D@2@@2@Verror_code@2@V32@@Z 00000001800403a0     VError.obj
 0002:0000e3b0       $ip2state$?_Makestr@_System_error@std@@CA?AV?$basic_string@DU?$char_traits@D@std@@V?$allocator@D@2@@2@Verror_code@2@V32@@Z 00000001800403b0     VError.obj
 0002:0000e3d0       $unwind$??0failure@ios_base@std@@QEAA@PEBDAEBVerror_code@2@@Z 00000001800403d0     VError.obj
 0002:0000e3ec       $stateUnwindMap$??0failure@ios_base@std@@QEAA@PEBDAEBVerror_code@2@@Z 00000001800403ec     VError.obj
 0002:0000e3f8       $ip2state$??0failure@ios_base@std@@QEAA@PEBDAEBVerror_code@2@@Z 00000001800403f8     VError.obj
 0002:0000e418       $unwind$_invalid_parameter_noinfo 0000000180040418     libucrt:invalid_parameter.obj
 0002:0000e418       $unwind$_log10_special     0000000180040418     libucrt:log_special.obj
 0002:0000e418       $unwind$?_Doraise@failure@ios_base@std@@MEBAXXZ 0000000180040418     VError.obj
 0002:0000e418       $unwind$_invalid_parameter_noinfo_noreturn 0000000180040418     libucrt:invalid_parameter.obj
 0002:0000e420       $unwind$??0VError@vips@@QEAA@AEBV?$basic_string@DU?$char_traits@D@std@@V?$allocator@D@2@@std@@@Z 0000000180040420     VError.obj
 0002:0000e430       $stateUnwindMap$??0VError@vips@@QEAA@XZ 0000000180040430     VError.obj
 0002:0000e430       $stateUnwindMap$??0VError@vips@@QEAA@AEBV01@@Z 0000000180040430     VError.obj
 0002:0000e430       $stateUnwindMap$??0VError@vips@@QEAA@AEBV?$basic_string@DU?$char_traits@D@std@@V?$allocator@D@2@@std@@@Z 0000000180040430     VError.obj
 0002:0000e438       $ip2state$??0VError@vips@@QEAA@AEBV?$basic_string@DU?$char_traits@D@std@@V?$allocator@D@2@@std@@@Z 0000000180040438     VError.obj
 0002:0000e440       $unwind$??0VError@vips@@QEAA@XZ 0000000180040440     VError.obj
 0002:0000e450       $ip2state$??0VError@vips@@QEAA@XZ 0000000180040450     VError.obj
 0002:0000e458       $unwind$??0VError@vips@@QEAA@AEBV01@@Z 0000000180040458     VError.obj
 0002:0000e468       $ip2state$??0VError@vips@@QEAA@AEBV01@@Z 0000000180040468     VError.obj
 0002:0000e470       $unwind$??_EVError@vips@@UEAAPEAXI@Z 0000000180040470     VError.obj
 0002:0000e47c       $chain$0$??_EVError@vips@@UEAAPEAXI@Z 000000018004047c     VError.obj
 0002:0000e490       $chain$1$??_EVError@vips@@UEAAPEAXI@Z 0000000180040490     VError.obj
 0002:0000e4a0       $unwind$strpbrk            00000001800404a0     libucrt:strpbrk.obj
 0002:0000e4a0       $unwind$??0VObject@vips@@QEAA@PEAU_VipsObject@@W4VSteal@1@@Z 00000001800404a0     VError.obj
 0002:0000e4a0       $unwind$?set@VImage@vips@@QEAAXPEBDH@Z 00000001800404a0     VError.obj
 0002:0000e4a0       $unwind$??4VObject@vips@@QEAAAEAV01@AEBV01@@Z 00000001800404a0     VError.obj
 0002:0000e4a0       $unwind$?set@VImage@vips@@QEAAXPEBD0@Z 00000001800404a0     VError.obj
 0002:0000e4b0       $unwind$??0VOption@vips@@QEAA@XZ 00000001800404b0     VError.obj
 0002:0000e4bc       $unwind$??0VOption@vips@@QEAA@AEBV01@@Z 00000001800404bc     VError.obj
 0002:0000e4d4       $stateUnwindMap$??0VOption@vips@@QEAA@AEBV01@@Z 00000001800404d4     VError.obj
 0002:0000e4e0       $ip2state$??0VOption@vips@@QEAA@AEBV01@@Z 00000001800404e0     VError.obj
 0002:0000e4f0       $unwind$??4VOption@vips@@QEAAAEAV01@AEBV01@@Z 00000001800404f0     VError.obj
 0002:0000e50c       $unwind$??_EVOption@vips@@UEAAPEAXI@Z 000000018004050c     VError.obj
 0002:0000e528       $ip2state$??_EVOption@vips@@UEAAPEAXI@Z 0000000180040528     VError.obj
 0002:0000e530       $unwind$_invalid_parameter 0000000180040530     libucrt:invalid_parameter.obj
 0002:0000e530       $unwind$?set@VImage@vips@@QEAAXPEBDPEAHH@Z 0000000180040530     VError.obj
 0002:0000e530       $unwind$?set@VImage@vips@@QEAAXPEBDP6AHPEAX1@Z1_K@Z 0000000180040530     VError.obj
 0002:0000e544       $unwind$?set@VImage@vips@@QEAAXPEBDV?$vector@HV?$allocator@H@std@@@std@@@Z 0000000180040544     VError.obj
 0002:0000e55c       $unwind$?set@VImage@vips@@QEAAXPEBDN@Z 000000018004055c     VError.obj
 0002:0000e56c       $unwind$??0VImage@vips@@QEAA@$$QEAV01@@Z 000000018004056c     VError.obj
 0002:0000e56c       $unwind$??0VTarget@vips@@QEAA@AEBV01@@Z 000000018004056c     VError.obj
 0002:0000e56c       $unwind$??0VInterpolate@vips@@QEAA@$$QEAV01@@Z 000000018004056c     VError.obj
 0002:0000e56c       $unwind$??0VInterpolate@vips@@QEAA@AEBV01@@Z 000000018004056c     VError.obj
 0002:0000e56c       $unwind$??$construct@VVImage@vips@@V12@@?$_Default_allocator_traits@V?$allocator@VVImage@vips@@@std@@@std@@SAXAEAV?$allocator@VVImage@vips@@@1@QEAVVImage@vips@@$$QEAV34@@Z 000000018004056c     VImage.obj
 0002:0000e56c       $unwind$??0VTarget@vips@@QEAA@$$QEAV01@@Z 000000018004056c     VError.obj
 0002:0000e56c       $unwind$?new_memory@VImage@vips@@SA?AV12@XZ 000000018004056c     VError.obj
 0002:0000e56c       $unwind$?new_matrix@VImage@vips@@SA?AV12@HH@Z 000000018004056c     VImage.obj
 0002:0000e56c       $unwind$?get_typeof@VImage@vips@@QEBA_KPEBD@Z 000000018004056c     VError.obj
 0002:0000e56c       $unwind$??0VSource@vips@@QEAA@$$QEAV01@@Z 000000018004056c     VError.obj
 0002:0000e56c       $unwind$??0VImage@vips@@QEAA@AEBV01@@Z 000000018004056c     VError.obj
 0002:0000e56c       $unwind$??0VSource@vips@@QEAA@AEBV01@@Z 000000018004056c     VError.obj
 0002:0000e56c       $unwind$?remove@VImage@vips@@QEBA_NPEBD@Z 000000018004056c     VError.obj
 0002:0000e578       $unwind$?new_from_descriptor@VSource@vips@@SA?AV12@H@Z 0000000180040578     VConnection.obj
 0002:0000e578       $unwind$?new_from_file@VSource@vips@@SA?AV12@PEBD@Z 0000000180040578     VConnection.obj
 0002:0000e578       $unwind$?new_from_options@VSource@vips@@SA?AV12@PEBD@Z 0000000180040578     VConnection.obj
 0002:0000e578       $unwind$?new_to_descriptor@VTarget@vips@@SA?AV12@H@Z 0000000180040578     VConnection.obj
 0002:0000e578       $unwind$?new_to_file@VTarget@vips@@SA?AV12@PEBD@Z 0000000180040578     VConnection.obj
 0002:0000e578       $unwind$?copy_memory@VImage@vips@@QEBA?AV12@XZ 0000000180040578     VError.obj
 0002:0000e578       $unwind$?new_temp_file@VImage@vips@@SA?AV12@PEBD@Z 0000000180040578     VError.obj
 0002:0000e578       $unwind$?get_string@VImage@vips@@QEBAPEBDPEBD@Z 0000000180040578     VError.obj
 0002:0000e578       $unwind$?get_double@VImage@vips@@QEBANPEBD@Z 0000000180040578     VError.obj
 0002:0000e578       $unwind$?new_from_blob@VSource@vips@@SA?AV12@PEAU_VipsBlob@@@Z 0000000180040578     VConnection.obj
 0002:0000e578       $unwind$?get_int@VImage@vips@@QEBAHPEBD@Z 0000000180040578     VError.obj
 0002:0000e58c       $unwind$?get_array_int@VImage@vips@@QEBAXPEBDPEAPEAHPEAH@Z 000000018004058c     VError.obj
 0002:0000e5a4       $unwind$?get_array_int@VImage@vips@@QEBA?AV?$vector@HV?$allocator@H@std@@@std@@PEBD@Z 00000001800405a4     VError.obj
 0002:0000e5b8       $chain$0$?get_array_int@VImage@vips@@QEBA?AV?$vector@HV?$allocator@H@std@@@std@@PEBD@Z 00000001800405b8     VError.obj
 0002:0000e5cc       $chain$1$?get_array_int@VImage@vips@@QEBA?AV?$vector@HV?$allocator@H@std@@@std@@PEBD@Z 00000001800405cc     VError.obj
 0002:0000e5dc       $unwind$?get_blob@VImage@vips@@QEBAPEBXPEBDPEA_K@Z 00000001800405dc     VError.obj
 0002:0000e5dc       $unwind$?new_from_name@VInterpolate@vips@@SA?AV12@PEBDPEAVVOption@2@@Z 00000001800405dc     VInterpolate.obj
 0002:0000e5dc       $unwind$?new_from_memory@VImage@vips@@SA?AV12@PEAX_KHHHW4VipsBandFormat@@@Z 00000001800405dc     VError.obj
 0002:0000e5f0       $unwind$?option@VImage@vips@@SAPEAVVOption@2@XZ 00000001800405f0     VError.obj
 0002:0000e604       $stateUnwindMap$?option@VImage@vips@@SAPEAVVOption@2@XZ 0000000180040604     VError.obj
 0002:0000e610       $ip2state$?option@VImage@vips@@SAPEAVVOption@2@XZ 0000000180040610     VError.obj
 0002:0000e620       $unwind$?dtor$0@?0??Yxy2XYZ@VImage@vips@@QEBA?AV12@PEAVVOption@2@@Z@4HA 0000000180040620     VImage.obj
 0002:0000e620       $unwind$?dtor$1@?0??thumbnail_source@VImage@vips@@SA?AV12@VVSource@2@HPEAVVOption@2@@Z@4HA 0000000180040620     VImage.obj
 0002:0000e620       $unwind$?dtor$1@?0??mosaic@VImage@vips@@QEBA?AV12@V12@W4VipsDirection@@HHHHPEAVVOption@2@@Z@4HA 0000000180040620     VImage.obj
 0002:0000e620       $unwind$?dtor$0@?0??tiffload_buffer@VImage@vips@@SA?AV12@PEAU_VipsBlob@@PEAVVOption@2@@Z@4HA 0000000180040620     VImage.obj
 0002:0000e620       $unwind$__acrt_lowio_ensure_fh_exists$fin$0 0000000180040620     libucrt:osfinfo.obj
 0002:0000e620       $unwind$__acrt_initialize_lowio$fin$0 0000000180040620     libucrt:ioinit.obj
 0002:0000e620       $unwind$?dtor$0@?0??XYZ2scRGB@VImage@vips@@QEBA?AV12@PEAVVOption@2@@Z@4HA 0000000180040620     VImage.obj
 0002:0000e620       $unwind$?dtor$1@?0??convsep@VImage@vips@@QEBA?AV12@V12@PEAVVOption@2@@Z@4HA 0000000180040620     VImage.obj
 0002:0000e620       $unwind$?dtor$1@?0??affine@VImage@vips@@QEBA?AV12@V?$vector@NV?$allocator@N@std@@@std@@PEAVVOption@2@@Z@4HA 0000000180040620     VImage.obj
 0002:0000e620       $unwind$?dtor$0@?0??matrixload@VImage@vips@@SA?AV12@PEBDPEAVVOption@2@@Z@4HA 0000000180040620     VImage.obj
 0002:0000e620       $unwind$?dtor$1@?0??tiffload_source@VImage@vips@@SA?AV12@VVSource@2@PEAVVOption@2@@Z@4HA 0000000180040620     VImage.obj
 0002:0000e620       $unwind$?dtor$1@?0??mosaic1@VImage@vips@@QEBA?AV12@V12@W4VipsDirection@@HHHHHHHHPEAVVOption@2@@Z@4HA 0000000180040620     VImage.obj
 0002:0000e620       $unwind$?dtor$0@?0??thumbnail_image@VImage@vips@@QEBA?AV12@HPEAVVOption@2@@Z@4HA 0000000180040620     VImage.obj
 0002:0000e620       $unwind$?dtor$0@?0??matload@VImage@vips@@SA?AV12@PEBDPEAVVOption@2@@Z@4HA 0000000180040620     VImage.obj
 0002:0000e620       $unwind$?dtor$0@?0??globalbalance@VImage@vips@@QEBA?AV12@PEAVVOption@2@@Z@4HA 0000000180040620     VImage.obj
 0002:0000e620       $unwind$?dtor$0@?0??XYZ2Yxy@VImage@vips@@QEBA?AV12@PEAVVOption@2@@Z@4HA 0000000180040620     VImage.obj
 0002:0000e620       $unwind$?dtor$0@?0??grey@VImage@vips@@SA?AV12@HHPEAVVOption@2@@Z@4HA 0000000180040620     VImage.obj
 0002:0000e620       $unwind$?dtor$1@?0??convi@VImage@vips@@QEBA?AV12@V12@PEAVVOption@2@@Z@4HA 0000000180040620     VImage.obj
 0002:0000e620       $unwind$?dtor$1@?0??match@VImage@vips@@QEBA?AV12@V12@HHHHHHHHPEAVVOption@2@@Z@4HA 0000000180040620     VImage.obj
 0002:0000e620       $unwind$?dtor$0@?0??msb@VImage@vips@@QEBA?AV12@PEAVVOption@2@@Z@4HA 0000000180040620     VImage.obj
 0002:0000e620       $unwind$?dtor$0@?0??crop@VImage@vips@@QEBA?AV12@HHHHPEAVVOption@2@@Z@4HA 0000000180040620     VImage.obj
 0002:0000e620       $unwind$?dtor$0@?0??tilecache@VImage@vips@@QEBA?AV12@PEAVVOption@2@@Z@4HA 0000000180040620     VImage.obj
 0002:0000e620       $unwind$?dtor$0@?0??XYZ2Lab@VImage@vips@@QEBA?AV12@PEAVVOption@2@@Z@4HA 0000000180040620     VImage.obj
 0002:0000e620       $unwind$_write$fin$0       0000000180040620     libucrt:write.obj
 0002:0000e620       $unwind$?dtor$0@?0??mask_ideal_ring@VImage@vips@@SA?AV12@HHNNPEAVVOption@2@@Z@4HA 0000000180040620     VImage.obj
 0002:0000e620       $unwind$?dtor$1@?0??complexform@VImage@vips@@QEBA?AV12@V12@PEAVVOption@2@@Z@4HA 0000000180040620     VImage.obj
 0002:0000e620       $unwind$?dtor$0@?0??copy@VImage@vips@@QEBA?AV12@PEAVVOption@2@@Z@4HA 0000000180040620     VImage.obj
 0002:0000e620       $unwind$?dtor$2@?0??composite@VImage@vips@@SA?AV12@V?$vector@VVImage@vips@@V?$allocator@VVImage@vips@@@std@@@std@@V?$vector@HV?$allocator@H@std@@@4@PEAVVOption@2@@Z@4HA 0000000180040620     VImage.obj
 0002:0000e620       $unwind$?dtor$0@?0??tonelut@VImage@vips@@SA?AV12@PEAVVOption@2@@Z@4HA 0000000180040620     VImage.obj
 0002:0000e620       $unwind$?dtor$0@?0??new_from_file@VImage@vips@@SA?AV12@PEBDPEAVVOption@2@@Z@4HA 0000000180040620     VImage.obj
 0002:0000e620       $unwind$?dtor$0@?0??mask_ideal_band@VImage@vips@@SA?AV12@HHNNNPEAVVOption@2@@Z@4HA 0000000180040620     VImage.obj
 0002:0000e620       $unwind$?dtor$0@?0??thumbnail_buffer@VImage@vips@@SA?AV12@PEAU_VipsBlob@@HPEAVVOption@2@@Z@4HA 0000000180040620     VImage.obj
 0002:0000e620       $unwind$?dtor$1@?0??convf@VImage@vips@@QEBA?AV12@V12@PEAVVOption@2@@Z@4HA 0000000180040620     VImage.obj
 0002:0000e620       $unwind$?dtor$1@?0??multiply@VImage@vips@@QEBA?AV12@V12@PEAVVOption@2@@Z@4HA 0000000180040620     VImage.obj
 0002:0000e620       $unwind$?dtor$1@?0??math2_const@VImage@vips@@QEBA?AV12@W4VipsOperationMath2@@V?$vector@NV?$allocator@N@std@@@std@@PEAVVOption@2@@Z@4HA 0000000180040620     VImage.obj
 0002:0000e620       $unwind$?dtor$0@?0??transpose3d@VImage@vips@@QEBA?AV12@PEAVVOption@2@@Z@4HA 0000000180040620     VImage.obj
 0002:0000e620       $unwind$raise$fin$0        0000000180040620     libucrt:signal.obj
 0002:0000e620       $unwind$?dtor$0@?0??niftiload@VImage@vips@@SA?AV12@PEBDPEAVVOption@2@@Z@4HA 0000000180040620     VImage.obj
 0002:0000e620       $unwind$?dtor$0@?0??gifload_buffer@VImage@vips@@SA?AV12@PEAU_VipsBlob@@PEAVVOption@2@@Z@4HA 0000000180040620     VImage.obj
 0002:0000e620       $unwind$?dtor$0@?0??thumbnail@VImage@vips@@SA?AV12@PEBDHPEAVVOption@2@@Z@4HA 0000000180040620     VImage.obj
 0002:0000e620       $unwind$?fin$0@?0???$?RV<lambda_450d765d439847d4c735a33c368b5fc0>@@AEAV<lambda_44731a7d0e6d81c3e6aa82d741081786>@@V<lambda_601a2a7da3b7a96e9554ac7215c4b07c>@@@?$__crt_seh_guarded_call@P6AXH@Z@@QEAAP6AXH@Z$$QEAV<lambda_450d765d439847d4c735a33c368b5fc0>@@AEAV<lambda_44731a7d0e6d81c3e6aa82d741081786>@@$$QEAV<lambda_601a2a7da3b7a96e9554ac7215c4b07c>@@@Z@4HA 0000000180040620     libucrt:signal.obj
 0002:0000e620       $unwind$?dtor$1@?0??complex2@VImage@vips@@QEBA?AV12@V12@W4VipsOperationComplex2@@PEAVVOption@2@@Z@4HA 0000000180040620     VImage.obj
 0002:0000e620       $unwind$?dtor$0@?0??unpremultiply@VImage@vips@@QEBA?AV12@PEAVVOption@2@@Z@4HA 0000000180040620     VImage.obj
 0002:0000e620       $unwind$?dtor$0@?0??openexrload@VImage@vips@@SA?AV12@PEBDPEAVVOption@2@@Z@4HA 0000000180040620     VImage.obj
 0002:0000e620       $unwind$?dtor$0@?0??analyzeload@VImage@vips@@SA?AV12@PEBDPEAVVOption@2@@Z@4HA 0000000180040620     VImage.obj
 0002:0000e620       $unwind$?dtor$0@?0??mask_ideal@VImage@vips@@SA?AV12@HHNPEAVVOption@2@@Z@4HA 0000000180040620     VImage.obj
 0002:0000e620       $unwind$?dtor$1@?0??convasep@VImage@vips@@QEBA?AV12@V12@PEAVVOption@2@@Z@4HA 0000000180040620     VImage.obj
 0002:0000e620       $unwind$?dtor$0@?0??openslideload@VImage@vips@@SA?AV12@PEBDPEAVVOption@2@@Z@4HA 0000000180040620     VImage.obj
 0002:0000e620       $unwind$?dtor$0@?0??text@VImage@vips@@SA?AV12@PEBDPEAVVOption@2@@Z@4HA 0000000180040620     VImage.obj
 0002:0000e620       $unwind$?dtor$0@?0??vipsload@VImage@vips@@SA?AV12@PEBDPEAVVOption@2@@Z@4HA 0000000180040620     VImage.obj
 0002:0000e620       $unwind$?dtor$1@?0??arrayjoin@VImage@vips@@SA?AV12@V?$vector@VVImage@vips@@V?$allocator@VVImage@vips@@@std@@@std@@PEAVVOption@2@@Z@4HA 0000000180040620     VImage.obj
 0002:0000e620       $unwind$?dtor$0@?0??mask_gaussian_ring@VImage@vips@@SA?AV12@HHNNNPEAVVOption@2@@Z@4HA 0000000180040620     VImage.obj
 0002:0000e620       $unwind$?dtor$0@?0??XYZ2CMYK@VImage@vips@@QEBA?AV12@PEAVVOption@2@@Z@4HA 0000000180040620     VImage.obj
 0002:0000e620       $unwind$?dtor$1@?0??conv@VImage@vips@@QEBA?AV12@V12@PEAVVOption@2@@Z@4HA 0000000180040620     VImage.obj
 0002:0000e620       $unwind$?dtor$0@?0??csvload@VImage@vips@@SA?AV12@PEBDPEAVVOption@2@@Z@4HA 0000000180040620     VImage.obj
 0002:0000e620       $unwind$?fin$0@?0???$?RV<lambda_842d9ff0dc9ef11c61343bbaebe7f885>@@AEAV<lambda_c5860995281e5c4ce005b3de8f5874ee>@@V<lambda_d90129c13df834fdcbf8d2b88dafcf2d>@@@?$__crt_seh_guarded_call@X@@QEAAX$$QEAV<lambda_842d9ff0dc9ef11c61343bbaebe7f885>@@AEAV<lambda_c5860995281e5c4ce005b3de8f5874ee>@@$$QEAV<lambda_d90129c13df834fdcbf8d2b88dafcf2d>@@@Z@4HA 0000000180040620     libucrt:fflush.obj
 0002:0000e620       $unwind$?dtor$1@?0??conva@VImage@vips@@QEBA?AV12@V12@PEAVVOption@2@@Z@4HA 0000000180040620     VImage.obj
 0002:0000e620       $unwind$?dtor$0@?0??autorot@VImage@vips@@QEBA?AV12@PEAVVOption@2@@Z@4HA 0000000180040620     VImage.obj
 0002:0000e620       $unwind$?dtor$0@?0??webpload@VImage@vips@@SA?AV12@PEBDPEAVVOption@2@@Z@4HA 0000000180040620     VImage.obj
 0002:0000e620       $unwind$?dtor$0@?0??pdfload@VImage@vips@@SA?AV12@PEBDPEAVVOption@2@@Z@4HA 0000000180040620     VImage.obj
 0002:0000e620       $unwind$?dtor$1@?0??switch_image@VImage@vips@@SA?AV12@V?$vector@VVImage@vips@@V?$allocator@VVImage@vips@@@std@@@std@@PEAVVOption@2@@Z@4HA 0000000180040620     VImage.obj
 0002:0000e620       $unwind$?dtor$0@?0??mask_gaussian_band@VImage@vips@@SA?AV12@HHNNNNPEAVVOption@2@@Z@4HA 0000000180040620     VImage.obj
 0002:0000e620       $unwind$_fcloseall$fin$0   0000000180040620     libucrt:closeall.obj
 0002:0000e620       $unwind$?dtor$0@?0??pdfload_buffer@VImage@vips@@SA?AV12@PEAU_VipsBlob@@PEAVVOption@2@@Z@4HA 0000000180040620     VImage.obj
 0002:0000e620       $unwind$?fin$0@?0???$?RV<lambda_886d6c58226a84441f68b9f2b8217b83>@@AEAV<lambda_ab61a845afdef5b7c387490eaf3616ee>@@V<lambda_f7f22ab5edc0698d5f6905b0d3f44752>@@@?$__crt_seh_guarded_call@X@@QEAAX$$QEAV<lambda_886d6c58226a84441f68b9f2b8217b83>@@AEAV<lambda_ab61a845afdef5b7c387490eaf3616ee>@@$$QEAV<lambda_f7f22ab5edc0698d5f6905b0d3f44752>@@@Z@4HA 0000000180040620     libucrt:fflush.obj
 0002:0000e620       $unwind$?dtor$0@?0??webpload_buffer@VImage@vips@@SA?AV12@PEAU_VipsBlob@@PEAVVOption@2@@Z@4HA 0000000180040620     VImage.obj
 0002:0000e620       $unwind$?dtor$1@?0??composite2@VImage@vips@@QEBA?AV12@V12@W4VipsBlendMode@@PEAVVOption@2@@Z@4HA 0000000180040620     VImage.obj
 0002:0000e620       $unwind$__acrt_update_thread_locale_data$fin$0 0000000180040620     libucrt:locale_refcounting.obj
 0002:0000e620       $unwind$?dtor$1@?0??svgload_source@VImage@vips@@SA?AV12@VVSource@2@PEAVVOption@2@@Z@4HA 0000000180040620     VImage.obj
 0002:0000e620       $unwind$?dtor$0@?0??mask_gaussian@VImage@vips@@SA?AV12@HHNNPEAVVOption@2@@Z@4HA 0000000180040620     VImage.obj
 0002:0000e620       $unwind$?dtor$1@?0??dE00@VImage@vips@@QEBA?AV12@V12@PEAVVOption@2@@Z@4HA 0000000180040620     VImage.obj
 0002:0000e620       $unwind$?dtor$0@?0??new_from_buffer@VImage@vips@@SA?AV12@PEBX_KPEBDPEAVVOption@2@@Z@4HA 0000000180040620     VImage.obj
 0002:0000e620       $unwind$?dtor$1@?0??webpload_source@VImage@vips@@SA?AV12@VVSource@2@PEAVVOption@2@@Z@4HA 0000000180040620     VImage.obj
 0002:0000e620       $unwind$?dtor$0@?0??bandfold@VImage@vips@@QEBA?AV12@PEAVVOption@2@@Z@4HA 0000000180040620     VImage.obj
 0002:0000e620       $unwind$?dtor$0@?0??gifload@VImage@vips@@SA?AV12@PEBDPEAVVOption@2@@Z@4HA 0000000180040620     VImage.obj
 0002:0000e620       $unwind$?dtor$0@?0??svgload_buffer@VImage@vips@@SA?AV12@PEAU_VipsBlob@@PEAVVOption@2@@Z@4HA 0000000180040620     VImage.obj
 0002:0000e620       $unwind$?dtor$0@?0??mask_fractal@VImage@vips@@SA?AV12@HHNPEAVVOption@2@@Z@4HA 0000000180040620     VImage.obj
 0002:0000e620       $unwind$?dtor$1@?0??dE76@VImage@vips@@QEBA?AV12@V12@PEAVVOption@2@@Z@4HA 0000000180040620     VImage.obj
 0002:0000e620       $unwind$?dtor$0@?0??perlin@VImage@vips@@SA?AV12@HHPEAVVOption@2@@Z@4HA 0000000180040620     VImage.obj
 0002:0000e620       $unwind$?dtor$0@?0??svgload@VImage@vips@@SA?AV12@PEBDPEAVVOption@2@@Z@4HA 0000000180040620     VImage.obj
 0002:0000e620       $unwind$?dtor$1@?0??phasecor@VImage@vips@@QEBA?AV12@V12@PEAVVOption@2@@Z@4HA 0000000180040620     VImage.obj
 0002:0000e620       $unwind$?dtor$1@?0??bandjoin@VImage@vips@@SA?AV12@V?$vector@VVImage@vips@@V?$allocator@VVImage@vips@@@std@@@std@@PEAVVOption@2@@Z@4HA 0000000180040620     VImage.obj
 0002:0000e620       $unwind$fclose$fin$0       0000000180040620     libucrt:fclose.obj
 0002:0000e620       $unwind$?dtor$0@?0??mask_butterworth_ring@VImage@vips@@SA?AV12@HHNNNNPEAVVOption@2@@Z@4HA 0000000180040620     VImage.obj
 0002:0000e620       $unwind$?dtor$0@?0??getpoint@VImage@vips@@QEBA?AV?$vector@NV?$allocator@N@std@@@std@@HHPEAVVOption@2@@Z@4HA 0000000180040620     VImage.obj
 0002:0000e620       $unwind$?dtor$1@?0??sum@VImage@vips@@SA?AV12@V?$vector@VVImage@vips@@V?$allocator@VVImage@vips@@@std@@@std@@PEAVVOption@2@@Z@4HA 0000000180040620     VImage.obj
 0002:0000e620       $unwind$?dtor$1@?0??math2@VImage@vips@@QEBA?AV12@V12@W4VipsOperationMath2@@PEAVVOption@2@@Z@4HA 0000000180040620     VImage.obj
 0002:0000e620       $unwind$?dtor$0@?0??mask_butterworth_band@VImage@vips@@SA?AV12@HHNNNNNPEAVVOption@2@@Z@4HA 0000000180040620     VImage.obj
 0002:0000e620       $unwind$?dtor$0@?0??worley@VImage@vips@@SA?AV12@HHPEAVVOption@2@@Z@4HA 0000000180040620     VImage.obj
 0002:0000e620       $unwind$?dtor$1@?0??dECMC@VImage@vips@@QEBA?AV12@V12@PEAVVOption@2@@Z@4HA 0000000180040620     VImage.obj
 0002:0000e620       $unwind$?dtor$0@?0??tiffload@VImage@vips@@SA?AV12@PEBDPEAVVOption@2@@Z@4HA 0000000180040620     VImage.obj
 0002:0000e620       $unwind$?dtor$0@?0??pngload@VImage@vips@@SA?AV12@PEBDPEAVVOption@2@@Z@4HA 0000000180040620     VImage.obj
 0002:0000e620       $unwind$?dtor$0@?0??gravity@VImage@vips@@QEBA?AV12@W4VipsCompassDirection@@HHPEAVVOption@2@@Z@4HA 0000000180040620     VImage.obj
 0002:0000e620       $unwind$?dtor$0@?0??bandmean@VImage@vips@@QEBA?AV12@PEAVVOption@2@@Z@4HA 0000000180040620     VImage.obj
 0002:0000e620       $unwind$?fin$0@?0??dllmain_crt_process_attach@@YAHQEAUHINSTANCE__@@QEAX@Z@4HA 0000000180040620     LIBCMT:dll_dllmain.obj
 0002:0000e620       $unwind$?dtor$0@?0??wrap@VImage@vips@@QEBA?AV12@PEAVVOption@2@@Z@4HA 0000000180040620     VImage.obj
 0002:0000e620       $unwind$?dtor$1@?0??subtract@VImage@vips@@QEBA?AV12@V12@PEAVVOption@2@@Z@4HA 0000000180040620     VImage.obj
 0002:0000e620       $unwind$?dtor$1@?0??bandrank@VImage@vips@@SA?AV12@V?$vector@VVImage@vips@@V?$allocator@VVImage@vips@@@std@@@std@@PEAVVOption@2@@Z@4HA 0000000180040620     VImage.obj
 0002:0000e620       $unwind$?dtor$0@?0??mask_butterworth@VImage@vips@@SA?AV12@HHNNNPEAVVOption@2@@Z@4HA 0000000180040620     VImage.obj
 0002:0000e620       $unwind$?dtor$1@?0??pngload_source@VImage@vips@@SA?AV12@VVSource@2@PEAVVOption@2@@Z@4HA 0000000180040620     VImage.obj
 0002:0000e620       $unwind$?dtor$2@?0??ifthenelse@VImage@vips@@QEBA?AV12@V12@0PEAVVOption@2@@Z@4HA 0000000180040620     VImage.obj
 0002:0000e620       $unwind$?dtor$0@?0??round@VImage@vips@@QEBA?AV12@W4VipsOperationRound@@PEAVVOption@2@@Z@4HA 0000000180040620     VImage.obj
 0002:0000e620       $unwind$?dtor$0@?0??xyz@VImage@vips@@SA?AV12@HHPEAVVOption@2@@Z@4HA 0000000180040620     VImage.obj
 0002:0000e620       $unwind$?dtor$0@?0??gaussnoise@VImage@vips@@SA?AV12@HHPEAVVOption@2@@Z@4HA 0000000180040620     VImage.obj
 0002:0000e620       $unwind$?dtor$0@?0??subsample@VImage@vips@@QEBA?AV12@HHPEAVVOption@2@@Z@4HA 0000000180040620     VImage.obj
 0002:0000e620       $unwind$?dtor$1@?0??maplut@VImage@vips@@QEBA?AV12@V12@PEAVVOption@2@@Z@4HA 0000000180040620     VImage.obj
 0002:0000e620       $unwind$?dtor$0@?0??bandunfold@VImage@vips@@QEBA?AV12@PEAVVOption@2@@Z@4HA 0000000180040620     VImage.obj
 0002:0000e620       $unwind$?dtor$1@?0??divide@VImage@vips@@QEBA?AV12@V12@PEAVVOption@2@@Z@4HA 0000000180040620     VImage.obj
 0002:0000e620       $unwind$?dtor$0@?0??ppmload@VImage@vips@@SA?AV12@PEBDPEAVVOption@2@@Z@4HA 0000000180040620     VImage.obj
 0002:0000e620       $unwind$?dtor$0@?0??zone@VImage@vips@@SA?AV12@HHPEAVVOption@2@@Z@4HA 0000000180040620     VImage.obj
 0002:0000e620       $unwind$?filt$0@?0??__ArrayUnwind@@YAXPEAX_K1P6AX0@Z@Z@4HA 0000000180040620     LIBCMT:ehvecdtr.obj
 0002:0000e620       $unwind$?dtor$0@?0??complexget@VImage@vips@@QEBA?AV12@W4VipsOperationComplexget@@PEAVVOption@2@@Z@4HA 0000000180040620     VImage.obj
 0002:0000e620       $unwind$?fin$0@?0???$?RV<lambda_0ae27a3a962d80f24befdcbee591983d>@@AEAV<lambda_8d0ee55de4b1038c4002e0adecdf1839>@@V<lambda_dc504788e8f1664fe9b84e20bfb512f2>@@@?$__crt_seh_guarded_call@X@@QEAAX$$QEAV<lambda_0ae27a3a962d80f24befdcbee591983d>@@AEAV<lambda_8d0ee55de4b1038c4002e0adecdf1839>@@$$QEAV<lambda_dc504788e8f1664fe9b84e20bfb512f2>@@@Z@4HA 0000000180040620     libucrt:per_thread_data.obj
 0002:0000e620       $unwind$?dtor$0@?0??stdif@VImage@vips@@QEBA?AV12@HHPEAVVOption@2@@Z@4HA 0000000180040620     VImage.obj
 0002:0000e620       $unwind$?fin$0@?0???_M@YAXPEAX_K1P6AX0@Z@Z@4HA 0000000180040620     LIBCMT:ehvecdtr.obj
 0002:0000e620       $unwind$?dtor$1@?0??mapim@VImage@vips@@QEBA?AV12@V12@PEAVVOption@2@@Z@4HA 0000000180040620     VImage.obj
 0002:0000e620       $unwind$?dtor$0@?0??zoom@VImage@vips@@QEBA?AV12@HHPEAVVOption@2@@Z@4HA 0000000180040620     VImage.obj
 0002:0000e620       $unwind$?dtor$0@?0??gaussmat@VImage@vips@@SA?AV12@NNPEAVVOption@2@@Z@4HA 0000000180040620     VImage.obj
 0002:0000e620       $unwind$?dtor$0@?0??black@VImage@vips@@SA?AV12@HHPEAVVOption@2@@Z@4HA 0000000180040620     VImage.obj
 0002:0000e620       $unwind$?dtor$0@?0??premultiply@VImage@vips@@QEBA?AV12@PEAVVOption@2@@Z@4HA 0000000180040620     VImage.obj
 0002:0000e620       $unwind$?fin$0@?0???$?RV<lambda_aa87e3671a710a21b5dc78c0bdf72e11>@@AEAV<lambda_92619d2358a28f41a33ba319515a20b9>@@V<lambda_6992ecaafeb10aed2b74cb1fae11a551>@@@?$__crt_seh_guarded_call@X@@QEAAX$$QEAV<lambda_aa87e3671a710a21b5dc78c0bdf72e11>@@AEAV<lambda_92619d2358a28f41a33ba319515a20b9>@@$$QEAV<lambda_6992ecaafeb10aed2b74cb1fae11a551>@@@Z@4HA 0000000180040620     libucrt:per_thread_data.obj
 0002:0000e620       $unwind$?fin$0@?0???$?RV<lambda_f2e299630e499de9f9a165e60fcd3db5>@@AEAV<lambda_2ae9d31cdba2644fcbeaf08da7c24588>@@V<lambda_40d01ff24d0e7b3814fdbdcee8eab3c7>@@@?$__crt_seh_guarded_call@X@@QEAAX$$QEAV<lambda_f2e299630e499de9f9a165e60fcd3db5>@@AEAV<lambda_2ae9d31cdba2644fcbeaf08da7c24588>@@$$QEAV<lambda_40d01ff24d0e7b3814fdbdcee8eab3c7>@@@Z@4HA 0000000180040620     libucrt:per_thread_data.obj
 0002:0000e620       $unwind$?dtor$0@?0??stats@VImage@vips@@QEBA?AV12@PEAVVOption@2@@Z@4HA 0000000180040620     VImage.obj
 0002:0000e620       $unwind$?dtor$4@?0??bandsplit@VImage@vips@@QEBA?AV?$vector@VVImage@vips@@V?$allocator@VVImage@vips@@@std@@@std@@PEAVVOption@2@@Z@4HA 0000000180040620     VImage.obj
 0002:0000e620       $unwind$?dtor$0@?0??gaussblur@VImage@vips@@QEBA?AV12@NPEAVVOption@2@@Z@4HA 0000000180040620     VImage.obj
 0002:0000e620       $unwind$?dtor$2@?0??bandsplit@VImage@vips@@QEBA?AV?$vector@VVImage@vips@@V?$allocator@VVImage@vips@@@std@@@std@@PEAVVOption@2@@Z@4HA 0000000180040620     VImage.obj
 0002:0000e620       $unwind$?dtor$0@?0??profile@VImage@vips@@QEBA?AV12@PEAV12@PEAVVOption@2@@Z@4HA 0000000180040620     VImage.obj
 0002:0000e620       $unwind$?dtor$0@?0??bandsplit@VImage@vips@@QEBA?AV?$vector@VVImage@vips@@V?$allocator@VVImage@vips@@@std@@@std@@PEAVVOption@2@@Z@4HA 0000000180040620     VImage.obj
 0002:0000e620       $unwind$?dtor$0@?0??LabS2LabQ@VImage@vips@@QEBA?AV12@PEAVVOption@2@@Z@4HA 0000000180040620     VImage.obj
 0002:0000e620       $unwind$?dtor$0@?0??magickload_buffer@VImage@vips@@SA?AV12@PEAU_VipsBlob@@PEAVVOption@2@@Z@4HA 0000000180040620     VImage.obj
 0002:0000e620       $unwind$?dtor$0@?0??project@VImage@vips@@QEBA?AV12@PEAV12@PEAVVOption@2@@Z@4HA 0000000180040620     VImage.obj
 0002:0000e620       $unwind$?fin$0@?0???$?RV<lambda_2d41944a1d46af3157314b8a01080d33>@@AEAV<lambda_8f455de75cd7d7f24b4096f044d8b9e6>@@V<lambda_aa500f224e6afead328df44964fe2772>@@@?$__crt_seh_guarded_call@X@@QEAAX$$QEAV<lambda_2d41944a1d46af3157314b8a01080d33>@@AEAV<lambda_8f455de75cd7d7f24b4096f044d8b9e6>@@$$QEAV<lambda_aa500f224e6afead328df44964fe2772>@@@Z@4HA 0000000180040620     libucrt:per_thread_data.obj
 0002:0000e620       $unwind$?dtor$0@?0??spectrum@VImage@vips@@QEBA?AV12@PEAVVOption@2@@Z@4HA 0000000180040620     VImage.obj
 0002:0000e620       $unwind$?dtor$1@?0??boolean@VImage@vips@@QEBA?AV12@V12@W4VipsOperationBoolean@@PEAVVOption@2@@Z@4HA 0000000180040620     VImage.obj
 0002:0000e620       $unwind$?dtor$6@?0??bandjoin@VImage@vips@@QEBA?AV12@V12@PEAVVOption@2@@Z@4HA 0000000180040620     VImage.obj
 0002:0000e620       $unwind$?dtor$0@?0??magickload@VImage@vips@@SA?AV12@PEBDPEAVVOption@2@@Z@4HA 0000000180040620     VImage.obj
 0002:0000e620       $unwind$?dtor$3@?0??bandjoin@VImage@vips@@QEBA?AV12@V12@PEAVVOption@2@@Z@4HA 0000000180040620     VImage.obj
 0002:0000e620       $unwind$?dtor$1@?0??quadratic@VImage@vips@@QEBA?AV12@V12@PEAVVOption@2@@Z@4HA 0000000180040620     VImage.obj
 0002:0000e620       $unwind$?dtor$0@?0??gamma@VImage@vips@@QEBA?AV12@PEAVVOption@2@@Z@4HA 0000000180040620     VImage.obj
 0002:0000e620       $unwind$?dtor$0@?0??logmat@VImage@vips@@SA?AV12@NNPEAVVOption@2@@Z@4HA 0000000180040620     VImage.obj
 0002:0000e620       $unwind$?dtor$1@?0??boolean_const@VImage@vips@@QEBA?AV12@W4VipsOperationBoolean@@V?$vector@NV?$allocator@N@std@@@std@@PEAVVOption@2@@Z@4HA 0000000180040620     VImage.obj
 0002:0000e620       $unwind$?dtor$0@?0??linecache@VImage@vips@@QEBA?AV12@PEAVVOption@2@@Z@4HA 0000000180040620     VImage.obj
 0002:0000e620       $unwind$?dtor$1@?0??morph@VImage@vips@@QEBA?AV12@V12@W4VipsOperationMorphology@@PEAVVOption@2@@Z@4HA 0000000180040620     VImage.obj
 0002:0000e620       $unwind$?dtor$8@?0??composite@VImage@vips@@QEBA?AV12@V12@W4VipsBlendMode@@PEAVVOption@2@@Z@4HA 0000000180040620     VImage.obj
 0002:0000e620       $unwind$?filt$0@?0??FrameUnwindToState@__FrameHandler3@@SAXPEA_KPEAU_xDISPATCHER_CONTEXT@@PEBU_s_FuncInfo@@H@Z@4HA 0000000180040620     libvcruntime:frame.obj
 0002:0000e620       $unwind$?dtor$3@?0??composite@VImage@vips@@QEBA?AV12@V12@W4VipsBlendMode@@PEAVVOption@2@@Z@4HA 0000000180040620     VImage.obj
 0002:0000e620       $unwind$?dtor$0@?0??labelregions@VImage@vips@@QEBA?AV12@PEAVVOption@2@@Z@4HA 0000000180040620     VImage.obj
 0002:0000e620       $unwind$?fin$1@?0??FrameUnwindToState@__FrameHandler3@@SAXPEA_KPEAU_xDISPATCHER_CONTEXT@@PEBU_s_FuncInfo@@H@Z@4HA 0000000180040620     libvcruntime:frame.obj
 0002:0000e620       $unwind$?filt$0@?0??CxxCallCatchBlock@__FrameHandler3@@SAPEAXPEAU_EXCEPTION_RECORD@@@Z@4HA 0000000180040620     libvcruntime:frame.obj
 0002:0000e620       $unwind$?dtor$0@?0??LabS2Lab@VImage@vips@@QEBA?AV12@PEAVVOption@2@@Z@4HA 0000000180040620     VImage.obj
 0002:0000e620       $unwind$?dtor$1@?0??spcor@VImage@vips@@QEBA?AV12@V12@PEAVVOption@2@@Z@4HA 0000000180040620     VImage.obj
 0002:0000e620       $unwind$?dtor$0@?0??rad2float@VImage@vips@@QEBA?AV12@PEAVVOption@2@@Z@4HA 0000000180040620     VImage.obj
 0002:0000e620       $unwind$?dtor$0@?0??buildlut@VImage@vips@@QEBA?AV12@PEAVVOption@2@@Z@4HA 0000000180040620     VImage.obj
 0002:0000e620       $unwind$?dtor$0@?0??radload@VImage@vips@@SA?AV12@PEBDPEAVVOption@2@@Z@4HA 0000000180040620     VImage.obj
 0002:0000e620       $unwind$?dtor$1@?0??jpegload_source@VImage@vips@@SA?AV12@VVSource@2@PEAVVOption@2@@Z@4HA 0000000180040620     VImage.obj
 0002:0000e620       $unwind$?dtor$0@?0??LabQ2sRGB@VImage@vips@@QEBA?AV12@PEAVVOption@2@@Z@4HA 0000000180040620     VImage.obj
 0002:0000e620       $unwind$?dtor$0@?0??fwfft@VImage@vips@@QEBA?AV12@PEAVVOption@2@@Z@4HA 0000000180040620     VImage.obj
 0002:0000e620       $unwind$?dtor$0@?0??radload_buffer@VImage@vips@@SA?AV12@PEAU_VipsBlob@@PEAVVOption@2@@Z@4HA 0000000180040620     VImage.obj
 0002:0000e620       $unwind$?dtor$0@?0??jpegload_buffer@VImage@vips@@SA?AV12@PEAU_VipsBlob@@PEAVVOption@2@@Z@4HA 0000000180040620     VImage.obj
 0002:0000e620       $unwind$?dtor$0@?0??sobel@VImage@vips@@QEBA?AV12@PEAVVOption@2@@Z@4HA 0000000180040620     VImage.obj
